ARM GAS  C:\Users\Larry\AppData\Local\Temp\ccD8ijU7.s 			page 1


   1              		.syntax unified
   2              		.cpu cortex-m0
   3              		.fpu softvfp
   4              		.eabi_attribute 20, 1
   5              		.eabi_attribute 21, 1
   6              		.eabi_attribute 23, 3
   7              		.eabi_attribute 24, 1
   8              		.eabi_attribute 25, 1
   9              		.eabi_attribute 26, 1
  10              		.eabi_attribute 30, 1
  11              		.eabi_attribute 34, 0
  12              		.eabi_attribute 18, 4
  13              		.thumb
  14              		.syntax unified
  15              		.file	"ADC.c"
  16              		.text
  17              	.Ltext0:
  18              		.cfi_sections	.debug_frame
  19              		.section	.text.ADC_Init,"ax",%progbits
  20              		.align	2
  21              		.global	ADC_Init
  22              		.code	16
  23              		.thumb_func
  24              		.type	ADC_Init, %function
  25              	ADC_Init:
  26              	.LFB2:
  27              		.file 1 "Generated_Source\\PSoC4\\ADC.c"
   1:Generated_Source\PSoC4/ADC.c **** /*******************************************************************************
   2:Generated_Source\PSoC4/ADC.c **** * File Name: ADC.c
   3:Generated_Source\PSoC4/ADC.c **** * Version 2.50
   4:Generated_Source\PSoC4/ADC.c **** *
   5:Generated_Source\PSoC4/ADC.c **** * Description:
   6:Generated_Source\PSoC4/ADC.c **** *  This file provides the source code to the API for the Sequencing Successive
   7:Generated_Source\PSoC4/ADC.c **** *  Approximation ADC Component Component.
   8:Generated_Source\PSoC4/ADC.c **** *
   9:Generated_Source\PSoC4/ADC.c **** * Note:
  10:Generated_Source\PSoC4/ADC.c **** *
  11:Generated_Source\PSoC4/ADC.c **** ********************************************************************************
  12:Generated_Source\PSoC4/ADC.c **** * Copyright 2008-2017, Cypress Semiconductor Corporation.  All rights reserved.
  13:Generated_Source\PSoC4/ADC.c **** * You may use this file only in accordance with the license, terms, conditions,
  14:Generated_Source\PSoC4/ADC.c **** * disclaimers, and limitations in the end user license agreement accompanying
  15:Generated_Source\PSoC4/ADC.c **** * the software package with which this file was provided.
  16:Generated_Source\PSoC4/ADC.c **** *******************************************************************************/
  17:Generated_Source\PSoC4/ADC.c **** 
  18:Generated_Source\PSoC4/ADC.c **** #include "ADC.h"
  19:Generated_Source\PSoC4/ADC.c **** 
  20:Generated_Source\PSoC4/ADC.c **** 
  21:Generated_Source\PSoC4/ADC.c **** /***************************************
  22:Generated_Source\PSoC4/ADC.c **** * Global data allocation
  23:Generated_Source\PSoC4/ADC.c **** ***************************************/
  24:Generated_Source\PSoC4/ADC.c **** uint8 ADC_initVar = 0u;
  25:Generated_Source\PSoC4/ADC.c **** volatile int16 ADC_offset[ADC_TOTAL_CHANNELS_NUM];
  26:Generated_Source\PSoC4/ADC.c **** volatile int32 ADC_countsPer10Volt[ADC_TOTAL_CHANNELS_NUM];   /* Gain compensation */
  27:Generated_Source\PSoC4/ADC.c **** 
  28:Generated_Source\PSoC4/ADC.c **** 
  29:Generated_Source\PSoC4/ADC.c **** /***************************************
  30:Generated_Source\PSoC4/ADC.c **** * Local data allocation
ARM GAS  C:\Users\Larry\AppData\Local\Temp\ccD8ijU7.s 			page 2


  31:Generated_Source\PSoC4/ADC.c **** ***************************************/
  32:Generated_Source\PSoC4/ADC.c **** /* Channels configuration generated by customiser */
  33:Generated_Source\PSoC4/ADC.c **** static const uint32 CYCODE ADC_channelsConfig[] = { 0x00000400u, 0x00000500u, 0x00001400u, 0x000014
  34:Generated_Source\PSoC4/ADC.c **** 
  35:Generated_Source\PSoC4/ADC.c **** 
  36:Generated_Source\PSoC4/ADC.c **** /*******************************************************************************
  37:Generated_Source\PSoC4/ADC.c **** * Function Name: ADC_Start
  38:Generated_Source\PSoC4/ADC.c **** ********************************************************************************
  39:Generated_Source\PSoC4/ADC.c **** *
  40:Generated_Source\PSoC4/ADC.c **** * Summary:
  41:Generated_Source\PSoC4/ADC.c **** *  Performs all required initialization for this component
  42:Generated_Source\PSoC4/ADC.c **** *  and enables the power. The power will be set to the appropriate
  43:Generated_Source\PSoC4/ADC.c **** *  power based on the clock frequency.
  44:Generated_Source\PSoC4/ADC.c **** *
  45:Generated_Source\PSoC4/ADC.c **** * Parameters:
  46:Generated_Source\PSoC4/ADC.c **** *  None.
  47:Generated_Source\PSoC4/ADC.c **** *
  48:Generated_Source\PSoC4/ADC.c **** * Return:
  49:Generated_Source\PSoC4/ADC.c **** *  None.
  50:Generated_Source\PSoC4/ADC.c **** *
  51:Generated_Source\PSoC4/ADC.c **** * Global variables:
  52:Generated_Source\PSoC4/ADC.c **** *  The ADC_initVar variable is used to indicate when/if initial
  53:Generated_Source\PSoC4/ADC.c **** *  configuration of this component has happened. The variable is initialized to
  54:Generated_Source\PSoC4/ADC.c **** *  zero and set to 1 the first time ADC_Start() is called. This allows for
  55:Generated_Source\PSoC4/ADC.c **** *  component Re-Start without re-initialization in all subsequent calls to the
  56:Generated_Source\PSoC4/ADC.c **** *  ADC_Start() routine.
  57:Generated_Source\PSoC4/ADC.c **** *  If re-initialization of the component is required the variable should be set
  58:Generated_Source\PSoC4/ADC.c **** *  to zero before call of ADC_Start() routine, or the user may call
  59:Generated_Source\PSoC4/ADC.c **** *  ADC_Init() and ADC_Enable() as done in the
  60:Generated_Source\PSoC4/ADC.c **** *  ADC_Start() routine.
  61:Generated_Source\PSoC4/ADC.c **** *
  62:Generated_Source\PSoC4/ADC.c **** *******************************************************************************/
  63:Generated_Source\PSoC4/ADC.c **** void ADC_Start(void)
  64:Generated_Source\PSoC4/ADC.c **** {
  65:Generated_Source\PSoC4/ADC.c ****     /* If not Initialized then initialize all required hardware and software */
  66:Generated_Source\PSoC4/ADC.c ****     if(ADC_initVar == 0u)
  67:Generated_Source\PSoC4/ADC.c ****     {
  68:Generated_Source\PSoC4/ADC.c ****         ADC_Init();
  69:Generated_Source\PSoC4/ADC.c ****         ADC_initVar = 1u;
  70:Generated_Source\PSoC4/ADC.c ****     }
  71:Generated_Source\PSoC4/ADC.c ****     ADC_Enable();
  72:Generated_Source\PSoC4/ADC.c **** }
  73:Generated_Source\PSoC4/ADC.c **** 
  74:Generated_Source\PSoC4/ADC.c **** 
  75:Generated_Source\PSoC4/ADC.c **** /*******************************************************************************
  76:Generated_Source\PSoC4/ADC.c **** * Function Name: ADC_Init
  77:Generated_Source\PSoC4/ADC.c **** ********************************************************************************
  78:Generated_Source\PSoC4/ADC.c **** *
  79:Generated_Source\PSoC4/ADC.c **** * Summary:
  80:Generated_Source\PSoC4/ADC.c **** *  Initialize component's parameters to the parameters set by user in the
  81:Generated_Source\PSoC4/ADC.c **** *  customizer of the component placed onto schematic. Usually called in
  82:Generated_Source\PSoC4/ADC.c **** *  ADC_Start().
  83:Generated_Source\PSoC4/ADC.c **** *
  84:Generated_Source\PSoC4/ADC.c **** * Parameters:
  85:Generated_Source\PSoC4/ADC.c **** *  None.
  86:Generated_Source\PSoC4/ADC.c **** *
  87:Generated_Source\PSoC4/ADC.c **** * Return:
ARM GAS  C:\Users\Larry\AppData\Local\Temp\ccD8ijU7.s 			page 3


  88:Generated_Source\PSoC4/ADC.c **** *  None.
  89:Generated_Source\PSoC4/ADC.c **** *
  90:Generated_Source\PSoC4/ADC.c **** * Global variables:
  91:Generated_Source\PSoC4/ADC.c **** *  The ADC_offset variable is initialized.
  92:Generated_Source\PSoC4/ADC.c **** *
  93:Generated_Source\PSoC4/ADC.c **** *******************************************************************************/
  94:Generated_Source\PSoC4/ADC.c **** void ADC_Init(void)
  95:Generated_Source\PSoC4/ADC.c **** {
  28              		.loc 1 95 0
  29              		.cfi_startproc
  30              		@ args = 0, pretend = 0, frame = 0
  31              		@ frame_needed = 0, uses_anonymous_args = 0
  32 0000 10B5     		push	{r4, lr}
  33              		.cfi_def_cfa_offset 8
  34              		.cfi_offset 4, -8
  35              		.cfi_offset 14, -4
  96:Generated_Source\PSoC4/ADC.c ****     uint32 chNum;
  97:Generated_Source\PSoC4/ADC.c ****     uint32 tmpRegVal;
  98:Generated_Source\PSoC4/ADC.c ****     int32 counts;
  99:Generated_Source\PSoC4/ADC.c **** 
 100:Generated_Source\PSoC4/ADC.c ****     #if(ADC_TOTAL_CHANNELS_NUM > 1u)
 101:Generated_Source\PSoC4/ADC.c ****         static const uint8 CYCODE ADC_InputsPlacement[] =
 102:Generated_Source\PSoC4/ADC.c ****         {
 103:Generated_Source\PSoC4/ADC.c ****             (uint8)(ADC_cy_psoc4_sarmux_8__CH_0_PORT << 4u) |
 104:Generated_Source\PSoC4/ADC.c ****             (uint8)ADC_cy_psoc4_sarmux_8__CH_0_PIN
 105:Generated_Source\PSoC4/ADC.c ****             ,(uint8)(ADC_cy_psoc4_sarmux_8__CH_1_PORT << 4u) |
 106:Generated_Source\PSoC4/ADC.c ****              (uint8)ADC_cy_psoc4_sarmux_8__CH_1_PIN
 107:Generated_Source\PSoC4/ADC.c ****             #if(ADC_TOTAL_CHANNELS_NUM > 2u)
 108:Generated_Source\PSoC4/ADC.c ****                 ,(uint8)(ADC_cy_psoc4_sarmux_8__CH_2_PORT << 4u) |
 109:Generated_Source\PSoC4/ADC.c ****                  (uint8)ADC_cy_psoc4_sarmux_8__CH_2_PIN
 110:Generated_Source\PSoC4/ADC.c ****             #endif /* End ADC_TOTAL_CHANNELS_NUM > 2u */
 111:Generated_Source\PSoC4/ADC.c ****             #if(ADC_TOTAL_CHANNELS_NUM > 3u)
 112:Generated_Source\PSoC4/ADC.c ****                 ,(uint8)(ADC_cy_psoc4_sarmux_8__CH_3_PORT << 4u) |
 113:Generated_Source\PSoC4/ADC.c ****                  (uint8)ADC_cy_psoc4_sarmux_8__CH_3_PIN
 114:Generated_Source\PSoC4/ADC.c ****             #endif /* End ADC_TOTAL_CHANNELS_NUM > 3u */
 115:Generated_Source\PSoC4/ADC.c ****             #if(ADC_TOTAL_CHANNELS_NUM > 4u)
 116:Generated_Source\PSoC4/ADC.c ****                 ,(uint8)(ADC_cy_psoc4_sarmux_8__CH_4_PORT << 4u) |
 117:Generated_Source\PSoC4/ADC.c ****                  (uint8)ADC_cy_psoc4_sarmux_8__CH_4_PIN
 118:Generated_Source\PSoC4/ADC.c ****             #endif /* End ADC_TOTAL_CHANNELS_NUM > 4u */
 119:Generated_Source\PSoC4/ADC.c ****             #if(ADC_TOTAL_CHANNELS_NUM > 5u)
 120:Generated_Source\PSoC4/ADC.c ****                 ,(uint8)(ADC_cy_psoc4_sarmux_8__CH_5_PORT << 4u) |
 121:Generated_Source\PSoC4/ADC.c ****                  (uint8)ADC_cy_psoc4_sarmux_8__CH_5_PIN
 122:Generated_Source\PSoC4/ADC.c ****             #endif /* End ADC_TOTAL_CHANNELS_NUM > 5u */
 123:Generated_Source\PSoC4/ADC.c ****             #if(ADC_TOTAL_CHANNELS_NUM > 6u)
 124:Generated_Source\PSoC4/ADC.c ****                 ,(uint8)(ADC_cy_psoc4_sarmux_8__CH_6_PORT << 4u) |
 125:Generated_Source\PSoC4/ADC.c ****                  (uint8)ADC_cy_psoc4_sarmux_8__CH_6_PIN
 126:Generated_Source\PSoC4/ADC.c ****             #endif /* End ADC_TOTAL_CHANNELS_NUM > 6u */
 127:Generated_Source\PSoC4/ADC.c ****             #if(ADC_TOTAL_CHANNELS_NUM > 7u)
 128:Generated_Source\PSoC4/ADC.c ****                 ,(uint8)(ADC_cy_psoc4_sarmux_8__CH_7_PORT << 4u) |
 129:Generated_Source\PSoC4/ADC.c ****                  (uint8)ADC_cy_psoc4_sarmux_8__CH_7_PIN
 130:Generated_Source\PSoC4/ADC.c ****             #endif /* End ADC_TOTAL_CHANNELS_NUM > 7u */
 131:Generated_Source\PSoC4/ADC.c ****             #if(ADC_TOTAL_CHANNELS_NUM > 8u)
 132:Generated_Source\PSoC4/ADC.c ****                 ,(uint8)(ADC_cy_psoc4_sarmux_8__CH_8_PORT << 4u) |
 133:Generated_Source\PSoC4/ADC.c ****                  (uint8)ADC_cy_psoc4_sarmux_8__CH_8_PIN
 134:Generated_Source\PSoC4/ADC.c ****             #endif /* End ADC_TOTAL_CHANNELS_NUM > 8u */
 135:Generated_Source\PSoC4/ADC.c ****             #if(ADC_TOTAL_CHANNELS_NUM > 9u)
 136:Generated_Source\PSoC4/ADC.c ****                 ,(uint8)(ADC_cy_psoc4_sarmux_8__CH_9_PORT << 4u) |
ARM GAS  C:\Users\Larry\AppData\Local\Temp\ccD8ijU7.s 			page 4


 137:Generated_Source\PSoC4/ADC.c ****                  (uint8)ADC_cy_psoc4_sarmux_8__CH_9_PIN
 138:Generated_Source\PSoC4/ADC.c ****             #endif /* End ADC_TOTAL_CHANNELS_NUM > 9u */
 139:Generated_Source\PSoC4/ADC.c ****             #if(ADC_TOTAL_CHANNELS_NUM > 10u)
 140:Generated_Source\PSoC4/ADC.c ****                 ,(uint8)(ADC_cy_psoc4_sarmux_8__CH_10_PORT << 4u) |
 141:Generated_Source\PSoC4/ADC.c ****                  (uint8)ADC_cy_psoc4_sarmux_8__CH_10_PIN
 142:Generated_Source\PSoC4/ADC.c ****             #endif /* End ADC_TOTAL_CHANNELS_NUM > 10u */
 143:Generated_Source\PSoC4/ADC.c ****             #if(ADC_TOTAL_CHANNELS_NUM > 11u)
 144:Generated_Source\PSoC4/ADC.c ****                 ,(uint8)(ADC_cy_psoc4_sarmux_8__CH_11_PORT << 4u) |
 145:Generated_Source\PSoC4/ADC.c ****                  (uint8)ADC_cy_psoc4_sarmux_8__CH_11_PIN
 146:Generated_Source\PSoC4/ADC.c ****             #endif /* End ADC_TOTAL_CHANNELS_NUM > 11u */
 147:Generated_Source\PSoC4/ADC.c ****             #if(ADC_TOTAL_CHANNELS_NUM > 12u)
 148:Generated_Source\PSoC4/ADC.c ****                 ,(uint8)(ADC_cy_psoc4_sarmux_8__CH_12_PORT << 4u) |
 149:Generated_Source\PSoC4/ADC.c ****                  (uint8)ADC_cy_psoc4_sarmux_8__CH_12_PIN
 150:Generated_Source\PSoC4/ADC.c ****             #endif /* End ADC_TOTAL_CHANNELS_NUM > 12u */
 151:Generated_Source\PSoC4/ADC.c ****             #if(ADC_TOTAL_CHANNELS_NUM > 13u)
 152:Generated_Source\PSoC4/ADC.c ****                 ,(uint8)(ADC_cy_psoc4_sarmux_8__CH_13_PORT << 4u) |
 153:Generated_Source\PSoC4/ADC.c ****                  (uint8)ADC_cy_psoc4_sarmux_8__CH_13_PIN
 154:Generated_Source\PSoC4/ADC.c ****             #endif /* End ADC_TOTAL_CHANNELS_NUM > 13u */
 155:Generated_Source\PSoC4/ADC.c ****             #if(ADC_TOTAL_CHANNELS_NUM > 14u)
 156:Generated_Source\PSoC4/ADC.c ****                 ,(uint8)(ADC_cy_psoc4_sarmux_8__CH_14_PORT << 4u) |
 157:Generated_Source\PSoC4/ADC.c ****                  (uint8)ADC_cy_psoc4_sarmux_8__CH_14_PIN
 158:Generated_Source\PSoC4/ADC.c ****             #endif /* End ADC_TOTAL_CHANNELS_NUM > 14u */
 159:Generated_Source\PSoC4/ADC.c ****             #if(ADC_TOTAL_CHANNELS_NUM > 15u)
 160:Generated_Source\PSoC4/ADC.c ****                 ,(uint8)(ADC_cy_psoc4_sarmux_8__CH_15_PORT << 4u) |
 161:Generated_Source\PSoC4/ADC.c ****                  (uint8)ADC_cy_psoc4_sarmux_8__CH_15_PIN
 162:Generated_Source\PSoC4/ADC.c ****             #endif /* End ADC_TOTAL_CHANNELS_NUM > 15u */
 163:Generated_Source\PSoC4/ADC.c ****             #if(ADC_TOTAL_CHANNELS_NUM > 16u)
 164:Generated_Source\PSoC4/ADC.c ****                 ,(uint8)(ADC_cy_psoc4_sarmux_8__CH_16_PORT << 4u) |
 165:Generated_Source\PSoC4/ADC.c ****                  (uint8)ADC_cy_psoc4_sarmux_8__CH_16_PIN
 166:Generated_Source\PSoC4/ADC.c ****             #endif /* End ADC_TOTAL_CHANNELS_NUM > 16u */
 167:Generated_Source\PSoC4/ADC.c ****         };
 168:Generated_Source\PSoC4/ADC.c ****     #endif /* End ADC_TOTAL_CHANNELS_NUM > 1u */
 169:Generated_Source\PSoC4/ADC.c **** 
 170:Generated_Source\PSoC4/ADC.c ****     #if(ADC_IRQ_REMOVE == 0u)
 171:Generated_Source\PSoC4/ADC.c ****         /* Start and set interrupt vector */
 172:Generated_Source\PSoC4/ADC.c ****         CyIntSetPriority(ADC_INTC_NUMBER, ADC_INTC_PRIOR_NUMBER);
  36              		.loc 1 172 0
  37 0002 0321     		movs	r1, #3
  38 0004 1020     		movs	r0, #16
  39 0006 FFF7FEFF 		bl	CyIntSetPriority
  40              	.LVL0:
 173:Generated_Source\PSoC4/ADC.c ****         (void)CyIntSetVector(ADC_INTC_NUMBER, &ADC_ISR);
  41              		.loc 1 173 0
  42 000a 4D49     		ldr	r1, .L14
  43 000c 1020     		movs	r0, #16
  44 000e FFF7FEFF 		bl	CyIntSetVector
  45              	.LVL1:
 174:Generated_Source\PSoC4/ADC.c ****     #endif   /* End ADC_IRQ_REMOVE */
 175:Generated_Source\PSoC4/ADC.c **** 
 176:Generated_Source\PSoC4/ADC.c ****     /* Init SAR and MUX registers */
 177:Generated_Source\PSoC4/ADC.c ****     ADC_SAR_CHAN_EN_REG = ADC_DEFAULT_EN_CHANNELS;
  46              		.loc 1 177 0
  47 0012 0F22     		movs	r2, #15
  48 0014 4B4B     		ldr	r3, .L14+4
  49 0016 1A60     		str	r2, [r3]
 178:Generated_Source\PSoC4/ADC.c ****     ADC_SAR_CTRL_REG |= ADC_DEFAULT_CTRL_REG_CFG | 
 179:Generated_Source\PSoC4/ADC.c ****         /* Enable the SAR internal pump when global pump is enabled */
ARM GAS  C:\Users\Larry\AppData\Local\Temp\ccD8ijU7.s 			page 5


 180:Generated_Source\PSoC4/ADC.c ****         (((ADC_PUMP_CTRL_REG & ADC_PUMP_CTRL_ENABLED) != 0u) ? 
  50              		.loc 1 180 0
  51 0018 4B4B     		ldr	r3, .L14+8
  52 001a 1B68     		ldr	r3, [r3]
 178:Generated_Source\PSoC4/ADC.c ****     ADC_SAR_CTRL_REG |= ADC_DEFAULT_CTRL_REG_CFG | 
  53              		.loc 1 178 0
  54 001c 002B     		cmp	r3, #0
  55 001e 01DA     		bge	.L12
  56 0020 4A49     		ldr	r1, .L14+12
  57 0022 00E0     		b	.L2
  58              	.L12:
  59 0024 4A49     		ldr	r1, .L14+16
  60              	.L2:
 178:Generated_Source\PSoC4/ADC.c ****     ADC_SAR_CTRL_REG |= ADC_DEFAULT_CTRL_REG_CFG | 
  61              		.loc 1 178 0 is_stmt 0 discriminator 4
  62 0026 4B4A     		ldr	r2, .L14+20
  63 0028 1368     		ldr	r3, [r2]
  64 002a 0B43     		orrs	r3, r1
  65 002c 1360     		str	r3, [r2]
 181:Generated_Source\PSoC4/ADC.c ****         ADC_BOOSTPUMP_EN : 0u);
 182:Generated_Source\PSoC4/ADC.c ****     ADC_SAR_SAMPLE_CTRL_REG = ADC_DEFAULT_SAMPLE_CTRL_REG_CFG;
  66              		.loc 1 182 0 is_stmt 1 discriminator 4
  67 002e 4A4A     		ldr	r2, .L14+24
  68 0030 4A4B     		ldr	r3, .L14+28
  69 0032 1A60     		str	r2, [r3]
 183:Generated_Source\PSoC4/ADC.c ****     ADC_SAR_RANGE_THRES_REG = ADC_DEFAULT_RANGE_THRES_REG_CFG;
  70              		.loc 1 183 0 discriminator 4
  71 0034 4A4A     		ldr	r2, .L14+32
  72 0036 4B4B     		ldr	r3, .L14+36
  73 0038 1A60     		str	r2, [r3]
 184:Generated_Source\PSoC4/ADC.c ****     ADC_SAR_RANGE_COND_REG  = ADC_COMPARE_MODE;
  74              		.loc 1 184 0 discriminator 4
  75 003a 0023     		movs	r3, #0
  76 003c 4A4A     		ldr	r2, .L14+40
  77 003e 1360     		str	r3, [r2]
 185:Generated_Source\PSoC4/ADC.c ****     ADC_SAR_SAMPLE_TIME01_REG = ADC_DEFAULT_SAMPLE_TIME01_REG_CFG;
  78              		.loc 1 185 0 discriminator 4
  79 0040 4A49     		ldr	r1, .L14+44
  80 0042 4B4A     		ldr	r2, .L14+48
  81 0044 1160     		str	r1, [r2]
 186:Generated_Source\PSoC4/ADC.c ****     ADC_SAR_SAMPLE_TIME23_REG = ADC_DEFAULT_SAMPLE_TIME23_REG_CFG;
  82              		.loc 1 186 0 discriminator 4
  83 0046 4B49     		ldr	r1, .L14+52
  84 0048 4B4A     		ldr	r2, .L14+56
  85 004a 1160     		str	r1, [r2]
 187:Generated_Source\PSoC4/ADC.c ****     
 188:Generated_Source\PSoC4/ADC.c ****     /* Connect Vm to VSSA when even one channel is single-ended or multiple channels configured */
 189:Generated_Source\PSoC4/ADC.c ****     #if(ADC_DEFAULT_MUX_SWITCH0 != 0u)
 190:Generated_Source\PSoC4/ADC.c ****         ADC_MUX_SWITCH0_REG |= ADC_DEFAULT_MUX_SWITCH0;
 191:Generated_Source\PSoC4/ADC.c ****         /* Set MUX_HW_CTRL_VSSA in MUX_SWITCH_HW_CTRL when multiple channels enabled */
 192:Generated_Source\PSoC4/ADC.c ****         #if(ADC_TOTAL_CHANNELS_NUM > 1u)
 193:Generated_Source\PSoC4/ADC.c ****             ADC_MUX_SWITCH_HW_CTRL_REG |= ADC_DEFAULT_MUX_SWITCH0;
 194:Generated_Source\PSoC4/ADC.c ****         #endif /* ADC_TOTAL_CHANNELS_NUM > 1u */
 195:Generated_Source\PSoC4/ADC.c ****     #endif /*ADC_CHANNELS_MODE !=0 */
 196:Generated_Source\PSoC4/ADC.c **** 
 197:Generated_Source\PSoC4/ADC.c ****     ADC_SAR_SATURATE_INTR_MASK_REG = 0u;
  86              		.loc 1 197 0 discriminator 4
ARM GAS  C:\Users\Larry\AppData\Local\Temp\ccD8ijU7.s 			page 6


  87 004c 4B4A     		ldr	r2, .L14+60
  88 004e 1360     		str	r3, [r2]
 198:Generated_Source\PSoC4/ADC.c ****     ADC_SAR_RANGE_INTR_MASK_REG = 0u;
  89              		.loc 1 198 0 discriminator 4
  90 0050 4B4A     		ldr	r2, .L14+64
  91 0052 1360     		str	r3, [r2]
 199:Generated_Source\PSoC4/ADC.c ****     ADC_SAR_INTR_MASK_REG = ADC_SAR_INTR_MASK;
  92              		.loc 1 199 0 discriminator 4
  93 0054 1122     		movs	r2, #17
  94 0056 4B4B     		ldr	r3, .L14+68
  95 0058 1A60     		str	r2, [r3]
 200:Generated_Source\PSoC4/ADC.c **** 
 201:Generated_Source\PSoC4/ADC.c ****     #if(ADC_CY_SAR_IP_VER == ADC_CY_SAR_IP_VER0)
 202:Generated_Source\PSoC4/ADC.c ****         ADC_ANA_TRIM_REG = ADC_TRIM_COEF;
 203:Generated_Source\PSoC4/ADC.c ****     #endif /* (ADC_CY_SAR_IP_VER == ADC_CY_SAR_IP_VER0) */
 204:Generated_Source\PSoC4/ADC.c **** 
 205:Generated_Source\PSoC4/ADC.c ****     /* Read and modify default configuration based on characterization */
 206:Generated_Source\PSoC4/ADC.c ****     tmpRegVal = ADC_SAR_DFT_CTRL_REG;
  96              		.loc 1 206 0 discriminator 4
  97 005a 4B49     		ldr	r1, .L14+72
  98 005c 0A68     		ldr	r2, [r1]
  99              	.LVL2:
 207:Generated_Source\PSoC4/ADC.c ****     tmpRegVal &= (uint32)~ADC_DCEN;
 100              		.loc 1 207 0 discriminator 4
 101 005e 4B4B     		ldr	r3, .L14+76
 102 0060 1340     		ands	r3, r2
 103              	.LVL3:
 208:Generated_Source\PSoC4/ADC.c ****     
 209:Generated_Source\PSoC4/ADC.c ****     #if(ADC_CY_SAR_IP_VER == ADC_CY_SAR_IP_VER0)
 210:Generated_Source\PSoC4/ADC.c ****         #if(ADC_NOMINAL_CLOCK_FREQ > (ADC_MAX_FREQUENCY / 2))
 211:Generated_Source\PSoC4/ADC.c ****             tmpRegVal |= ADC_SEL_CSEL_DFT_CHAR;
 212:Generated_Source\PSoC4/ADC.c ****         #else  /* clock speed < 9 Mhz */
 213:Generated_Source\PSoC4/ADC.c ****             tmpRegVal |= ADC_DLY_INC;
 214:Generated_Source\PSoC4/ADC.c ****         #endif /* clock speed > 9 Mhz */
 215:Generated_Source\PSoC4/ADC.c ****     #else
 216:Generated_Source\PSoC4/ADC.c ****         #if ((ADC_DEFAULT_VREF_SEL == ADC__INTERNAL1024) || \
 217:Generated_Source\PSoC4/ADC.c ****              (ADC_DEFAULT_VREF_SEL == ADC__INTERNALVREF))
 218:Generated_Source\PSoC4/ADC.c ****             tmpRegVal |= ADC_DLY_INC;
 104              		.loc 1 218 0 discriminator 4
 105 0062 0122     		movs	r2, #1
 106 0064 1343     		orrs	r3, r2
 107              	.LVL4:
 219:Generated_Source\PSoC4/ADC.c ****         #else
 220:Generated_Source\PSoC4/ADC.c ****             tmpRegVal |= ADC_DCEN;
 221:Generated_Source\PSoC4/ADC.c ****             tmpRegVal &= (uint32)~ADC_DLY_INC;
 222:Generated_Source\PSoC4/ADC.c ****         #endif /* ((ADC_DEFAULT_VREF_SEL == ADC__INTERNAL1024) || \
 223:Generated_Source\PSoC4/ADC.c ****                    (ADC_DEFAULT_VREF_SEL == ADC__INTERNALVREF)) */
 224:Generated_Source\PSoC4/ADC.c ****     #endif /* (ADC_CY_SAR_IP_VER == ADC_CY_SAR_IP_VER0) */
 225:Generated_Source\PSoC4/ADC.c ****     
 226:Generated_Source\PSoC4/ADC.c ****     ADC_SAR_DFT_CTRL_REG = tmpRegVal;
 108              		.loc 1 226 0 discriminator 4
 109 0066 0B60     		str	r3, [r1]
 110              	.LVL5:
 227:Generated_Source\PSoC4/ADC.c **** 
 228:Generated_Source\PSoC4/ADC.c ****     #if(ADC_MAX_RESOLUTION != ADC_RESOLUTION_12)
 229:Generated_Source\PSoC4/ADC.c ****         ADC_WOUNDING_REG = ADC_ALT_WOUNDING;
 230:Generated_Source\PSoC4/ADC.c ****     #endif /* ADC_MAX_RESOLUTION != ADC_RESOLUTION_12 */
ARM GAS  C:\Users\Larry\AppData\Local\Temp\ccD8ijU7.s 			page 7


 231:Generated_Source\PSoC4/ADC.c **** 
 232:Generated_Source\PSoC4/ADC.c ****     for(chNum = 0u; chNum < ADC_TOTAL_CHANNELS_NUM; chNum++)
 111              		.loc 1 232 0 discriminator 4
 112 0068 0022     		movs	r2, #0
 113 006a 65E0     		b	.L3
 114              	.LVL6:
 115              	.L11:
 233:Generated_Source\PSoC4/ADC.c ****     {
 234:Generated_Source\PSoC4/ADC.c ****         tmpRegVal = (ADC_channelsConfig[chNum] & ADC_CHANNEL_CONFIG_MASK);
 116              		.loc 1 234 0
 117 006c 4849     		ldr	r1, .L14+80
 118 006e 9300     		lsls	r3, r2, #2
 119 0070 5858     		ldr	r0, [r3, r1]
 120 0072 DC23     		movs	r3, #220
 121 0074 9B01     		lsls	r3, r3, #6
 122 0076 0340     		ands	r3, r0
 123              	.LVL7:
 235:Generated_Source\PSoC4/ADC.c ****         #if(ADC_TOTAL_CHANNELS_NUM > 1u)
 236:Generated_Source\PSoC4/ADC.c ****             tmpRegVal |= ADC_InputsPlacement[chNum];
 124              		.loc 1 236 0
 125 0078 8918     		adds	r1, r1, r2
 126 007a 097D     		ldrb	r1, [r1, #20]
 127 007c 0B43     		orrs	r3, r1
 128              	.LVL8:
 237:Generated_Source\PSoC4/ADC.c ****         #endif /* End ADC_TOTAL_CHANNELS_NUM > 1u */
 238:Generated_Source\PSoC4/ADC.c ****         
 239:Generated_Source\PSoC4/ADC.c ****         
 240:Generated_Source\PSoC4/ADC.c ****         /* When the part is limited to 10-bit then the SUB_RESOLUTION bit
 241:Generated_Source\PSoC4/ADC.c ****         *  will be ignored and the RESOLUTION bit selects between 10-bit
 242:Generated_Source\PSoC4/ADC.c ****         *  (0) and 8-bit (1) resolution.
 243:Generated_Source\PSoC4/ADC.c ****         */
 244:Generated_Source\PSoC4/ADC.c ****         #if((ADC_MAX_RESOLUTION != ADC_RESOLUTION_12) && \
 245:Generated_Source\PSoC4/ADC.c ****             (ADC_ALT_WOUNDING == ADC_WOUNDING_10BIT))
 246:Generated_Source\PSoC4/ADC.c ****             tmpRegVal &= (uint32)(~ADC_ALT_RESOLUTION_ON);
 247:Generated_Source\PSoC4/ADC.c ****         #endif /* ADC_MAX_RESOLUTION != ADC_RESOLUTION_12 */
 248:Generated_Source\PSoC4/ADC.c **** 
 249:Generated_Source\PSoC4/ADC.c ****         #if(ADC_INJ_CHANNEL_ENABLED)
 250:Generated_Source\PSoC4/ADC.c ****         if(chNum < ADC_SEQUENCED_CHANNELS_NUM)
 129              		.loc 1 250 0
 130 007e 032A     		cmp	r2, #3
 131 0080 1CD8     		bhi	.L4
 251:Generated_Source\PSoC4/ADC.c ****         #endif /* ADC_INJ_CHANNEL_ENABLED */
 252:Generated_Source\PSoC4/ADC.c ****         {
 253:Generated_Source\PSoC4/ADC.c ****             CY_SET_REG32((reg32 *)(ADC_SAR_CHAN_CONFIG_IND + (uint32)(chNum << 2)), tmpRegVal);
 132              		.loc 1 253 0
 133 0082 9100     		lsls	r1, r2, #2
 134 0084 434C     		ldr	r4, .L14+84
 135 0086 A446     		mov	ip, r4
 136 0088 6144     		add	r1, r1, ip
 137 008a 0B60     		str	r3, [r1]
 254:Generated_Source\PSoC4/ADC.c **** 
 255:Generated_Source\PSoC4/ADC.c ****             if((ADC_channelsConfig[chNum] & ADC_IS_SATURATE_EN_MASK) != 0u)
 138              		.loc 1 255 0
 139 008c C307     		lsls	r3, r0, #31
 140 008e 07D5     		bpl	.L5
 141              	.LVL9:
 256:Generated_Source\PSoC4/ADC.c ****             {
ARM GAS  C:\Users\Larry\AppData\Local\Temp\ccD8ijU7.s 			page 8


 257:Generated_Source\PSoC4/ADC.c ****                 ADC_SAR_SATURATE_INTR_MASK_REG |= (uint16)((uint16)1 << chNum);
 142              		.loc 1 257 0
 143 0090 3A48     		ldr	r0, .L14+60
 144 0092 0168     		ldr	r1, [r0]
 145              	.LVL10:
 146 0094 0123     		movs	r3, #1
 147 0096 9340     		lsls	r3, r3, r2
 148 0098 1B04     		lsls	r3, r3, #16
 149 009a 1B0C     		lsrs	r3, r3, #16
 150 009c 0B43     		orrs	r3, r1
 151 009e 0360     		str	r3, [r0]
 152              	.LVL11:
 153              	.L5:
 258:Generated_Source\PSoC4/ADC.c ****             }
 259:Generated_Source\PSoC4/ADC.c **** 
 260:Generated_Source\PSoC4/ADC.c ****             if((ADC_channelsConfig[chNum] & ADC_IS_RANGE_CTRL_EN_MASK) != 0u)
 154              		.loc 1 260 0
 155 00a0 9300     		lsls	r3, r2, #2
 156 00a2 3B49     		ldr	r1, .L14+80
 157              	.LVL12:
 158 00a4 5B58     		ldr	r3, [r3, r1]
 159 00a6 9B07     		lsls	r3, r3, #30
 160 00a8 21D5     		bpl	.L6
 261:Generated_Source\PSoC4/ADC.c ****             {
 262:Generated_Source\PSoC4/ADC.c ****                 ADC_SAR_RANGE_INTR_MASK_REG |= (uint16)((uint16)1 << chNum);
 161              		.loc 1 262 0
 162 00aa 3548     		ldr	r0, .L14+64
 163 00ac 0168     		ldr	r1, [r0]
 164              	.LVL13:
 165 00ae 0123     		movs	r3, #1
 166 00b0 9340     		lsls	r3, r3, r2
 167 00b2 1B04     		lsls	r3, r3, #16
 168 00b4 1B0C     		lsrs	r3, r3, #16
 169 00b6 0B43     		orrs	r3, r1
 170 00b8 0360     		str	r3, [r0]
 171 00ba 18E0     		b	.L6
 172              	.LVL14:
 173              	.L4:
 263:Generated_Source\PSoC4/ADC.c ****             }
 264:Generated_Source\PSoC4/ADC.c ****         }
 265:Generated_Source\PSoC4/ADC.c ****         #if(ADC_INJ_CHANNEL_ENABLED)
 266:Generated_Source\PSoC4/ADC.c ****             else
 267:Generated_Source\PSoC4/ADC.c ****             {
 268:Generated_Source\PSoC4/ADC.c ****                 CY_SET_REG32(ADC_SAR_INJ_CHAN_CONFIG_PTR, tmpRegVal | ADC_INJ_TAILGATING);
 174              		.loc 1 268 0
 175 00bc 8021     		movs	r1, #128
 176 00be C905     		lsls	r1, r1, #23
 177 00c0 0B43     		orrs	r3, r1
 178              	.LVL15:
 179 00c2 3549     		ldr	r1, .L14+88
 180 00c4 0B60     		str	r3, [r1]
 269:Generated_Source\PSoC4/ADC.c **** 
 270:Generated_Source\PSoC4/ADC.c ****                 if((ADC_channelsConfig[chNum] & ADC_IS_SATURATE_EN_MASK) != 0u)
 181              		.loc 1 270 0
 182 00c6 9300     		lsls	r3, r2, #2
 183 00c8 3149     		ldr	r1, .L14+80
 184              	.LVL16:
ARM GAS  C:\Users\Larry\AppData\Local\Temp\ccD8ijU7.s 			page 9


 185 00ca 5B58     		ldr	r3, [r3, r1]
 186 00cc DB07     		lsls	r3, r3, #31
 187 00ce 04D5     		bpl	.L7
 271:Generated_Source\PSoC4/ADC.c ****                 {
 272:Generated_Source\PSoC4/ADC.c ****                     ADC_SAR_INTR_MASK_REG |= ADC_INJ_SATURATE_MASK;
 188              		.loc 1 272 0
 189 00d0 2C49     		ldr	r1, .L14+68
 190              	.LVL17:
 191 00d2 0868     		ldr	r0, [r1]
 192              	.LVL18:
 193 00d4 2023     		movs	r3, #32
 194 00d6 0343     		orrs	r3, r0
 195 00d8 0B60     		str	r3, [r1]
 196              	.L7:
 273:Generated_Source\PSoC4/ADC.c ****                 }
 274:Generated_Source\PSoC4/ADC.c **** 
 275:Generated_Source\PSoC4/ADC.c ****                 if((ADC_channelsConfig[chNum] & ADC_IS_RANGE_CTRL_EN_MASK) != 0u)
 197              		.loc 1 275 0
 198 00da 9300     		lsls	r3, r2, #2
 199 00dc 2C49     		ldr	r1, .L14+80
 200              	.LVL19:
 201 00de 5B58     		ldr	r3, [r3, r1]
 202 00e0 9B07     		lsls	r3, r3, #30
 203 00e2 04D5     		bpl	.L6
 276:Generated_Source\PSoC4/ADC.c ****                 {
 277:Generated_Source\PSoC4/ADC.c ****                     ADC_SAR_INTR_MASK_REG |= ADC_INJ_RANGE_MASK;
 204              		.loc 1 277 0
 205 00e4 2749     		ldr	r1, .L14+68
 206              	.LVL20:
 207 00e6 0868     		ldr	r0, [r1]
 208 00e8 4023     		movs	r3, #64
 209 00ea 0343     		orrs	r3, r0
 210 00ec 0B60     		str	r3, [r1]
 211              	.L6:
 278:Generated_Source\PSoC4/ADC.c ****                 }
 279:Generated_Source\PSoC4/ADC.c ****             }
 280:Generated_Source\PSoC4/ADC.c ****         #endif /* ADC_INJ_CHANNEL_ENABLED */
 281:Generated_Source\PSoC4/ADC.c **** 
 282:Generated_Source\PSoC4/ADC.c ****         if((ADC_channelsConfig[chNum] & ADC_ALT_RESOLUTION_ON) != 0u)
 212              		.loc 1 282 0
 213 00ee 9300     		lsls	r3, r2, #2
 214 00f0 2749     		ldr	r1, .L14+80
 215              	.LVL21:
 216 00f2 5958     		ldr	r1, [r3, r1]
 217              	.LVL22:
 218 00f4 8B05     		lsls	r3, r1, #22
 219 00f6 02D5     		bpl	.L13
 283:Generated_Source\PSoC4/ADC.c ****         {
 284:Generated_Source\PSoC4/ADC.c ****                counts = (int32)ADC_DEFAULT_MAX_WRK_ALT;
 220              		.loc 1 284 0
 221 00f8 8020     		movs	r0, #128
 222 00fa 4000     		lsls	r0, r0, #1
 223 00fc 01E0     		b	.L8
 224              	.L13:
 285:Generated_Source\PSoC4/ADC.c ****         }
 286:Generated_Source\PSoC4/ADC.c ****         else
 287:Generated_Source\PSoC4/ADC.c ****         {
ARM GAS  C:\Users\Larry\AppData\Local\Temp\ccD8ijU7.s 			page 10


 288:Generated_Source\PSoC4/ADC.c ****                counts = (int32)ADC_SAR_WRK_MAX_12BIT;
 225              		.loc 1 288 0
 226 00fe 8020     		movs	r0, #128
 227 0100 4001     		lsls	r0, r0, #5
 228              	.L8:
 229              	.LVL23:
 289:Generated_Source\PSoC4/ADC.c ****         }
 290:Generated_Source\PSoC4/ADC.c **** 
 291:Generated_Source\PSoC4/ADC.c ****         if((ADC_channelsConfig[chNum] & ADC_DIFFERENTIAL_EN) == 0u)
 230              		.loc 1 291 0
 231 0102 CB05     		lsls	r3, r1, #23
 232 0104 04D4     		bmi	.L9
 292:Generated_Source\PSoC4/ADC.c ****         {
 293:Generated_Source\PSoC4/ADC.c ****             #if((ADC_DEFAULT_SE_RESULT_FORMAT_SEL == ADC__FSIGNED) && \
 294:Generated_Source\PSoC4/ADC.c ****                 (ADC_DEFAULT_NEG_INPUT_SEL == ADC__VREF))
 295:Generated_Source\PSoC4/ADC.c ****                 /* Set offset to the minus half scale to convert results to unsigned format */
 296:Generated_Source\PSoC4/ADC.c ****                 ADC_offset[chNum] = (int16)(counts / -2);
 297:Generated_Source\PSoC4/ADC.c ****             #else
 298:Generated_Source\PSoC4/ADC.c ****                 ADC_offset[chNum] = 0;
 233              		.loc 1 298 0
 234 0106 5300     		lsls	r3, r2, #1
 235 0108 0024     		movs	r4, #0
 236 010a 2449     		ldr	r1, .L14+92
 237 010c 5C52     		strh	r4, [r3, r1]
 238 010e 03E0     		b	.L10
 239              	.L9:
 299:Generated_Source\PSoC4/ADC.c ****             #endif /* end DEFAULT_SE_RESULT_FORMAT_SEL == ADC__FSIGNED */
 300:Generated_Source\PSoC4/ADC.c ****         }
 301:Generated_Source\PSoC4/ADC.c ****         else    /* Differential channel */
 302:Generated_Source\PSoC4/ADC.c ****         {
 303:Generated_Source\PSoC4/ADC.c ****             #if(ADC_DEFAULT_DIFF_RESULT_FORMAT_SEL == ADC__FUNSIGNED)
 304:Generated_Source\PSoC4/ADC.c ****                 /* Set offset to the half scale to convert results to signed format */
 305:Generated_Source\PSoC4/ADC.c ****                 ADC_offset[chNum] = (int16)(counts / 2);
 306:Generated_Source\PSoC4/ADC.c ****             #else
 307:Generated_Source\PSoC4/ADC.c ****                 ADC_offset[chNum] = 0;
 240              		.loc 1 307 0
 241 0110 5300     		lsls	r3, r2, #1
 242 0112 0024     		movs	r4, #0
 243 0114 2149     		ldr	r1, .L14+92
 244 0116 5C52     		strh	r4, [r3, r1]
 245              	.L10:
 308:Generated_Source\PSoC4/ADC.c ****             #endif /* end ADC_DEFAULT_DIFF_RESULT_FORMAT_SEL == ADC__FUNSIGNED */
 309:Generated_Source\PSoC4/ADC.c ****         }
 310:Generated_Source\PSoC4/ADC.c ****         /* Calculate gain in counts per 10 volts with rounding */
 311:Generated_Source\PSoC4/ADC.c ****         ADC_countsPer10Volt[chNum] = (int16)(((counts * ADC_10MV_COUNTS) +
 246              		.loc 1 311 0 discriminator 2
 247 0118 214B     		ldr	r3, .L14+96
 248 011a 4343     		muls	r3, r0
 249 011c 8021     		movs	r1, #128
 250 011e C900     		lsls	r1, r1, #3
 251 0120 8C46     		mov	ip, r1
 252 0122 6344     		add	r3, r3, ip
 312:Generated_Source\PSoC4/ADC.c ****                             ADC_DEFAULT_VREF_MV_VALUE) / (ADC_DEFAULT_VREF_MV_VALUE * 2));
 253              		.loc 1 312 0 discriminator 2
 254 0124 D917     		asrs	r1, r3, #31
 255 0126 4905     		lsls	r1, r1, #21
 256 0128 490D     		lsrs	r1, r1, #21
ARM GAS  C:\Users\Larry\AppData\Local\Temp\ccD8ijU7.s 			page 11


 257 012a CB18     		adds	r3, r1, r3
 258 012c DB12     		asrs	r3, r3, #11
 311:Generated_Source\PSoC4/ADC.c ****                             ADC_DEFAULT_VREF_MV_VALUE) / (ADC_DEFAULT_VREF_MV_VALUE * 2));
 259              		.loc 1 311 0 discriminator 2
 260 012e 1BB2     		sxth	r3, r3
 261 0130 9000     		lsls	r0, r2, #2
 262              	.LVL24:
 263 0132 1C49     		ldr	r1, .L14+100
 264 0134 4350     		str	r3, [r0, r1]
 232:Generated_Source\PSoC4/ADC.c ****     {
 265              		.loc 1 232 0 discriminator 2
 266 0136 0132     		adds	r2, r2, #1
 267              	.LVL25:
 268              	.L3:
 232:Generated_Source\PSoC4/ADC.c ****     {
 269              		.loc 1 232 0 is_stmt 0 discriminator 1
 270 0138 042A     		cmp	r2, #4
 271 013a 97D9     		bls	.L11
 313:Generated_Source\PSoC4/ADC.c ****     }
 314:Generated_Source\PSoC4/ADC.c **** }
 272              		.loc 1 314 0 is_stmt 1
 273              		@ sp needed
 274 013c 10BD     		pop	{r4, pc}
 275              	.L15:
 276 013e C046     		.align	2
 277              	.L14:
 278 0140 00000000 		.word	ADC_ISR
 279 0144 20003A40 		.word	1077542944
 280 0148 80033A40 		.word	1077543808
 281 014c 402E1013 		.word	319827520
 282 0150 402E0013 		.word	318778944
 283 0154 00003A40 		.word	1077542912
 284 0158 A8000080 		.word	-2147483480
 285 015c 04003A40 		.word	1077542916
 286 0160 0000FF07 		.word	134152192
 287 0164 18003A40 		.word	1077542936
 288 0168 1C003A40 		.word	1077542940
 289 016c E9030400 		.word	263145
 290 0170 10003A40 		.word	1077542928
 291 0174 04000400 		.word	262148
 292 0178 14003A40 		.word	1077542932
 293 017c 28023A40 		.word	1077543464
 294 0180 38023A40 		.word	1077543480
 295 0184 18023A40 		.word	1077543448
 296 0188 30003A40 		.word	1077542960
 297 018c FFFFFFDF 		.word	-536870913
 298 0190 00000000 		.word	.LANCHOR0
 299 0194 80003A40 		.word	1077543040
 300 0198 80023A40 		.word	1077543552
 301 019c 00000000 		.word	ADC_offset
 302 01a0 10270000 		.word	10000
 303 01a4 00000000 		.word	ADC_countsPer10Volt
 304              		.cfi_endproc
 305              	.LFE2:
 306              		.size	ADC_Init, .-ADC_Init
 307              		.section	.text.ADC_Enable,"ax",%progbits
 308              		.align	2
ARM GAS  C:\Users\Larry\AppData\Local\Temp\ccD8ijU7.s 			page 12


 309              		.global	ADC_Enable
 310              		.code	16
 311              		.thumb_func
 312              		.type	ADC_Enable, %function
 313              	ADC_Enable:
 314              	.LFB3:
 315:Generated_Source\PSoC4/ADC.c **** 
 316:Generated_Source\PSoC4/ADC.c **** /*******************************************************************************
 317:Generated_Source\PSoC4/ADC.c **** * Function Name: ADC_SAR_1_Enable
 318:Generated_Source\PSoC4/ADC.c **** ********************************************************************************
 319:Generated_Source\PSoC4/ADC.c **** *
 320:Generated_Source\PSoC4/ADC.c **** * Summary:
 321:Generated_Source\PSoC4/ADC.c **** *  Enables the clock and analog power for SAR ADC.
 322:Generated_Source\PSoC4/ADC.c **** *
 323:Generated_Source\PSoC4/ADC.c **** * Parameters:
 324:Generated_Source\PSoC4/ADC.c **** *  None.
 325:Generated_Source\PSoC4/ADC.c **** *
 326:Generated_Source\PSoC4/ADC.c **** * Return:
 327:Generated_Source\PSoC4/ADC.c **** *  None.
 328:Generated_Source\PSoC4/ADC.c **** *
 329:Generated_Source\PSoC4/ADC.c **** *******************************************************************************/
 330:Generated_Source\PSoC4/ADC.c **** void ADC_Enable(void)
 331:Generated_Source\PSoC4/ADC.c **** {
 315              		.loc 1 331 0
 316              		.cfi_startproc
 317              		@ args = 0, pretend = 0, frame = 0
 318              		@ frame_needed = 0, uses_anonymous_args = 0
 319 0000 10B5     		push	{r4, lr}
 320              		.cfi_def_cfa_offset 8
 321              		.cfi_offset 4, -8
 322              		.cfi_offset 14, -4
 332:Generated_Source\PSoC4/ADC.c ****     if (0u == (ADC_SAR_CTRL_REG & ADC_ENABLE))
 323              		.loc 1 332 0
 324 0002 094B     		ldr	r3, .L19
 325 0004 1B68     		ldr	r3, [r3]
 326 0006 002B     		cmp	r3, #0
 327 0008 0CDB     		blt	.L16
 328              	.L18:
 333:Generated_Source\PSoC4/ADC.c ****     {
 334:Generated_Source\PSoC4/ADC.c ****         #if(ADC_CY_SAR_IP_VER != ADC_CY_SAR_IP_VER0)
 335:Generated_Source\PSoC4/ADC.c **** 
 336:Generated_Source\PSoC4/ADC.c ****             while (0u != (ADC_SAR_STATUS_REG & ADC_STATUS_BUSY))
 329              		.loc 1 336 0 discriminator 1
 330 000a 084B     		ldr	r3, .L19+4
 331 000c 1B68     		ldr	r3, [r3]
 332 000e 002B     		cmp	r3, #0
 333 0010 FBDB     		blt	.L18
 337:Generated_Source\PSoC4/ADC.c ****             {
 338:Generated_Source\PSoC4/ADC.c ****                 /* wait for SAR to go idle to avoid deadlock */
 339:Generated_Source\PSoC4/ADC.c ****             }
 340:Generated_Source\PSoC4/ADC.c ****         #endif /* (ADC_CY_SAR_IP_VER != ADC_CY_SAR_IP_VER0) */
 341:Generated_Source\PSoC4/ADC.c ****         
 342:Generated_Source\PSoC4/ADC.c ****         ADC_SAR_CTRL_REG |= ADC_ENABLE;
 334              		.loc 1 342 0
 335 0012 054A     		ldr	r2, .L19
 336 0014 1368     		ldr	r3, [r2]
 337 0016 8021     		movs	r1, #128
ARM GAS  C:\Users\Larry\AppData\Local\Temp\ccD8ijU7.s 			page 13


 338 0018 0906     		lsls	r1, r1, #24
 339 001a 0B43     		orrs	r3, r1
 340 001c 1360     		str	r3, [r2]
 343:Generated_Source\PSoC4/ADC.c ****         
 344:Generated_Source\PSoC4/ADC.c ****         /* The block is ready to use 10 us after the enable signal is set high. */
 345:Generated_Source\PSoC4/ADC.c ****         CyDelayUs(ADC_10US_DELAY);         
 341              		.loc 1 345 0
 342 001e 0A20     		movs	r0, #10
 343 0020 FFF7FEFF 		bl	CyDelayUs
 344              	.LVL26:
 345              	.L16:
 346:Generated_Source\PSoC4/ADC.c ****     }
 347:Generated_Source\PSoC4/ADC.c **** }
 346              		.loc 1 347 0
 347              		@ sp needed
 348 0024 10BD     		pop	{r4, pc}
 349              	.L20:
 350 0026 C046     		.align	2
 351              	.L19:
 352 0028 00003A40 		.word	1077542912
 353 002c 08023A40 		.word	1077543432
 354              		.cfi_endproc
 355              	.LFE3:
 356              		.size	ADC_Enable, .-ADC_Enable
 357              		.section	.text.ADC_Start,"ax",%progbits
 358              		.align	2
 359              		.global	ADC_Start
 360              		.code	16
 361              		.thumb_func
 362              		.type	ADC_Start, %function
 363              	ADC_Start:
 364              	.LFB1:
  64:Generated_Source\PSoC4/ADC.c ****     /* If not Initialized then initialize all required hardware and software */
 365              		.loc 1 64 0
 366              		.cfi_startproc
 367              		@ args = 0, pretend = 0, frame = 0
 368              		@ frame_needed = 0, uses_anonymous_args = 0
 369 0000 10B5     		push	{r4, lr}
 370              		.cfi_def_cfa_offset 8
 371              		.cfi_offset 4, -8
 372              		.cfi_offset 14, -4
  66:Generated_Source\PSoC4/ADC.c ****     {
 373              		.loc 1 66 0
 374 0002 064B     		ldr	r3, .L23
 375 0004 1B78     		ldrb	r3, [r3]
 376 0006 002B     		cmp	r3, #0
 377 0008 04D1     		bne	.L22
  68:Generated_Source\PSoC4/ADC.c ****         ADC_initVar = 1u;
 378              		.loc 1 68 0
 379 000a FFF7FEFF 		bl	ADC_Init
 380              	.LVL27:
  69:Generated_Source\PSoC4/ADC.c ****     }
 381              		.loc 1 69 0
 382 000e 0122     		movs	r2, #1
 383 0010 024B     		ldr	r3, .L23
 384 0012 1A70     		strb	r2, [r3]
 385              	.L22:
ARM GAS  C:\Users\Larry\AppData\Local\Temp\ccD8ijU7.s 			page 14


  71:Generated_Source\PSoC4/ADC.c **** }
 386              		.loc 1 71 0
 387 0014 FFF7FEFF 		bl	ADC_Enable
 388              	.LVL28:
  72:Generated_Source\PSoC4/ADC.c **** 
 389              		.loc 1 72 0
 390              		@ sp needed
 391 0018 10BD     		pop	{r4, pc}
 392              	.L24:
 393 001a C046     		.align	2
 394              	.L23:
 395 001c 00000000 		.word	.LANCHOR1
 396              		.cfi_endproc
 397              	.LFE1:
 398              		.size	ADC_Start, .-ADC_Start
 399              		.section	.text.ADC_Stop,"ax",%progbits
 400              		.align	2
 401              		.global	ADC_Stop
 402              		.code	16
 403              		.thumb_func
 404              		.type	ADC_Stop, %function
 405              	ADC_Stop:
 406              	.LFB4:
 348:Generated_Source\PSoC4/ADC.c **** 
 349:Generated_Source\PSoC4/ADC.c **** 
 350:Generated_Source\PSoC4/ADC.c **** /*******************************************************************************
 351:Generated_Source\PSoC4/ADC.c **** * Function Name: ADC_Stop
 352:Generated_Source\PSoC4/ADC.c **** ********************************************************************************
 353:Generated_Source\PSoC4/ADC.c **** *
 354:Generated_Source\PSoC4/ADC.c **** * Summary:
 355:Generated_Source\PSoC4/ADC.c **** *  This function stops ADC conversions and puts the ADC into its lowest power
 356:Generated_Source\PSoC4/ADC.c **** *  mode.
 357:Generated_Source\PSoC4/ADC.c **** *
 358:Generated_Source\PSoC4/ADC.c **** * Parameters:
 359:Generated_Source\PSoC4/ADC.c **** *  None.
 360:Generated_Source\PSoC4/ADC.c **** *
 361:Generated_Source\PSoC4/ADC.c **** * Return:
 362:Generated_Source\PSoC4/ADC.c **** *  None.
 363:Generated_Source\PSoC4/ADC.c **** *
 364:Generated_Source\PSoC4/ADC.c **** *******************************************************************************/
 365:Generated_Source\PSoC4/ADC.c **** void ADC_Stop(void)
 366:Generated_Source\PSoC4/ADC.c **** {
 407              		.loc 1 366 0
 408              		.cfi_startproc
 409              		@ args = 0, pretend = 0, frame = 0
 410              		@ frame_needed = 0, uses_anonymous_args = 0
 411              		@ link register save eliminated.
 367:Generated_Source\PSoC4/ADC.c ****     ADC_SAR_CTRL_REG &= (uint32)~ADC_ENABLE;
 412              		.loc 1 367 0
 413 0000 024A     		ldr	r2, .L26
 414 0002 1368     		ldr	r3, [r2]
 415 0004 5B00     		lsls	r3, r3, #1
 416 0006 5B08     		lsrs	r3, r3, #1
 417 0008 1360     		str	r3, [r2]
 368:Generated_Source\PSoC4/ADC.c **** }
 418              		.loc 1 368 0
 419              		@ sp needed
ARM GAS  C:\Users\Larry\AppData\Local\Temp\ccD8ijU7.s 			page 15


 420 000a 7047     		bx	lr
 421              	.L27:
 422              		.align	2
 423              	.L26:
 424 000c 00003A40 		.word	1077542912
 425              		.cfi_endproc
 426              	.LFE4:
 427              		.size	ADC_Stop, .-ADC_Stop
 428              		.section	.text.ADC_StartConvert,"ax",%progbits
 429              		.align	2
 430              		.global	ADC_StartConvert
 431              		.code	16
 432              		.thumb_func
 433              		.type	ADC_StartConvert, %function
 434              	ADC_StartConvert:
 435              	.LFB5:
 369:Generated_Source\PSoC4/ADC.c **** 
 370:Generated_Source\PSoC4/ADC.c **** 
 371:Generated_Source\PSoC4/ADC.c **** /*******************************************************************************
 372:Generated_Source\PSoC4/ADC.c **** * Function Name: ADC_StartConvert
 373:Generated_Source\PSoC4/ADC.c **** ********************************************************************************
 374:Generated_Source\PSoC4/ADC.c **** *
 375:Generated_Source\PSoC4/ADC.c **** * Summary:
 376:Generated_Source\PSoC4/ADC.c **** *  Description:
 377:Generated_Source\PSoC4/ADC.c **** *  For free running mode, this API starts the conversion process and it
 378:Generated_Source\PSoC4/ADC.c **** *  runs continuously.
 379:Generated_Source\PSoC4/ADC.c **** *
 380:Generated_Source\PSoC4/ADC.c **** *  In a triggered mode, this routine triggers every conversion by
 381:Generated_Source\PSoC4/ADC.c **** *  writing into the FW_TRIGGER bit in SAR_START_CTRL reg. In triggered mode,
 382:Generated_Source\PSoC4/ADC.c **** *  every conversion has to start by this API.
 383:Generated_Source\PSoC4/ADC.c **** *
 384:Generated_Source\PSoC4/ADC.c **** * Parameters:
 385:Generated_Source\PSoC4/ADC.c **** *  None.
 386:Generated_Source\PSoC4/ADC.c **** *
 387:Generated_Source\PSoC4/ADC.c **** * Return:
 388:Generated_Source\PSoC4/ADC.c **** *  None.
 389:Generated_Source\PSoC4/ADC.c **** *
 390:Generated_Source\PSoC4/ADC.c **** *******************************************************************************/
 391:Generated_Source\PSoC4/ADC.c **** void ADC_StartConvert(void)
 392:Generated_Source\PSoC4/ADC.c **** {
 436              		.loc 1 392 0
 437              		.cfi_startproc
 438              		@ args = 0, pretend = 0, frame = 0
 439              		@ frame_needed = 0, uses_anonymous_args = 0
 440              		@ link register save eliminated.
 393:Generated_Source\PSoC4/ADC.c ****     #if(ADC_DEFAULT_SAMPLE_MODE_SEL == ADC__FREERUNNING)
 394:Generated_Source\PSoC4/ADC.c ****         ADC_SAR_SAMPLE_CTRL_REG |= ADC_CONTINUOUS_EN;
 441              		.loc 1 394 0
 442 0000 034A     		ldr	r2, .L29
 443 0002 1368     		ldr	r3, [r2]
 444 0004 8021     		movs	r1, #128
 445 0006 4902     		lsls	r1, r1, #9
 446 0008 0B43     		orrs	r3, r1
 447 000a 1360     		str	r3, [r2]
 395:Generated_Source\PSoC4/ADC.c ****     #else /* Firmware trigger */
 396:Generated_Source\PSoC4/ADC.c ****         ADC_SAR_START_CTRL_REG = ADC_FW_TRIGGER;
 397:Generated_Source\PSoC4/ADC.c ****     #endif /* End ADC_DEFAULT_SAMPLE_MODE == ADC__FREERUNNING */
ARM GAS  C:\Users\Larry\AppData\Local\Temp\ccD8ijU7.s 			page 16


 398:Generated_Source\PSoC4/ADC.c **** 
 399:Generated_Source\PSoC4/ADC.c **** }
 448              		.loc 1 399 0
 449              		@ sp needed
 450 000c 7047     		bx	lr
 451              	.L30:
 452 000e C046     		.align	2
 453              	.L29:
 454 0010 04003A40 		.word	1077542916
 455              		.cfi_endproc
 456              	.LFE5:
 457              		.size	ADC_StartConvert, .-ADC_StartConvert
 458              		.section	.text.ADC_StopConvert,"ax",%progbits
 459              		.align	2
 460              		.global	ADC_StopConvert
 461              		.code	16
 462              		.thumb_func
 463              		.type	ADC_StopConvert, %function
 464              	ADC_StopConvert:
 465              	.LFB6:
 400:Generated_Source\PSoC4/ADC.c **** 
 401:Generated_Source\PSoC4/ADC.c **** 
 402:Generated_Source\PSoC4/ADC.c **** /*******************************************************************************
 403:Generated_Source\PSoC4/ADC.c **** * Function Name: ADC_StopConvert
 404:Generated_Source\PSoC4/ADC.c **** ********************************************************************************
 405:Generated_Source\PSoC4/ADC.c **** *
 406:Generated_Source\PSoC4/ADC.c **** * Summary:
 407:Generated_Source\PSoC4/ADC.c **** *  Forces the ADC to stop all conversions.
 408:Generated_Source\PSoC4/ADC.c **** *
 409:Generated_Source\PSoC4/ADC.c **** * Parameters:
 410:Generated_Source\PSoC4/ADC.c **** *  None.
 411:Generated_Source\PSoC4/ADC.c **** *
 412:Generated_Source\PSoC4/ADC.c **** * Return:
 413:Generated_Source\PSoC4/ADC.c **** *  None.
 414:Generated_Source\PSoC4/ADC.c **** *
 415:Generated_Source\PSoC4/ADC.c **** *******************************************************************************/
 416:Generated_Source\PSoC4/ADC.c **** void ADC_StopConvert(void)
 417:Generated_Source\PSoC4/ADC.c **** {
 466              		.loc 1 417 0
 467              		.cfi_startproc
 468              		@ args = 0, pretend = 0, frame = 0
 469              		@ frame_needed = 0, uses_anonymous_args = 0
 470              		@ link register save eliminated.
 418:Generated_Source\PSoC4/ADC.c ****     #if(ADC_DEFAULT_SAMPLE_MODE_SEL == ADC__FREERUNNING)
 419:Generated_Source\PSoC4/ADC.c ****         ADC_SAR_SAMPLE_CTRL_REG &= (uint32)(~ADC_CONTINUOUS_EN);
 471              		.loc 1 419 0
 472 0000 024A     		ldr	r2, .L32
 473 0002 1168     		ldr	r1, [r2]
 474 0004 024B     		ldr	r3, .L32+4
 475 0006 0B40     		ands	r3, r1
 476 0008 1360     		str	r3, [r2]
 420:Generated_Source\PSoC4/ADC.c ****     #endif /* ADC_DEFAULT_SAMPLE_MODE == ADC__FREERUNNING */
 421:Generated_Source\PSoC4/ADC.c **** }
 477              		.loc 1 421 0
 478              		@ sp needed
 479 000a 7047     		bx	lr
 480              	.L33:
ARM GAS  C:\Users\Larry\AppData\Local\Temp\ccD8ijU7.s 			page 17


 481              		.align	2
 482              	.L32:
 483 000c 04003A40 		.word	1077542916
 484 0010 FFFFFEFF 		.word	-65537
 485              		.cfi_endproc
 486              	.LFE6:
 487              		.size	ADC_StopConvert, .-ADC_StopConvert
 488              		.section	.text.ADC_IsEndConversion,"ax",%progbits
 489              		.align	2
 490              		.global	ADC_IsEndConversion
 491              		.code	16
 492              		.thumb_func
 493              		.type	ADC_IsEndConversion, %function
 494              	ADC_IsEndConversion:
 495              	.LFB7:
 422:Generated_Source\PSoC4/ADC.c **** 
 423:Generated_Source\PSoC4/ADC.c **** 
 424:Generated_Source\PSoC4/ADC.c **** /*******************************************************************************
 425:Generated_Source\PSoC4/ADC.c **** * Function Name: ADC_IsEndConversion
 426:Generated_Source\PSoC4/ADC.c **** ********************************************************************************
 427:Generated_Source\PSoC4/ADC.c **** *
 428:Generated_Source\PSoC4/ADC.c **** * Summary:
 429:Generated_Source\PSoC4/ADC.c **** *  Description: Checks for ADC end of conversion for the case one
 430:Generated_Source\PSoC4/ADC.c **** *  channel and end of scan for the case of multiple channels. It acts
 431:Generated_Source\PSoC4/ADC.c **** *  as a software version of the EOC. This function provides the
 432:Generated_Source\PSoC4/ADC.c **** *  programmer with two options. In one mode this function
 433:Generated_Source\PSoC4/ADC.c **** *  immediately returns with the conversion status. In the other mode,
 434:Generated_Source\PSoC4/ADC.c **** *  the function does not return (blocking) until the conversion has
 435:Generated_Source\PSoC4/ADC.c **** *  completed.
 436:Generated_Source\PSoC4/ADC.c **** *
 437:Generated_Source\PSoC4/ADC.c **** * Parameters:
 438:Generated_Source\PSoC4/ADC.c **** *  ADC_RETURN_STATUS        -> Immediately returns conversion result status
 439:Generated_Source\PSoC4/ADC.c **** *  ADC_WAIT_FOR_RESULT      -> Does not return until ADC complete
 440:Generated_Source\PSoC4/ADC.c **** *  ADC_RETURN_STATUS_INJ    -> Immediately returns conversion result status
 441:Generated_Source\PSoC4/ADC.c **** *                              for injection channel
 442:Generated_Source\PSoC4/ADC.c **** *  ADC_WAIT_FOR_RESULT_INJ  -> Does not return until ADC completes injection
 443:Generated_Source\PSoC4/ADC.c **** *                              channel conversion
 444:Generated_Source\PSoC4/ADC.c **** *
 445:Generated_Source\PSoC4/ADC.c **** * Return:
 446:Generated_Source\PSoC4/ADC.c **** *  If a non-zero value is returned, the last conversion or scan has completed.
 447:Generated_Source\PSoC4/ADC.c **** *  If the returned value is zero, the ADC is still in the process of a scan.
 448:Generated_Source\PSoC4/ADC.c **** *
 449:Generated_Source\PSoC4/ADC.c **** *******************************************************************************/
 450:Generated_Source\PSoC4/ADC.c **** uint32 ADC_IsEndConversion(uint32 retMode)
 451:Generated_Source\PSoC4/ADC.c **** {
 496              		.loc 1 451 0
 497              		.cfi_startproc
 498              		@ args = 0, pretend = 0, frame = 0
 499              		@ frame_needed = 0, uses_anonymous_args = 0
 500              		@ link register save eliminated.
 501              	.LVL29:
 502 0000 0100     		movs	r1, r0
 503              	.LVL30:
 452:Generated_Source\PSoC4/ADC.c ****     uint32 status = 0u;
 453:Generated_Source\PSoC4/ADC.c **** 
 454:Generated_Source\PSoC4/ADC.c ****     if((retMode & (ADC_RETURN_STATUS | ADC_WAIT_FOR_RESULT)) != 0u)
 504              		.loc 1 454 0
ARM GAS  C:\Users\Larry\AppData\Local\Temp\ccD8ijU7.s 			page 18


 505 0002 8307     		lsls	r3, r0, #30
 506 0004 0CD0     		beq	.L41
 507              	.LVL31:
 508              	.L37:
 455:Generated_Source\PSoC4/ADC.c ****     {
 456:Generated_Source\PSoC4/ADC.c ****         do
 457:Generated_Source\PSoC4/ADC.c ****         {
 458:Generated_Source\PSoC4/ADC.c ****             status = ADC_SAR_INTR_REG & ADC_EOS_MASK;
 509              		.loc 1 458 0 discriminator 2
 510 0006 104B     		ldr	r3, .L42
 511 0008 1B68     		ldr	r3, [r3]
 512 000a 0120     		movs	r0, #1
 513 000c 1840     		ands	r0, r3
 514              	.LVL32:
 459:Generated_Source\PSoC4/ADC.c ****         }while((status == 0u) && ((retMode & ADC_WAIT_FOR_RESULT) != 0u));
 515              		.loc 1 459 0 discriminator 2
 516 000e 01D1     		bne	.L36
 517              		.loc 1 459 0 is_stmt 0 discriminator 1
 518 0010 8B07     		lsls	r3, r1, #30
 519 0012 F8D4     		bmi	.L37
 520              	.L36:
 460:Generated_Source\PSoC4/ADC.c **** 
 461:Generated_Source\PSoC4/ADC.c ****         if(status != 0u)
 521              		.loc 1 461 0 is_stmt 1
 522 0014 0028     		cmp	r0, #0
 523 0016 04D0     		beq	.L35
 462:Generated_Source\PSoC4/ADC.c ****         {
 463:Generated_Source\PSoC4/ADC.c ****             /* Clear EOS bit */
 464:Generated_Source\PSoC4/ADC.c ****             ADC_SAR_INTR_REG = ADC_EOS_MASK;
 524              		.loc 1 464 0
 525 0018 0122     		movs	r2, #1
 526 001a 0B4B     		ldr	r3, .L42
 527 001c 1A60     		str	r2, [r3]
 528 001e 00E0     		b	.L35
 529              	.LVL33:
 530              	.L41:
 452:Generated_Source\PSoC4/ADC.c **** 
 531              		.loc 1 452 0
 532 0020 0020     		movs	r0, #0
 533              	.LVL34:
 534              	.L35:
 465:Generated_Source\PSoC4/ADC.c ****         }
 466:Generated_Source\PSoC4/ADC.c ****     }
 467:Generated_Source\PSoC4/ADC.c **** 
 468:Generated_Source\PSoC4/ADC.c ****     #if(ADC_INJ_CHANNEL_ENABLED)
 469:Generated_Source\PSoC4/ADC.c ****         if((retMode & (ADC_RETURN_STATUS_INJ | ADC_WAIT_FOR_RESULT_INJ)) != 0u)
 535              		.loc 1 469 0
 536 0022 0C23     		movs	r3, #12
 537 0024 0B42     		tst	r3, r1
 538 0026 0DD0     		beq	.L38
 539              	.L40:
 470:Generated_Source\PSoC4/ADC.c ****         {
 471:Generated_Source\PSoC4/ADC.c ****             do
 472:Generated_Source\PSoC4/ADC.c ****             {
 473:Generated_Source\PSoC4/ADC.c ****                 status |= ADC_SAR_INTR_REG & ADC_INJ_EOC_MASK;
 540              		.loc 1 473 0
 541 0028 074B     		ldr	r3, .L42
ARM GAS  C:\Users\Larry\AppData\Local\Temp\ccD8ijU7.s 			page 19


 542 002a 1A68     		ldr	r2, [r3]
 543 002c 1023     		movs	r3, #16
 544 002e 1A40     		ands	r2, r3
 545 0030 1043     		orrs	r0, r2
 546              	.LVL35:
 474:Generated_Source\PSoC4/ADC.c ****             }while(((status & ADC_INJ_EOC_MASK) == 0u) &&
 547              		.loc 1 474 0
 548 0032 0340     		ands	r3, r0
 475:Generated_Source\PSoC4/ADC.c ****                    ((retMode & ADC_WAIT_FOR_RESULT_INJ) != 0u));
 549              		.loc 1 475 0
 550 0034 01D1     		bne	.L39
 474:Generated_Source\PSoC4/ADC.c ****             }while(((status & ADC_INJ_EOC_MASK) == 0u) &&
 551              		.loc 1 474 0 discriminator 1
 552 0036 0A07     		lsls	r2, r1, #28
 553 0038 F6D4     		bmi	.L40
 554              	.L39:
 476:Generated_Source\PSoC4/ADC.c **** 
 477:Generated_Source\PSoC4/ADC.c ****             if((status & ADC_INJ_EOC_MASK) != 0u)
 555              		.loc 1 477 0
 556 003a 002B     		cmp	r3, #0
 557 003c 02D0     		beq	.L38
 478:Generated_Source\PSoC4/ADC.c ****             {
 479:Generated_Source\PSoC4/ADC.c ****                 /* Clear Injection EOS bit */
 480:Generated_Source\PSoC4/ADC.c ****                 ADC_SAR_INTR_REG = ADC_INJ_EOC_MASK;
 558              		.loc 1 480 0
 559 003e 1022     		movs	r2, #16
 560 0040 014B     		ldr	r3, .L42
 561 0042 1A60     		str	r2, [r3]
 562              	.L38:
 481:Generated_Source\PSoC4/ADC.c ****             }
 482:Generated_Source\PSoC4/ADC.c ****         }
 483:Generated_Source\PSoC4/ADC.c ****     #endif /* ADC_INJ_CHANNEL_ENABLED */
 484:Generated_Source\PSoC4/ADC.c **** 
 485:Generated_Source\PSoC4/ADC.c ****     return (status);
 486:Generated_Source\PSoC4/ADC.c **** }
 563              		.loc 1 486 0
 564              		@ sp needed
 565 0044 7047     		bx	lr
 566              	.L43:
 567 0046 C046     		.align	2
 568              	.L42:
 569 0048 10023A40 		.word	1077543440
 570              		.cfi_endproc
 571              	.LFE7:
 572              		.size	ADC_IsEndConversion, .-ADC_IsEndConversion
 573              		.section	.text.ADC_GetResult16,"ax",%progbits
 574              		.align	2
 575              		.global	ADC_GetResult16
 576              		.code	16
 577              		.thumb_func
 578              		.type	ADC_GetResult16, %function
 579              	ADC_GetResult16:
 580              	.LFB8:
 487:Generated_Source\PSoC4/ADC.c **** 
 488:Generated_Source\PSoC4/ADC.c **** 
 489:Generated_Source\PSoC4/ADC.c **** /*******************************************************************************
 490:Generated_Source\PSoC4/ADC.c **** * Function Name: ADC_GetResult16
ARM GAS  C:\Users\Larry\AppData\Local\Temp\ccD8ijU7.s 			page 20


 491:Generated_Source\PSoC4/ADC.c **** ********************************************************************************
 492:Generated_Source\PSoC4/ADC.c **** *
 493:Generated_Source\PSoC4/ADC.c **** * Summary:
 494:Generated_Source\PSoC4/ADC.c **** *  Gets the data available in the SAR DATA register.
 495:Generated_Source\PSoC4/ADC.c **** *
 496:Generated_Source\PSoC4/ADC.c **** * Parameters:
 497:Generated_Source\PSoC4/ADC.c **** *  chan: The ADC channel in which to return the result. The first channel
 498:Generated_Source\PSoC4/ADC.c **** *  is 0 and the injection channel if enabled is the number of valid channels.
 499:Generated_Source\PSoC4/ADC.c **** *
 500:Generated_Source\PSoC4/ADC.c **** * Return:
 501:Generated_Source\PSoC4/ADC.c **** *  Returns converted data as a signed 16-bit integer
 502:Generated_Source\PSoC4/ADC.c **** *
 503:Generated_Source\PSoC4/ADC.c **** *******************************************************************************/
 504:Generated_Source\PSoC4/ADC.c **** int16 ADC_GetResult16(uint32 chan)
 505:Generated_Source\PSoC4/ADC.c **** {
 581              		.loc 1 505 0
 582              		.cfi_startproc
 583              		@ args = 0, pretend = 0, frame = 0
 584              		@ frame_needed = 0, uses_anonymous_args = 0
 585              	.LVL36:
 586 0000 10B5     		push	{r4, lr}
 587              		.cfi_def_cfa_offset 8
 588              		.cfi_offset 4, -8
 589              		.cfi_offset 14, -4
 590 0002 0400     		movs	r4, r0
 506:Generated_Source\PSoC4/ADC.c ****     uint32 result;
 507:Generated_Source\PSoC4/ADC.c **** 
 508:Generated_Source\PSoC4/ADC.c ****     /* Halt CPU in debug mode if channel is out of valid range */
 509:Generated_Source\PSoC4/ADC.c ****     CYASSERT(chan < ADC_TOTAL_CHANNELS_NUM);
 591              		.loc 1 509 0
 592 0004 0428     		cmp	r0, #4
 593 0006 02D9     		bls	.L45
 594              		.loc 1 509 0 is_stmt 0 discriminator 1
 595 0008 0020     		movs	r0, #0
 596              	.LVL37:
 597 000a FFF7FEFF 		bl	CyHalt
 598              	.LVL38:
 599              	.L45:
 510:Generated_Source\PSoC4/ADC.c **** 
 511:Generated_Source\PSoC4/ADC.c ****     if(chan < ADC_SEQUENCED_CHANNELS_NUM)
 600              		.loc 1 511 0 is_stmt 1
 601 000e 032C     		cmp	r4, #3
 602 0010 07D8     		bhi	.L46
 512:Generated_Source\PSoC4/ADC.c ****     {
 513:Generated_Source\PSoC4/ADC.c ****         result = CY_GET_REG32((reg32 *)(ADC_SAR_CHAN_RESULT_IND + (uint32)(chan << 2u))) &
 603              		.loc 1 513 0
 604 0012 A400     		lsls	r4, r4, #2
 605              	.LVL39:
 606 0014 064B     		ldr	r3, .L48
 607 0016 9C46     		mov	ip, r3
 608 0018 6444     		add	r4, r4, ip
 609 001a 2068     		ldr	r0, [r4]
 610 001c 0004     		lsls	r0, r0, #16
 611 001e 000C     		lsrs	r0, r0, #16
 612              	.LVL40:
 613 0020 03E0     		b	.L47
 614              	.LVL41:
ARM GAS  C:\Users\Larry\AppData\Local\Temp\ccD8ijU7.s 			page 21


 615              	.L46:
 514:Generated_Source\PSoC4/ADC.c ****                 ADC_RESULT_MASK;
 515:Generated_Source\PSoC4/ADC.c ****     }
 516:Generated_Source\PSoC4/ADC.c ****     else
 517:Generated_Source\PSoC4/ADC.c ****     {
 518:Generated_Source\PSoC4/ADC.c ****         #if(ADC_INJ_CHANNEL_ENABLED)
 519:Generated_Source\PSoC4/ADC.c ****             result = ADC_SAR_INJ_RESULT_REG & ADC_RESULT_MASK;
 616              		.loc 1 519 0
 617 0022 044B     		ldr	r3, .L48+4
 618 0024 1868     		ldr	r0, [r3]
 619 0026 0004     		lsls	r0, r0, #16
 620 0028 000C     		lsrs	r0, r0, #16
 621              	.LVL42:
 622              	.L47:
 520:Generated_Source\PSoC4/ADC.c ****         #else
 521:Generated_Source\PSoC4/ADC.c ****             result = 0u;
 522:Generated_Source\PSoC4/ADC.c ****         #endif /* ADC_INJ_CHANNEL_ENABLED */
 523:Generated_Source\PSoC4/ADC.c ****     }
 524:Generated_Source\PSoC4/ADC.c **** 
 525:Generated_Source\PSoC4/ADC.c ****     return ( (int16)result );
 623              		.loc 1 525 0
 624 002a 00B2     		sxth	r0, r0
 625              	.LVL43:
 526:Generated_Source\PSoC4/ADC.c **** }
 626              		.loc 1 526 0
 627              		@ sp needed
 628 002c 10BD     		pop	{r4, pc}
 629              	.L49:
 630 002e C046     		.align	2
 631              	.L48:
 632 0030 80013A40 		.word	1077543296
 633 0034 90023A40 		.word	1077543568
 634              		.cfi_endproc
 635              	.LFE8:
 636              		.size	ADC_GetResult16, .-ADC_GetResult16
 637              		.section	.text.ADC_SetChanMask,"ax",%progbits
 638              		.align	2
 639              		.global	ADC_SetChanMask
 640              		.code	16
 641              		.thumb_func
 642              		.type	ADC_SetChanMask, %function
 643              	ADC_SetChanMask:
 644              	.LFB9:
 527:Generated_Source\PSoC4/ADC.c **** 
 528:Generated_Source\PSoC4/ADC.c **** 
 529:Generated_Source\PSoC4/ADC.c **** /*******************************************************************************
 530:Generated_Source\PSoC4/ADC.c **** * Function Name: ADC_SetChanMask
 531:Generated_Source\PSoC4/ADC.c **** ********************************************************************************
 532:Generated_Source\PSoC4/ADC.c **** *
 533:Generated_Source\PSoC4/ADC.c **** * Summary:
 534:Generated_Source\PSoC4/ADC.c **** *  Sets the channel enable mask.
 535:Generated_Source\PSoC4/ADC.c **** *
 536:Generated_Source\PSoC4/ADC.c **** * Parameters:
 537:Generated_Source\PSoC4/ADC.c **** *  mask: Sets which channels that will be
 538:Generated_Source\PSoC4/ADC.c **** *  scanned. Setting bits for channels that do not exist will have no
 539:Generated_Source\PSoC4/ADC.c **** *  effect. For example, if only 6 channels were enabled, setting a
 540:Generated_Source\PSoC4/ADC.c **** *  mask of 0x0103 would only enable the last two channels (0 and 1).
ARM GAS  C:\Users\Larry\AppData\Local\Temp\ccD8ijU7.s 			page 22


 541:Generated_Source\PSoC4/ADC.c **** *  This API will not enable the injection channel.
 542:Generated_Source\PSoC4/ADC.c **** *  Examples: If the component is setup to sequence through 8
 543:Generated_Source\PSoC4/ADC.c **** *  channels, a mask of 0x000F would enable channels 0, 1, 2, and 3.
 544:Generated_Source\PSoC4/ADC.c **** *
 545:Generated_Source\PSoC4/ADC.c **** * Return:
 546:Generated_Source\PSoC4/ADC.c **** *  None.
 547:Generated_Source\PSoC4/ADC.c **** *
 548:Generated_Source\PSoC4/ADC.c **** *******************************************************************************/
 549:Generated_Source\PSoC4/ADC.c **** void ADC_SetChanMask(uint32 mask)
 550:Generated_Source\PSoC4/ADC.c **** {
 645              		.loc 1 550 0
 646              		.cfi_startproc
 647              		@ args = 0, pretend = 0, frame = 0
 648              		@ frame_needed = 0, uses_anonymous_args = 0
 649              		@ link register save eliminated.
 650              	.LVL44:
 551:Generated_Source\PSoC4/ADC.c ****     ADC_SAR_CHAN_EN_REG = mask & ADC_MAX_CHANNELS_EN_MASK;
 651              		.loc 1 551 0
 652 0000 0F23     		movs	r3, #15
 653 0002 1840     		ands	r0, r3
 654              	.LVL45:
 655 0004 014B     		ldr	r3, .L51
 656 0006 1860     		str	r0, [r3]
 552:Generated_Source\PSoC4/ADC.c **** }
 657              		.loc 1 552 0
 658              		@ sp needed
 659 0008 7047     		bx	lr
 660              	.L52:
 661 000a C046     		.align	2
 662              	.L51:
 663 000c 20003A40 		.word	1077542944
 664              		.cfi_endproc
 665              	.LFE9:
 666              		.size	ADC_SetChanMask, .-ADC_SetChanMask
 667              		.section	.text.ADC_EnableInjection,"ax",%progbits
 668              		.align	2
 669              		.global	ADC_EnableInjection
 670              		.code	16
 671              		.thumb_func
 672              		.type	ADC_EnableInjection, %function
 673              	ADC_EnableInjection:
 674              	.LFB10:
 553:Generated_Source\PSoC4/ADC.c **** 
 554:Generated_Source\PSoC4/ADC.c **** #if(ADC_INJ_CHANNEL_ENABLED)
 555:Generated_Source\PSoC4/ADC.c **** 
 556:Generated_Source\PSoC4/ADC.c **** 
 557:Generated_Source\PSoC4/ADC.c ****     /*******************************************************************************
 558:Generated_Source\PSoC4/ADC.c ****     * Function Name: ADC_EnableInjection
 559:Generated_Source\PSoC4/ADC.c ****     ********************************************************************************
 560:Generated_Source\PSoC4/ADC.c ****     *
 561:Generated_Source\PSoC4/ADC.c ****     * Summary:
 562:Generated_Source\PSoC4/ADC.c ****     *  Enables the injection channel for the next scan only.
 563:Generated_Source\PSoC4/ADC.c ****     *
 564:Generated_Source\PSoC4/ADC.c ****     * Parameters:
 565:Generated_Source\PSoC4/ADC.c ****     *  None.
 566:Generated_Source\PSoC4/ADC.c ****     *
 567:Generated_Source\PSoC4/ADC.c ****     * Return:
ARM GAS  C:\Users\Larry\AppData\Local\Temp\ccD8ijU7.s 			page 23


 568:Generated_Source\PSoC4/ADC.c ****     *  None.
 569:Generated_Source\PSoC4/ADC.c ****     *
 570:Generated_Source\PSoC4/ADC.c ****     *******************************************************************************/
 571:Generated_Source\PSoC4/ADC.c ****     void ADC_EnableInjection(void)
 572:Generated_Source\PSoC4/ADC.c ****     {
 675              		.loc 1 572 0
 676              		.cfi_startproc
 677              		@ args = 0, pretend = 0, frame = 0
 678              		@ frame_needed = 0, uses_anonymous_args = 0
 679              		@ link register save eliminated.
 573:Generated_Source\PSoC4/ADC.c ****         ADC_SAR_INJ_CHAN_CONFIG_REG |= ADC_INJ_CHAN_EN;
 680              		.loc 1 573 0
 681 0000 034A     		ldr	r2, .L54
 682 0002 1368     		ldr	r3, [r2]
 683 0004 8021     		movs	r1, #128
 684 0006 0906     		lsls	r1, r1, #24
 685 0008 0B43     		orrs	r3, r1
 686 000a 1360     		str	r3, [r2]
 574:Generated_Source\PSoC4/ADC.c ****     }
 687              		.loc 1 574 0
 688              		@ sp needed
 689 000c 7047     		bx	lr
 690              	.L55:
 691 000e C046     		.align	2
 692              	.L54:
 693 0010 80023A40 		.word	1077543552
 694              		.cfi_endproc
 695              	.LFE10:
 696              		.size	ADC_EnableInjection, .-ADC_EnableInjection
 697              		.section	.text.ADC_SetLowLimit,"ax",%progbits
 698              		.align	2
 699              		.global	ADC_SetLowLimit
 700              		.code	16
 701              		.thumb_func
 702              		.type	ADC_SetLowLimit, %function
 703              	ADC_SetLowLimit:
 704              	.LFB11:
 575:Generated_Source\PSoC4/ADC.c **** 
 576:Generated_Source\PSoC4/ADC.c **** #endif /* ADC_INJ_CHANNEL_ENABLED */
 577:Generated_Source\PSoC4/ADC.c **** 
 578:Generated_Source\PSoC4/ADC.c **** 
 579:Generated_Source\PSoC4/ADC.c **** /*******************************************************************************
 580:Generated_Source\PSoC4/ADC.c **** * Function Name: ADC_SetLowLimit
 581:Generated_Source\PSoC4/ADC.c **** ********************************************************************************
 582:Generated_Source\PSoC4/ADC.c **** *
 583:Generated_Source\PSoC4/ADC.c **** * Summary:
 584:Generated_Source\PSoC4/ADC.c **** *  Sets the low limit parameter for a limit condition.
 585:Generated_Source\PSoC4/ADC.c **** *
 586:Generated_Source\PSoC4/ADC.c **** * Parameters:
 587:Generated_Source\PSoC4/ADC.c **** *  lowLimit: The low limit for a limit condition.
 588:Generated_Source\PSoC4/ADC.c **** *
 589:Generated_Source\PSoC4/ADC.c **** * Return:
 590:Generated_Source\PSoC4/ADC.c **** *  None.
 591:Generated_Source\PSoC4/ADC.c **** *
 592:Generated_Source\PSoC4/ADC.c **** *******************************************************************************/
 593:Generated_Source\PSoC4/ADC.c **** void ADC_SetLowLimit(uint32 lowLimit)
 594:Generated_Source\PSoC4/ADC.c **** {
ARM GAS  C:\Users\Larry\AppData\Local\Temp\ccD8ijU7.s 			page 24


 705              		.loc 1 594 0
 706              		.cfi_startproc
 707              		@ args = 0, pretend = 0, frame = 0
 708              		@ frame_needed = 0, uses_anonymous_args = 0
 709              		@ link register save eliminated.
 710              	.LVL46:
 595:Generated_Source\PSoC4/ADC.c ****     ADC_SAR_RANGE_THRES_REG &= (uint32)(~ADC_RANGE_LOW_MASK);
 711              		.loc 1 595 0
 712 0000 054A     		ldr	r2, .L57
 713 0002 1368     		ldr	r3, [r2]
 714 0004 1B0C     		lsrs	r3, r3, #16
 715 0006 1B04     		lsls	r3, r3, #16
 716 0008 1360     		str	r3, [r2]
 596:Generated_Source\PSoC4/ADC.c ****     ADC_SAR_RANGE_THRES_REG |= lowLimit & ADC_RANGE_LOW_MASK;
 717              		.loc 1 596 0
 718 000a 1368     		ldr	r3, [r2]
 719 000c 0004     		lsls	r0, r0, #16
 720              	.LVL47:
 721 000e 000C     		lsrs	r0, r0, #16
 722 0010 1843     		orrs	r0, r3
 723 0012 1060     		str	r0, [r2]
 597:Generated_Source\PSoC4/ADC.c **** }
 724              		.loc 1 597 0
 725              		@ sp needed
 726 0014 7047     		bx	lr
 727              	.L58:
 728 0016 C046     		.align	2
 729              	.L57:
 730 0018 18003A40 		.word	1077542936
 731              		.cfi_endproc
 732              	.LFE11:
 733              		.size	ADC_SetLowLimit, .-ADC_SetLowLimit
 734              		.section	.text.ADC_SetHighLimit,"ax",%progbits
 735              		.align	2
 736              		.global	ADC_SetHighLimit
 737              		.code	16
 738              		.thumb_func
 739              		.type	ADC_SetHighLimit, %function
 740              	ADC_SetHighLimit:
 741              	.LFB12:
 598:Generated_Source\PSoC4/ADC.c **** 
 599:Generated_Source\PSoC4/ADC.c **** 
 600:Generated_Source\PSoC4/ADC.c **** /*******************************************************************************
 601:Generated_Source\PSoC4/ADC.c **** * Function Name: ADC_SetHighLimit
 602:Generated_Source\PSoC4/ADC.c **** ********************************************************************************
 603:Generated_Source\PSoC4/ADC.c **** *
 604:Generated_Source\PSoC4/ADC.c **** * Summary:
 605:Generated_Source\PSoC4/ADC.c **** *  Sets the low limit parameter for a limit condition.
 606:Generated_Source\PSoC4/ADC.c **** *
 607:Generated_Source\PSoC4/ADC.c **** * Parameters:
 608:Generated_Source\PSoC4/ADC.c **** *  highLimit: The high limit for a limit condition.
 609:Generated_Source\PSoC4/ADC.c **** *
 610:Generated_Source\PSoC4/ADC.c **** * Return:
 611:Generated_Source\PSoC4/ADC.c **** *  None.
 612:Generated_Source\PSoC4/ADC.c **** *
 613:Generated_Source\PSoC4/ADC.c **** *******************************************************************************/
 614:Generated_Source\PSoC4/ADC.c **** void ADC_SetHighLimit(uint32 highLimit)
ARM GAS  C:\Users\Larry\AppData\Local\Temp\ccD8ijU7.s 			page 25


 615:Generated_Source\PSoC4/ADC.c **** {
 742              		.loc 1 615 0
 743              		.cfi_startproc
 744              		@ args = 0, pretend = 0, frame = 0
 745              		@ frame_needed = 0, uses_anonymous_args = 0
 746              		@ link register save eliminated.
 747              	.LVL48:
 616:Generated_Source\PSoC4/ADC.c ****     ADC_SAR_RANGE_THRES_REG &= (uint32)(~ADC_RANGE_HIGH_MASK);
 748              		.loc 1 616 0
 749 0000 044A     		ldr	r2, .L60
 750 0002 1368     		ldr	r3, [r2]
 751 0004 1B04     		lsls	r3, r3, #16
 752 0006 1B0C     		lsrs	r3, r3, #16
 753 0008 1360     		str	r3, [r2]
 617:Generated_Source\PSoC4/ADC.c ****     ADC_SAR_RANGE_THRES_REG |= (uint32)(highLimit << ADC_RANGE_HIGH_OFFSET);
 754              		.loc 1 617 0
 755 000a 1368     		ldr	r3, [r2]
 756 000c 0004     		lsls	r0, r0, #16
 757              	.LVL49:
 758 000e 1843     		orrs	r0, r3
 759 0010 1060     		str	r0, [r2]
 618:Generated_Source\PSoC4/ADC.c **** }
 760              		.loc 1 618 0
 761              		@ sp needed
 762 0012 7047     		bx	lr
 763              	.L61:
 764              		.align	2
 765              	.L60:
 766 0014 18003A40 		.word	1077542936
 767              		.cfi_endproc
 768              	.LFE12:
 769              		.size	ADC_SetHighLimit, .-ADC_SetHighLimit
 770              		.section	.text.ADC_SetLimitMask,"ax",%progbits
 771              		.align	2
 772              		.global	ADC_SetLimitMask
 773              		.code	16
 774              		.thumb_func
 775              		.type	ADC_SetLimitMask, %function
 776              	ADC_SetLimitMask:
 777              	.LFB13:
 619:Generated_Source\PSoC4/ADC.c **** 
 620:Generated_Source\PSoC4/ADC.c **** 
 621:Generated_Source\PSoC4/ADC.c **** /*******************************************************************************
 622:Generated_Source\PSoC4/ADC.c **** * Function Name: ADC_SetLimitMask
 623:Generated_Source\PSoC4/ADC.c **** ********************************************************************************
 624:Generated_Source\PSoC4/ADC.c **** *
 625:Generated_Source\PSoC4/ADC.c **** * Summary:
 626:Generated_Source\PSoC4/ADC.c **** *  Sets the channel limit condition mask.
 627:Generated_Source\PSoC4/ADC.c **** *
 628:Generated_Source\PSoC4/ADC.c **** * Parameters:
 629:Generated_Source\PSoC4/ADC.c **** *  mask: Sets which channels that may cause a
 630:Generated_Source\PSoC4/ADC.c **** *  limit condition interrupt. Setting bits for channels that do not exist
 631:Generated_Source\PSoC4/ADC.c **** *  will have no effect. For example, if only 6 channels were enabled,
 632:Generated_Source\PSoC4/ADC.c **** *  setting a mask of 0x0103 would only enable the last two channels (0 and 1).
 633:Generated_Source\PSoC4/ADC.c **** *
 634:Generated_Source\PSoC4/ADC.c **** * Return:
 635:Generated_Source\PSoC4/ADC.c **** *  None.
ARM GAS  C:\Users\Larry\AppData\Local\Temp\ccD8ijU7.s 			page 26


 636:Generated_Source\PSoC4/ADC.c **** *
 637:Generated_Source\PSoC4/ADC.c **** *******************************************************************************/
 638:Generated_Source\PSoC4/ADC.c **** void ADC_SetLimitMask(uint32 mask)
 639:Generated_Source\PSoC4/ADC.c **** {
 778              		.loc 1 639 0
 779              		.cfi_startproc
 780              		@ args = 0, pretend = 0, frame = 0
 781              		@ frame_needed = 0, uses_anonymous_args = 0
 782              		@ link register save eliminated.
 783              	.LVL50:
 640:Generated_Source\PSoC4/ADC.c ****     ADC_SAR_RANGE_INTR_MASK_REG = mask & ADC_MAX_CHANNELS_EN_MASK;
 784              		.loc 1 640 0
 785 0000 0F23     		movs	r3, #15
 786 0002 1840     		ands	r0, r3
 787              	.LVL51:
 788 0004 014B     		ldr	r3, .L63
 789 0006 1860     		str	r0, [r3]
 641:Generated_Source\PSoC4/ADC.c **** }
 790              		.loc 1 641 0
 791              		@ sp needed
 792 0008 7047     		bx	lr
 793              	.L64:
 794 000a C046     		.align	2
 795              	.L63:
 796 000c 38023A40 		.word	1077543480
 797              		.cfi_endproc
 798              	.LFE13:
 799              		.size	ADC_SetLimitMask, .-ADC_SetLimitMask
 800              		.section	.text.ADC_SetSatMask,"ax",%progbits
 801              		.align	2
 802              		.global	ADC_SetSatMask
 803              		.code	16
 804              		.thumb_func
 805              		.type	ADC_SetSatMask, %function
 806              	ADC_SetSatMask:
 807              	.LFB14:
 642:Generated_Source\PSoC4/ADC.c **** 
 643:Generated_Source\PSoC4/ADC.c **** 
 644:Generated_Source\PSoC4/ADC.c **** /*******************************************************************************
 645:Generated_Source\PSoC4/ADC.c **** * Function Name: ADC_SetSatMask
 646:Generated_Source\PSoC4/ADC.c **** ********************************************************************************
 647:Generated_Source\PSoC4/ADC.c **** *
 648:Generated_Source\PSoC4/ADC.c **** * Summary:
 649:Generated_Source\PSoC4/ADC.c **** *  Sets the channel saturation event mask.
 650:Generated_Source\PSoC4/ADC.c **** *
 651:Generated_Source\PSoC4/ADC.c **** * Parameters:
 652:Generated_Source\PSoC4/ADC.c **** *  mask: Sets which channels that may cause a
 653:Generated_Source\PSoC4/ADC.c **** *  saturation event interrupt. Setting bits for channels that do not exist
 654:Generated_Source\PSoC4/ADC.c **** *  will have no effect. For example, if only 8 channels were enabled,
 655:Generated_Source\PSoC4/ADC.c **** *  setting a mask of 0x01C0 would only enable two channels (6 and 7).
 656:Generated_Source\PSoC4/ADC.c **** *
 657:Generated_Source\PSoC4/ADC.c **** * Return:
 658:Generated_Source\PSoC4/ADC.c **** *  None.
 659:Generated_Source\PSoC4/ADC.c **** *
 660:Generated_Source\PSoC4/ADC.c **** *******************************************************************************/
 661:Generated_Source\PSoC4/ADC.c **** void ADC_SetSatMask(uint32 mask)
 662:Generated_Source\PSoC4/ADC.c **** {
ARM GAS  C:\Users\Larry\AppData\Local\Temp\ccD8ijU7.s 			page 27


 808              		.loc 1 662 0
 809              		.cfi_startproc
 810              		@ args = 0, pretend = 0, frame = 0
 811              		@ frame_needed = 0, uses_anonymous_args = 0
 812              		@ link register save eliminated.
 813              	.LVL52:
 663:Generated_Source\PSoC4/ADC.c ****     ADC_SAR_SATURATE_INTR_MASK_REG = mask & ADC_MAX_CHANNELS_EN_MASK;
 814              		.loc 1 663 0
 815 0000 0F23     		movs	r3, #15
 816 0002 1840     		ands	r0, r3
 817              	.LVL53:
 818 0004 014B     		ldr	r3, .L66
 819 0006 1860     		str	r0, [r3]
 664:Generated_Source\PSoC4/ADC.c **** }
 820              		.loc 1 664 0
 821              		@ sp needed
 822 0008 7047     		bx	lr
 823              	.L67:
 824 000a C046     		.align	2
 825              	.L66:
 826 000c 28023A40 		.word	1077543464
 827              		.cfi_endproc
 828              	.LFE14:
 829              		.size	ADC_SetSatMask, .-ADC_SetSatMask
 830              		.section	.text.ADC_SetOffset,"ax",%progbits
 831              		.align	2
 832              		.global	ADC_SetOffset
 833              		.code	16
 834              		.thumb_func
 835              		.type	ADC_SetOffset, %function
 836              	ADC_SetOffset:
 837              	.LFB15:
 665:Generated_Source\PSoC4/ADC.c **** 
 666:Generated_Source\PSoC4/ADC.c **** 
 667:Generated_Source\PSoC4/ADC.c **** /*******************************************************************************
 668:Generated_Source\PSoC4/ADC.c **** * Function Name: ADC_SetOffset
 669:Generated_Source\PSoC4/ADC.c **** ********************************************************************************
 670:Generated_Source\PSoC4/ADC.c **** *
 671:Generated_Source\PSoC4/ADC.c **** * Summary:
 672:Generated_Source\PSoC4/ADC.c **** *   Description: Sets the ADC offset which is used by the functions
 673:Generated_Source\PSoC4/ADC.c **** *   ADC_CountsTo_uVolts, ADC_CountsTo_mVolts and ADC_CountsTo_Volts
 674:Generated_Source\PSoC4/ADC.c **** *   to substract the offset from the given reading
 675:Generated_Source\PSoC4/ADC.c **** *   before calculating the voltage conversion.
 676:Generated_Source\PSoC4/ADC.c **** *
 677:Generated_Source\PSoC4/ADC.c **** * Parameters:
 678:Generated_Source\PSoC4/ADC.c **** *  chan: ADC channel number.
 679:Generated_Source\PSoC4/ADC.c **** *  offset: This value is a measured value when the
 680:Generated_Source\PSoC4/ADC.c **** *          inputs are shorted or connected to the same input voltage.
 681:Generated_Source\PSoC4/ADC.c **** *
 682:Generated_Source\PSoC4/ADC.c **** * Return:
 683:Generated_Source\PSoC4/ADC.c **** *  None.
 684:Generated_Source\PSoC4/ADC.c **** *
 685:Generated_Source\PSoC4/ADC.c **** * Global variables:
 686:Generated_Source\PSoC4/ADC.c **** *  ADC_Offset:  Modified to set the user provided offset.
 687:Generated_Source\PSoC4/ADC.c **** *
 688:Generated_Source\PSoC4/ADC.c **** *******************************************************************************/
 689:Generated_Source\PSoC4/ADC.c **** void ADC_SetOffset(uint32 chan, int16 offset)
ARM GAS  C:\Users\Larry\AppData\Local\Temp\ccD8ijU7.s 			page 28


 690:Generated_Source\PSoC4/ADC.c **** {
 838              		.loc 1 690 0
 839              		.cfi_startproc
 840              		@ args = 0, pretend = 0, frame = 0
 841              		@ frame_needed = 0, uses_anonymous_args = 0
 842              	.LVL54:
 843 0000 70B5     		push	{r4, r5, r6, lr}
 844              		.cfi_def_cfa_offset 16
 845              		.cfi_offset 4, -16
 846              		.cfi_offset 5, -12
 847              		.cfi_offset 6, -8
 848              		.cfi_offset 14, -4
 849 0002 0400     		movs	r4, r0
 850 0004 0D00     		movs	r5, r1
 691:Generated_Source\PSoC4/ADC.c ****     /* Halt CPU in debug mode if channel is out of valid range */
 692:Generated_Source\PSoC4/ADC.c ****     CYASSERT(chan < ADC_TOTAL_CHANNELS_NUM);
 851              		.loc 1 692 0
 852 0006 0428     		cmp	r0, #4
 853 0008 02D9     		bls	.L69
 854              		.loc 1 692 0 is_stmt 0 discriminator 1
 855 000a 0020     		movs	r0, #0
 856              	.LVL55:
 857 000c FFF7FEFF 		bl	CyHalt
 858              	.LVL56:
 859              	.L69:
 693:Generated_Source\PSoC4/ADC.c **** 
 694:Generated_Source\PSoC4/ADC.c ****     ADC_offset[chan] = offset;
 860              		.loc 1 694 0 is_stmt 1
 861 0010 6400     		lsls	r4, r4, #1
 862              	.LVL57:
 863 0012 014B     		ldr	r3, .L70
 864 0014 E552     		strh	r5, [r4, r3]
 695:Generated_Source\PSoC4/ADC.c **** }
 865              		.loc 1 695 0
 866              		@ sp needed
 867 0016 70BD     		pop	{r4, r5, r6, pc}
 868              	.L71:
 869              		.align	2
 870              	.L70:
 871 0018 00000000 		.word	ADC_offset
 872              		.cfi_endproc
 873              	.LFE15:
 874              		.size	ADC_SetOffset, .-ADC_SetOffset
 875              		.section	.text.ADC_SetGain,"ax",%progbits
 876              		.align	2
 877              		.global	ADC_SetGain
 878              		.code	16
 879              		.thumb_func
 880              		.type	ADC_SetGain, %function
 881              	ADC_SetGain:
 882              	.LFB16:
 696:Generated_Source\PSoC4/ADC.c **** 
 697:Generated_Source\PSoC4/ADC.c **** 
 698:Generated_Source\PSoC4/ADC.c **** /*******************************************************************************
 699:Generated_Source\PSoC4/ADC.c **** * Function Name: ADC_SetGain
 700:Generated_Source\PSoC4/ADC.c **** ********************************************************************************
 701:Generated_Source\PSoC4/ADC.c **** *
ARM GAS  C:\Users\Larry\AppData\Local\Temp\ccD8ijU7.s 			page 29


 702:Generated_Source\PSoC4/ADC.c **** * Summary:
 703:Generated_Source\PSoC4/ADC.c **** *  Description: Sets the ADC gain in counts per 10 volt for the voltage
 704:Generated_Source\PSoC4/ADC.c **** *  conversion functions below. This value is set by default by the
 705:Generated_Source\PSoC4/ADC.c **** *  reference and input range settings. It should only be used to further
 706:Generated_Source\PSoC4/ADC.c **** *  calibrate the ADC with a known input or if an external reference is
 707:Generated_Source\PSoC4/ADC.c **** *  used. Affects the ADC_CountsTo_uVolts, ADC_CountsTo_mVolts
 708:Generated_Source\PSoC4/ADC.c **** *  and ADC_CountsTo_Volts functions by supplying the correct
 709:Generated_Source\PSoC4/ADC.c **** *  conversion between ADC counts and voltage.
 710:Generated_Source\PSoC4/ADC.c **** *
 711:Generated_Source\PSoC4/ADC.c **** * Parameters:
 712:Generated_Source\PSoC4/ADC.c **** *  chan: ADC channel number.
 713:Generated_Source\PSoC4/ADC.c **** *  adcGain: ADC gain in counts per 10 volts.
 714:Generated_Source\PSoC4/ADC.c **** *
 715:Generated_Source\PSoC4/ADC.c **** * Return:
 716:Generated_Source\PSoC4/ADC.c **** *  None.
 717:Generated_Source\PSoC4/ADC.c **** *
 718:Generated_Source\PSoC4/ADC.c **** * Global variables:
 719:Generated_Source\PSoC4/ADC.c **** *  ADC_CountsPer10Volt:  modified to set the ADC gain in counts
 720:Generated_Source\PSoC4/ADC.c **** *   per 10 volt.
 721:Generated_Source\PSoC4/ADC.c **** *
 722:Generated_Source\PSoC4/ADC.c **** *******************************************************************************/
 723:Generated_Source\PSoC4/ADC.c **** void ADC_SetGain(uint32 chan, int32 adcGain)
 724:Generated_Source\PSoC4/ADC.c **** {
 883              		.loc 1 724 0
 884              		.cfi_startproc
 885              		@ args = 0, pretend = 0, frame = 0
 886              		@ frame_needed = 0, uses_anonymous_args = 0
 887              	.LVL58:
 888 0000 70B5     		push	{r4, r5, r6, lr}
 889              		.cfi_def_cfa_offset 16
 890              		.cfi_offset 4, -16
 891              		.cfi_offset 5, -12
 892              		.cfi_offset 6, -8
 893              		.cfi_offset 14, -4
 894 0002 0400     		movs	r4, r0
 895 0004 0D00     		movs	r5, r1
 725:Generated_Source\PSoC4/ADC.c ****     /* Halt CPU in debug mode if channel is out of valid range */
 726:Generated_Source\PSoC4/ADC.c ****     CYASSERT(chan < ADC_TOTAL_CHANNELS_NUM);
 896              		.loc 1 726 0
 897 0006 0428     		cmp	r0, #4
 898 0008 02D9     		bls	.L73
 899              		.loc 1 726 0 is_stmt 0 discriminator 1
 900 000a 0020     		movs	r0, #0
 901              	.LVL59:
 902 000c FFF7FEFF 		bl	CyHalt
 903              	.LVL60:
 904              	.L73:
 727:Generated_Source\PSoC4/ADC.c **** 
 728:Generated_Source\PSoC4/ADC.c ****     ADC_countsPer10Volt[chan] = adcGain;
 905              		.loc 1 728 0 is_stmt 1
 906 0010 A400     		lsls	r4, r4, #2
 907              	.LVL61:
 908 0012 014B     		ldr	r3, .L74
 909 0014 E550     		str	r5, [r4, r3]
 729:Generated_Source\PSoC4/ADC.c **** }
 910              		.loc 1 729 0
 911              		@ sp needed
ARM GAS  C:\Users\Larry\AppData\Local\Temp\ccD8ijU7.s 			page 30


 912              	.LVL62:
 913 0016 70BD     		pop	{r4, r5, r6, pc}
 914              	.L75:
 915              		.align	2
 916              	.L74:
 917 0018 00000000 		.word	ADC_countsPer10Volt
 918              		.cfi_endproc
 919              	.LFE16:
 920              		.size	ADC_SetGain, .-ADC_SetGain
 921              		.global	__aeabi_idiv
 922              		.section	.text.ADC_CountsTo_mVolts,"ax",%progbits
 923              		.align	2
 924              		.global	ADC_CountsTo_mVolts
 925              		.code	16
 926              		.thumb_func
 927              		.type	ADC_CountsTo_mVolts, %function
 928              	ADC_CountsTo_mVolts:
 929              	.LFB17:
 730:Generated_Source\PSoC4/ADC.c **** 
 731:Generated_Source\PSoC4/ADC.c **** 
 732:Generated_Source\PSoC4/ADC.c **** #if(ADC_DEFAULT_JUSTIFICATION_SEL == ADC__RIGHT)
 733:Generated_Source\PSoC4/ADC.c **** 
 734:Generated_Source\PSoC4/ADC.c **** 
 735:Generated_Source\PSoC4/ADC.c ****     /*******************************************************************************
 736:Generated_Source\PSoC4/ADC.c ****     * Function Name: ADC_CountsTo_mVolts
 737:Generated_Source\PSoC4/ADC.c ****     ********************************************************************************
 738:Generated_Source\PSoC4/ADC.c ****     *
 739:Generated_Source\PSoC4/ADC.c ****     * Summary:
 740:Generated_Source\PSoC4/ADC.c ****     *  This function converts ADC counts to mVolts
 741:Generated_Source\PSoC4/ADC.c ****     *  This function is not available when left data format justification selected.
 742:Generated_Source\PSoC4/ADC.c ****     *
 743:Generated_Source\PSoC4/ADC.c ****     * Parameters:
 744:Generated_Source\PSoC4/ADC.c ****     *  chan: The ADC channel number.
 745:Generated_Source\PSoC4/ADC.c ****     *  adcCounts: Result from the ADC conversion
 746:Generated_Source\PSoC4/ADC.c ****     *
 747:Generated_Source\PSoC4/ADC.c ****     * Return:
 748:Generated_Source\PSoC4/ADC.c ****     *  Results in mVolts
 749:Generated_Source\PSoC4/ADC.c ****     *
 750:Generated_Source\PSoC4/ADC.c ****     * Global variables:
 751:Generated_Source\PSoC4/ADC.c ****     *  ADC_countsPer10Volt:  used to convert ADC counts to mVolts.
 752:Generated_Source\PSoC4/ADC.c ****     *  ADC_Offset:  Used as the offset while converting ADC counts
 753:Generated_Source\PSoC4/ADC.c ****     *   to mVolts.
 754:Generated_Source\PSoC4/ADC.c ****     *
 755:Generated_Source\PSoC4/ADC.c ****     *******************************************************************************/
 756:Generated_Source\PSoC4/ADC.c ****     int16 ADC_CountsTo_mVolts(uint32 chan, int16 adcCounts)
 757:Generated_Source\PSoC4/ADC.c ****     {
 930              		.loc 1 757 0
 931              		.cfi_startproc
 932              		@ args = 0, pretend = 0, frame = 0
 933              		@ frame_needed = 0, uses_anonymous_args = 0
 934              	.LVL63:
 935 0000 70B5     		push	{r4, r5, r6, lr}
 936              		.cfi_def_cfa_offset 16
 937              		.cfi_offset 4, -16
 938              		.cfi_offset 5, -12
 939              		.cfi_offset 6, -8
 940              		.cfi_offset 14, -4
ARM GAS  C:\Users\Larry\AppData\Local\Temp\ccD8ijU7.s 			page 31


 941 0002 0400     		movs	r4, r0
 942 0004 0D00     		movs	r5, r1
 758:Generated_Source\PSoC4/ADC.c ****         int16 mVolts;
 759:Generated_Source\PSoC4/ADC.c **** 
 760:Generated_Source\PSoC4/ADC.c ****         /* Halt CPU in debug mode if channel is out of valid range */
 761:Generated_Source\PSoC4/ADC.c ****         CYASSERT(chan < ADC_TOTAL_CHANNELS_NUM);
 943              		.loc 1 761 0
 944 0006 0428     		cmp	r0, #4
 945 0008 02D9     		bls	.L77
 946              		.loc 1 761 0 is_stmt 0 discriminator 1
 947 000a 0020     		movs	r0, #0
 948              	.LVL64:
 949 000c FFF7FEFF 		bl	CyHalt
 950              	.LVL65:
 951              	.L77:
 762:Generated_Source\PSoC4/ADC.c **** 
 763:Generated_Source\PSoC4/ADC.c ****         /* Divide the adcCount when accumulate averaging mode selected */
 764:Generated_Source\PSoC4/ADC.c ****         #if(ADC_DEFAULT_AVG_MODE == ADC__ACCUMULATE)
 765:Generated_Source\PSoC4/ADC.c ****             if((ADC_channelsConfig[chan] & ADC_AVERAGING_EN) != 0u)
 766:Generated_Source\PSoC4/ADC.c ****             {
 767:Generated_Source\PSoC4/ADC.c ****                 adcCounts /= ADC_DEFAULT_AVG_SAMPLES_DIV;
 768:Generated_Source\PSoC4/ADC.c ****             }
 769:Generated_Source\PSoC4/ADC.c ****         #endif /* ADC_DEFAULT_AVG_MODE == ADC__ACCUMULATE */
 770:Generated_Source\PSoC4/ADC.c **** 
 771:Generated_Source\PSoC4/ADC.c ****         /* Subtract ADC offset */
 772:Generated_Source\PSoC4/ADC.c ****         adcCounts -= ADC_offset[chan];
 952              		.loc 1 772 0 is_stmt 1
 953 0010 6300     		lsls	r3, r4, #1
 954 0012 0F4A     		ldr	r2, .L80
 955 0014 995A     		ldrh	r1, [r3, r2]
 956 0016 09B2     		sxth	r1, r1
 957 0018 691A     		subs	r1, r5, r1
 958 001a 09B2     		sxth	r1, r1
 959              	.LVL66:
 773:Generated_Source\PSoC4/ADC.c **** 
 774:Generated_Source\PSoC4/ADC.c ****         mVolts = (int16)((((int32)adcCounts * ADC_10MV_COUNTS) + ( (adcCounts > 0) ?
 960              		.loc 1 774 0
 961 001c 0D48     		ldr	r0, .L80+4
 962 001e 4843     		muls	r0, r1
 775:Generated_Source\PSoC4/ADC.c ****                  (ADC_countsPer10Volt[chan] / 2) : (-(ADC_countsPer10Volt[chan] / 2)) ))
 963              		.loc 1 775 0
 964 0020 0029     		cmp	r1, #0
 965 0022 06DD     		ble	.L78
 966              		.loc 1 775 0 is_stmt 0 discriminator 1
 967 0024 A300     		lsls	r3, r4, #2
 968 0026 0C4A     		ldr	r2, .L80+8
 969 0028 9A58     		ldr	r2, [r3, r2]
 970 002a D30F     		lsrs	r3, r2, #31
 971 002c 9A18     		adds	r2, r3, r2
 972 002e 5310     		asrs	r3, r2, #1
 973 0030 06E0     		b	.L79
 974              	.L78:
 975              		.loc 1 775 0 discriminator 2
 976 0032 A300     		lsls	r3, r4, #2
 977 0034 084A     		ldr	r2, .L80+8
 978 0036 9A58     		ldr	r2, [r3, r2]
 979 0038 D30F     		lsrs	r3, r2, #31
ARM GAS  C:\Users\Larry\AppData\Local\Temp\ccD8ijU7.s 			page 32


 980 003a 9A18     		adds	r2, r3, r2
 981 003c 5210     		asrs	r2, r2, #1
 982 003e 5342     		rsbs	r3, r2, #0
 983              	.L79:
 774:Generated_Source\PSoC4/ADC.c ****                  (ADC_countsPer10Volt[chan] / 2) : (-(ADC_countsPer10Volt[chan] / 2)) ))
 984              		.loc 1 774 0 is_stmt 1
 985 0040 1818     		adds	r0, r3, r0
 776:Generated_Source\PSoC4/ADC.c ****                  / ADC_countsPer10Volt[chan]);
 986              		.loc 1 776 0
 987 0042 A400     		lsls	r4, r4, #2
 988              	.LVL67:
 989 0044 044B     		ldr	r3, .L80+8
 990 0046 E158     		ldr	r1, [r4, r3]
 991              	.LVL68:
 992 0048 FFF7FEFF 		bl	__aeabi_idiv
 993              	.LVL69:
 774:Generated_Source\PSoC4/ADC.c ****                  (ADC_countsPer10Volt[chan] / 2) : (-(ADC_countsPer10Volt[chan] / 2)) ))
 994              		.loc 1 774 0
 995 004c 00B2     		sxth	r0, r0
 996              	.LVL70:
 777:Generated_Source\PSoC4/ADC.c **** 
 778:Generated_Source\PSoC4/ADC.c ****         return( mVolts );
 779:Generated_Source\PSoC4/ADC.c ****     }
 997              		.loc 1 779 0
 998              		@ sp needed
 999 004e 70BD     		pop	{r4, r5, r6, pc}
 1000              	.L81:
 1001              		.align	2
 1002              	.L80:
 1003 0050 00000000 		.word	ADC_offset
 1004 0054 10270000 		.word	10000
 1005 0058 00000000 		.word	ADC_countsPer10Volt
 1006              		.cfi_endproc
 1007              	.LFE17:
 1008              		.size	ADC_CountsTo_mVolts, .-ADC_CountsTo_mVolts
 1009              		.global	__aeabi_lmul
 1010              		.global	__aeabi_ldivmod
 1011              		.section	.text.ADC_CountsTo_uVolts,"ax",%progbits
 1012              		.align	2
 1013              		.global	ADC_CountsTo_uVolts
 1014              		.code	16
 1015              		.thumb_func
 1016              		.type	ADC_CountsTo_uVolts, %function
 1017              	ADC_CountsTo_uVolts:
 1018              	.LFB18:
 780:Generated_Source\PSoC4/ADC.c **** 
 781:Generated_Source\PSoC4/ADC.c **** 
 782:Generated_Source\PSoC4/ADC.c ****     /*******************************************************************************
 783:Generated_Source\PSoC4/ADC.c ****     * Function Name: ADC_CountsTo_uVolts
 784:Generated_Source\PSoC4/ADC.c ****     ********************************************************************************
 785:Generated_Source\PSoC4/ADC.c ****     *
 786:Generated_Source\PSoC4/ADC.c ****     * Summary:
 787:Generated_Source\PSoC4/ADC.c ****     *  This function converts ADC counts to micro Volts
 788:Generated_Source\PSoC4/ADC.c ****     *  This function is not available when left data format justification selected.
 789:Generated_Source\PSoC4/ADC.c ****     *
 790:Generated_Source\PSoC4/ADC.c ****     * Parameters:
 791:Generated_Source\PSoC4/ADC.c ****     *  chan: The ADC channel number.
ARM GAS  C:\Users\Larry\AppData\Local\Temp\ccD8ijU7.s 			page 33


 792:Generated_Source\PSoC4/ADC.c ****     *  adcCounts: Result from the ADC conversion
 793:Generated_Source\PSoC4/ADC.c ****     *
 794:Generated_Source\PSoC4/ADC.c ****     * Return:
 795:Generated_Source\PSoC4/ADC.c ****     *  Results in uVolts
 796:Generated_Source\PSoC4/ADC.c ****     *
 797:Generated_Source\PSoC4/ADC.c ****     * Global variables:
 798:Generated_Source\PSoC4/ADC.c ****     *  ADC_countsPer10Volt:  used to convert ADC counts to uVolts.
 799:Generated_Source\PSoC4/ADC.c ****     *  ADC_Offset:  Used as the offset while converting ADC counts
 800:Generated_Source\PSoC4/ADC.c ****     *   to mVolts.
 801:Generated_Source\PSoC4/ADC.c ****     *
 802:Generated_Source\PSoC4/ADC.c ****     * Theory:
 803:Generated_Source\PSoC4/ADC.c ****     *  Care must be taken to not exceed the maximum value for a 31 bit signed
 804:Generated_Source\PSoC4/ADC.c ****     *  number in the conversion to uVolts and at the same time not loose
 805:Generated_Source\PSoC4/ADC.c ****     *  resolution.
 806:Generated_Source\PSoC4/ADC.c ****     *  To convert adcCounts to microVolts it is required to be multiplied
 807:Generated_Source\PSoC4/ADC.c ****     *  on 10 million and later divide on gain in counts per 10V.
 808:Generated_Source\PSoC4/ADC.c ****     *
 809:Generated_Source\PSoC4/ADC.c ****     *******************************************************************************/
 810:Generated_Source\PSoC4/ADC.c ****     int32 ADC_CountsTo_uVolts(uint32 chan, int16 adcCounts)
 811:Generated_Source\PSoC4/ADC.c ****     {
 1019              		.loc 1 811 0
 1020              		.cfi_startproc
 1021              		@ args = 0, pretend = 0, frame = 0
 1022              		@ frame_needed = 0, uses_anonymous_args = 0
 1023              	.LVL71:
 1024 0000 70B5     		push	{r4, r5, r6, lr}
 1025              		.cfi_def_cfa_offset 16
 1026              		.cfi_offset 4, -16
 1027              		.cfi_offset 5, -12
 1028              		.cfi_offset 6, -8
 1029              		.cfi_offset 14, -4
 1030 0002 0500     		movs	r5, r0
 1031 0004 0C00     		movs	r4, r1
 812:Generated_Source\PSoC4/ADC.c ****         int64 uVolts;
 813:Generated_Source\PSoC4/ADC.c **** 
 814:Generated_Source\PSoC4/ADC.c ****         /* Halt CPU in debug mode if channel is out of valid range */
 815:Generated_Source\PSoC4/ADC.c ****         CYASSERT(chan < ADC_TOTAL_CHANNELS_NUM);
 1032              		.loc 1 815 0
 1033 0006 0428     		cmp	r0, #4
 1034 0008 02D9     		bls	.L83
 1035              		.loc 1 815 0 is_stmt 0 discriminator 1
 1036 000a 0020     		movs	r0, #0
 1037              	.LVL72:
 1038 000c FFF7FEFF 		bl	CyHalt
 1039              	.LVL73:
 1040              	.L83:
 816:Generated_Source\PSoC4/ADC.c **** 
 817:Generated_Source\PSoC4/ADC.c ****         /* Divide the adcCount when accumulate averaging mode selected */
 818:Generated_Source\PSoC4/ADC.c ****         #if(ADC_DEFAULT_AVG_MODE == ADC__ACCUMULATE)
 819:Generated_Source\PSoC4/ADC.c ****             if((ADC_channelsConfig[chan] & ADC_AVERAGING_EN) != 0u)
 820:Generated_Source\PSoC4/ADC.c ****             {
 821:Generated_Source\PSoC4/ADC.c ****                 adcCounts /= ADC_DEFAULT_AVG_SAMPLES_DIV;
 822:Generated_Source\PSoC4/ADC.c ****             }
 823:Generated_Source\PSoC4/ADC.c ****         #endif /* ADC_DEFAULT_AVG_MODE == ADC__ACCUMULATE */
 824:Generated_Source\PSoC4/ADC.c **** 
 825:Generated_Source\PSoC4/ADC.c ****         /* Subtract ADC offset */
 826:Generated_Source\PSoC4/ADC.c ****         adcCounts -= ADC_offset[chan];
ARM GAS  C:\Users\Larry\AppData\Local\Temp\ccD8ijU7.s 			page 34


 1041              		.loc 1 826 0 is_stmt 1
 1042 0010 6A00     		lsls	r2, r5, #1
 1043 0012 084B     		ldr	r3, .L84
 1044 0014 D05A     		ldrh	r0, [r2, r3]
 1045 0016 00B2     		sxth	r0, r0
 1046 0018 201A     		subs	r0, r4, r0
 1047 001a 00B2     		sxth	r0, r0
 1048              	.LVL74:
 827:Generated_Source\PSoC4/ADC.c **** 
 828:Generated_Source\PSoC4/ADC.c ****         uVolts = ((int64)adcCounts * ADC_10UV_COUNTS) / ADC_countsPer10Volt[chan];
 1049              		.loc 1 828 0
 1050 001c C117     		asrs	r1, r0, #31
 1051 001e 064A     		ldr	r2, .L84+4
 1052 0020 0023     		movs	r3, #0
 1053 0022 FFF7FEFF 		bl	__aeabi_lmul
 1054              	.LVL75:
 1055 0026 AD00     		lsls	r5, r5, #2
 1056              	.LVL76:
 1057 0028 044B     		ldr	r3, .L84+8
 1058 002a EA58     		ldr	r2, [r5, r3]
 1059 002c D317     		asrs	r3, r2, #31
 1060 002e FFF7FEFF 		bl	__aeabi_ldivmod
 1061              	.LVL77:
 829:Generated_Source\PSoC4/ADC.c **** 
 830:Generated_Source\PSoC4/ADC.c ****         return( (int32)uVolts );
 831:Generated_Source\PSoC4/ADC.c ****     }
 1062              		.loc 1 831 0
 1063              		@ sp needed
 1064 0032 70BD     		pop	{r4, r5, r6, pc}
 1065              	.L85:
 1066              		.align	2
 1067              	.L84:
 1068 0034 00000000 		.word	ADC_offset
 1069 0038 80969800 		.word	10000000
 1070 003c 00000000 		.word	ADC_countsPer10Volt
 1071              		.cfi_endproc
 1072              	.LFE18:
 1073              		.size	ADC_CountsTo_uVolts, .-ADC_CountsTo_uVolts
 1074              		.global	__aeabi_i2f
 1075              		.global	__aeabi_fmul
 1076              		.global	__aeabi_fdiv
 1077              		.section	.text.ADC_CountsTo_Volts,"ax",%progbits
 1078              		.align	2
 1079              		.global	ADC_CountsTo_Volts
 1080              		.code	16
 1081              		.thumb_func
 1082              		.type	ADC_CountsTo_Volts, %function
 1083              	ADC_CountsTo_Volts:
 1084              	.LFB19:
 832:Generated_Source\PSoC4/ADC.c **** 
 833:Generated_Source\PSoC4/ADC.c **** 
 834:Generated_Source\PSoC4/ADC.c ****     /*******************************************************************************
 835:Generated_Source\PSoC4/ADC.c ****     * Function Name: ADC_CountsTo_Volts
 836:Generated_Source\PSoC4/ADC.c ****     ********************************************************************************
 837:Generated_Source\PSoC4/ADC.c ****     *
 838:Generated_Source\PSoC4/ADC.c ****     * Summary:
 839:Generated_Source\PSoC4/ADC.c ****     *  Converts the ADC output to Volts as a floating point number.
ARM GAS  C:\Users\Larry\AppData\Local\Temp\ccD8ijU7.s 			page 35


 840:Generated_Source\PSoC4/ADC.c ****     *  This function is not available when left data format justification selected.
 841:Generated_Source\PSoC4/ADC.c ****     *
 842:Generated_Source\PSoC4/ADC.c ****     * Parameters:
 843:Generated_Source\PSoC4/ADC.c ****     *  chan: The ADC channel number.
 844:Generated_Source\PSoC4/ADC.c ****     *  Result from the ADC conversion
 845:Generated_Source\PSoC4/ADC.c ****     *
 846:Generated_Source\PSoC4/ADC.c ****     * Return:
 847:Generated_Source\PSoC4/ADC.c ****     *  Results in Volts
 848:Generated_Source\PSoC4/ADC.c ****     *
 849:Generated_Source\PSoC4/ADC.c ****     * Global variables:
 850:Generated_Source\PSoC4/ADC.c ****     *  ADC_countsPer10Volt:  used to convert ADC counts to Volts.
 851:Generated_Source\PSoC4/ADC.c ****     *  ADC_Offset:  Used as the offset while converting ADC counts
 852:Generated_Source\PSoC4/ADC.c ****     *   to mVolts.
 853:Generated_Source\PSoC4/ADC.c ****     *
 854:Generated_Source\PSoC4/ADC.c ****     *******************************************************************************/
 855:Generated_Source\PSoC4/ADC.c ****     float32 ADC_CountsTo_Volts(uint32 chan, int16 adcCounts)
 856:Generated_Source\PSoC4/ADC.c ****     {
 1085              		.loc 1 856 0
 1086              		.cfi_startproc
 1087              		@ args = 0, pretend = 0, frame = 0
 1088              		@ frame_needed = 0, uses_anonymous_args = 0
 1089              	.LVL78:
 1090 0000 70B5     		push	{r4, r5, r6, lr}
 1091              		.cfi_def_cfa_offset 16
 1092              		.cfi_offset 4, -16
 1093              		.cfi_offset 5, -12
 1094              		.cfi_offset 6, -8
 1095              		.cfi_offset 14, -4
 1096 0002 0400     		movs	r4, r0
 1097 0004 0D00     		movs	r5, r1
 857:Generated_Source\PSoC4/ADC.c ****         float32 volts;
 858:Generated_Source\PSoC4/ADC.c **** 
 859:Generated_Source\PSoC4/ADC.c ****         /* Halt CPU in debug mode if channel is out of valid range */
 860:Generated_Source\PSoC4/ADC.c ****         CYASSERT(chan < ADC_TOTAL_CHANNELS_NUM);
 1098              		.loc 1 860 0
 1099 0006 0428     		cmp	r0, #4
 1100 0008 02D9     		bls	.L87
 1101              		.loc 1 860 0 is_stmt 0 discriminator 1
 1102 000a 0020     		movs	r0, #0
 1103              	.LVL79:
 1104 000c FFF7FEFF 		bl	CyHalt
 1105              	.LVL80:
 1106              	.L87:
 861:Generated_Source\PSoC4/ADC.c **** 
 862:Generated_Source\PSoC4/ADC.c ****         /* Divide the adcCount when accumulate averaging mode selected */
 863:Generated_Source\PSoC4/ADC.c ****         #if(ADC_DEFAULT_AVG_MODE == ADC__ACCUMULATE)
 864:Generated_Source\PSoC4/ADC.c ****             if((ADC_channelsConfig[chan] & ADC_AVERAGING_EN) != 0u)
 865:Generated_Source\PSoC4/ADC.c ****             {
 866:Generated_Source\PSoC4/ADC.c ****                 adcCounts /= ADC_DEFAULT_AVG_SAMPLES_DIV;
 867:Generated_Source\PSoC4/ADC.c ****             }
 868:Generated_Source\PSoC4/ADC.c ****         #endif /* ADC_DEFAULT_AVG_MODE == ADC__ACCUMULATE */
 869:Generated_Source\PSoC4/ADC.c **** 
 870:Generated_Source\PSoC4/ADC.c ****         /* Subtract ADC offset */
 871:Generated_Source\PSoC4/ADC.c ****         adcCounts -= ADC_offset[chan];
 1107              		.loc 1 871 0 is_stmt 1
 1108 0010 6200     		lsls	r2, r4, #1
 1109 0012 0A4B     		ldr	r3, .L88
ARM GAS  C:\Users\Larry\AppData\Local\Temp\ccD8ijU7.s 			page 36


 1110 0014 D05A     		ldrh	r0, [r2, r3]
 1111 0016 00B2     		sxth	r0, r0
 1112 0018 281A     		subs	r0, r5, r0
 1113 001a 00B2     		sxth	r0, r0
 1114              	.LVL81:
 872:Generated_Source\PSoC4/ADC.c **** 
 873:Generated_Source\PSoC4/ADC.c ****         volts = ((float32)adcCounts * ADC_10V_COUNTS) / (float32)ADC_countsPer10Volt[chan];
 1115              		.loc 1 873 0
 1116 001c FFF7FEFF 		bl	__aeabi_i2f
 1117              	.LVL82:
 1118 0020 0749     		ldr	r1, .L88+4
 1119 0022 FFF7FEFF 		bl	__aeabi_fmul
 1120              	.LVL83:
 1121 0026 051C     		adds	r5, r0, #0
 1122 0028 A400     		lsls	r4, r4, #2
 1123              	.LVL84:
 1124 002a 064B     		ldr	r3, .L88+8
 1125 002c E058     		ldr	r0, [r4, r3]
 1126 002e FFF7FEFF 		bl	__aeabi_i2f
 1127              	.LVL85:
 1128 0032 011C     		adds	r1, r0, #0
 1129 0034 281C     		adds	r0, r5, #0
 1130 0036 FFF7FEFF 		bl	__aeabi_fdiv
 1131              	.LVL86:
 874:Generated_Source\PSoC4/ADC.c **** 
 875:Generated_Source\PSoC4/ADC.c ****         return( volts );
 876:Generated_Source\PSoC4/ADC.c ****     }
 1132              		.loc 1 876 0
 1133              		@ sp needed
 1134 003a 70BD     		pop	{r4, r5, r6, pc}
 1135              	.L89:
 1136              		.align	2
 1137              	.L88:
 1138 003c 00000000 		.word	ADC_offset
 1139 0040 00002041 		.word	1092616192
 1140 0044 00000000 		.word	ADC_countsPer10Volt
 1141              		.cfi_endproc
 1142              	.LFE19:
 1143              		.size	ADC_CountsTo_Volts, .-ADC_CountsTo_Volts
 1144              		.comm	ADC_countsPer10Volt,20,4
 1145              		.comm	ADC_offset,10,4
 1146              		.global	ADC_initVar
 1147              		.section	.rodata
 1148              		.align	2
 1149              		.set	.LANCHOR0,. + 0
 1150              		.type	ADC_channelsConfig, %object
 1151              		.size	ADC_channelsConfig, 20
 1152              	ADC_channelsConfig:
 1153 0000 00040000 		.word	1024
 1154 0004 00050000 		.word	1280
 1155 0008 00140000 		.word	5120
 1156 000c 00140000 		.word	5120
 1157 0010 00000000 		.word	0
 1158              		.type	ADC_InputsPlacement.4917, %object
 1159              		.size	ADC_InputsPlacement.4917, 5
 1160              	ADC_InputsPlacement.4917:
 1161 0014 01       		.byte	1
ARM GAS  C:\Users\Larry\AppData\Local\Temp\ccD8ijU7.s 			page 37


 1162 0015 02       		.byte	2
 1163 0016 13       		.byte	19
 1164 0017 12       		.byte	18
 1165 0018 70       		.byte	112
 1166              		.bss
 1167              		.set	.LANCHOR1,. + 0
 1168              		.type	ADC_initVar, %object
 1169              		.size	ADC_initVar, 1
 1170              	ADC_initVar:
 1171 0000 00       		.space	1
 1172              		.text
 1173              	.Letext0:
 1174              		.file 2 "Generated_Source\\PSoC4\\cytypes.h"
 1175              		.file 3 "Generated_Source\\PSoC4\\CyLib.h"