ARM GAS  C:\Users\Larry\AppData\Local\Temp\ccxlVo0w.s 			page 1


   1              		.syntax unified
   2              		.cpu cortex-m0
   3              		.fpu softvfp
   4              		.eabi_attribute 20, 1
   5              		.eabi_attribute 21, 1
   6              		.eabi_attribute 23, 3
   7              		.eabi_attribute 24, 1
   8              		.eabi_attribute 25, 1
   9              		.eabi_attribute 26, 1
  10              		.eabi_attribute 30, 1
  11              		.eabi_attribute 34, 0
  12              		.eabi_attribute 18, 4
  13              		.thumb
  14              		.syntax unified
  15              		.file	"cy_em_eeprom.c"
  16              		.text
  17              	.Ltext0:
  18              		.cfi_sections	.debug_frame
  19              		.section	.text.FindLastWrittenRow,"ax",%progbits
  20              		.align	2
  21              		.code	16
  22              		.thumb_func
  23              		.type	FindLastWrittenRow, %function
  24              	FindLastWrittenRow:
  25              	.LFB6:
  26              		.file 1 "Generated_Source\\PSoC4\\cy_em_eeprom.c"
   1:Generated_Source\PSoC4/cy_em_eeprom.c **** /***************************************************************************//**
   2:Generated_Source\PSoC4/cy_em_eeprom.c **** * \file cy_em_eeprom.c
   3:Generated_Source\PSoC4/cy_em_eeprom.c **** * \version 2.10
   4:Generated_Source\PSoC4/cy_em_eeprom.c **** *
   5:Generated_Source\PSoC4/cy_em_eeprom.c **** * \brief
   6:Generated_Source\PSoC4/cy_em_eeprom.c **** *  This file provides source code of the API for the Emulated EEPROM library.
   7:Generated_Source\PSoC4/cy_em_eeprom.c **** *  The Emulated EEPROM API allows creating of an emulated EEPROM in flash that
   8:Generated_Source\PSoC4/cy_em_eeprom.c **** *  has the ability to do wear leveling and restore corrupted data from a
   9:Generated_Source\PSoC4/cy_em_eeprom.c **** *  redundant copy.
  10:Generated_Source\PSoC4/cy_em_eeprom.c **** *
  11:Generated_Source\PSoC4/cy_em_eeprom.c **** ********************************************************************************
  12:Generated_Source\PSoC4/cy_em_eeprom.c **** * \copyright
  13:Generated_Source\PSoC4/cy_em_eeprom.c **** * Copyright 2017, Cypress Semiconductor Corporation.  All rights reserved.
  14:Generated_Source\PSoC4/cy_em_eeprom.c **** * You may use this file only in accordance with the license, terms, conditions,
  15:Generated_Source\PSoC4/cy_em_eeprom.c **** * disclaimers, and limitations in the end user license agreement accompanying
  16:Generated_Source\PSoC4/cy_em_eeprom.c **** * the software package with which this file was provided.
  17:Generated_Source\PSoC4/cy_em_eeprom.c **** *******************************************************************************/
  18:Generated_Source\PSoC4/cy_em_eeprom.c **** 
  19:Generated_Source\PSoC4/cy_em_eeprom.c **** 
  20:Generated_Source\PSoC4/cy_em_eeprom.c **** #include "cytypes.h"
  21:Generated_Source\PSoC4/cy_em_eeprom.c **** #include <string.h>
  22:Generated_Source\PSoC4/cy_em_eeprom.c **** 
  23:Generated_Source\PSoC4/cy_em_eeprom.c **** #if (CYDEV_CHIP_FAMILY_USED == CYDEV_CHIP_FAMILY_PSOC6)
  24:Generated_Source\PSoC4/cy_em_eeprom.c ****     #include "em_eeprom/cy_em_eeprom.h"
  25:Generated_Source\PSoC4/cy_em_eeprom.c **** #else
  26:Generated_Source\PSoC4/cy_em_eeprom.c ****     #include "cy_em_eeprom.h"
  27:Generated_Source\PSoC4/cy_em_eeprom.c **** #endif /* (CYDEV_CHIP_FAMILY_USED == CYDEV_CHIP_FAMILY_PSOC6) */
  28:Generated_Source\PSoC4/cy_em_eeprom.c **** 
  29:Generated_Source\PSoC4/cy_em_eeprom.c **** 
  30:Generated_Source\PSoC4/cy_em_eeprom.c **** #if defined(__cplusplus)
  31:Generated_Source\PSoC4/cy_em_eeprom.c **** extern "C" {
ARM GAS  C:\Users\Larry\AppData\Local\Temp\ccxlVo0w.s 			page 2


  32:Generated_Source\PSoC4/cy_em_eeprom.c **** #endif
  33:Generated_Source\PSoC4/cy_em_eeprom.c **** 
  34:Generated_Source\PSoC4/cy_em_eeprom.c **** 
  35:Generated_Source\PSoC4/cy_em_eeprom.c **** /***************************************
  36:Generated_Source\PSoC4/cy_em_eeprom.c **** * Private Function Prototypes
  37:Generated_Source\PSoC4/cy_em_eeprom.c **** ***************************************/
  38:Generated_Source\PSoC4/cy_em_eeprom.c **** static void FindLastWrittenRow(uint32 * lastWrRowPtr, cy_stc_eeprom_context_t * context);
  39:Generated_Source\PSoC4/cy_em_eeprom.c **** static uint32 GetRowAddrBySeqNum(uint32 seqNum, cy_stc_eeprom_context_t * context);
  40:Generated_Source\PSoC4/cy_em_eeprom.c **** static uint8 CalcChecksum(uint8 rowData[], uint32 len);
  41:Generated_Source\PSoC4/cy_em_eeprom.c **** static void GetNextRowToWrite(uint32 seqNum,
  42:Generated_Source\PSoC4/cy_em_eeprom.c ****                             uint32 * rowToWrPtr,
  43:Generated_Source\PSoC4/cy_em_eeprom.c ****                             uint32 * rowToRdPtr,
  44:Generated_Source\PSoC4/cy_em_eeprom.c ****                             cy_stc_eeprom_context_t * context);
  45:Generated_Source\PSoC4/cy_em_eeprom.c **** static cy_en_em_eeprom_status_t CheckRanges(cy_stc_eeprom_config_t* config);
  46:Generated_Source\PSoC4/cy_em_eeprom.c **** static cy_en_em_eeprom_status_t WriteRow(uint32 rowAddr, uint32 *rowData, cy_stc_eeprom_context_t *
  47:Generated_Source\PSoC4/cy_em_eeprom.c **** static cy_en_em_eeprom_status_t EraseRow(uint32 rowAddr, uint32 ramBuffAddr, cy_stc_eeprom_context_
  48:Generated_Source\PSoC4/cy_em_eeprom.c **** static cy_en_em_eeprom_status_t CheckCrcAndCopy(uint32 startAddr,
  49:Generated_Source\PSoC4/cy_em_eeprom.c ****                                                 uint32 dstAddr,
  50:Generated_Source\PSoC4/cy_em_eeprom.c ****                                                 uint32 rowOffset,
  51:Generated_Source\PSoC4/cy_em_eeprom.c ****                                                 uint32 numBytes,
  52:Generated_Source\PSoC4/cy_em_eeprom.c ****                                                 cy_stc_eeprom_context_t * context);
  53:Generated_Source\PSoC4/cy_em_eeprom.c **** static uint32 GetAddresses(uint32 *startAddr, uint32 *endAddr, uint32 *offset, uint32 rowNum, uint3
  54:Generated_Source\PSoC4/cy_em_eeprom.c **** static cy_en_em_eeprom_status_t FillChecksum(cy_stc_eeprom_context_t * context);
  55:Generated_Source\PSoC4/cy_em_eeprom.c **** 
  56:Generated_Source\PSoC4/cy_em_eeprom.c **** /**
  57:Generated_Source\PSoC4/cy_em_eeprom.c **** * \addtogroup group_em_eeprom_functions
  58:Generated_Source\PSoC4/cy_em_eeprom.c **** * \{
  59:Generated_Source\PSoC4/cy_em_eeprom.c **** */
  60:Generated_Source\PSoC4/cy_em_eeprom.c **** 
  61:Generated_Source\PSoC4/cy_em_eeprom.c **** /*******************************************************************************
  62:Generated_Source\PSoC4/cy_em_eeprom.c **** * Function Name: Cy_Em_EEPROM_Init
  63:Generated_Source\PSoC4/cy_em_eeprom.c **** ****************************************************************************//**
  64:Generated_Source\PSoC4/cy_em_eeprom.c **** *
  65:Generated_Source\PSoC4/cy_em_eeprom.c **** * Initializes the Emulated EEPROM library by filling the context structure. 
  66:Generated_Source\PSoC4/cy_em_eeprom.c **** *
  67:Generated_Source\PSoC4/cy_em_eeprom.c **** * \param config
  68:Generated_Source\PSoC4/cy_em_eeprom.c **** * The pointer to a configuration structure. See \ref cy_stc_eeprom_config_t.
  69:Generated_Source\PSoC4/cy_em_eeprom.c **** *
  70:Generated_Source\PSoC4/cy_em_eeprom.c **** * \param context
  71:Generated_Source\PSoC4/cy_em_eeprom.c **** * The pointer to the EEPROM context structure to be filled by the function.
  72:Generated_Source\PSoC4/cy_em_eeprom.c **** * \ref cy_stc_eeprom_context_t.
  73:Generated_Source\PSoC4/cy_em_eeprom.c **** *
  74:Generated_Source\PSoC4/cy_em_eeprom.c **** * \return
  75:Generated_Source\PSoC4/cy_em_eeprom.c **** * error / status code. See \ref cy_en_em_eeprom_status_t.
  76:Generated_Source\PSoC4/cy_em_eeprom.c **** *
  77:Generated_Source\PSoC4/cy_em_eeprom.c **** * \note
  78:Generated_Source\PSoC4/cy_em_eeprom.c **** * The context structure should not be modified by the user after it is filled
  79:Generated_Source\PSoC4/cy_em_eeprom.c **** * with this function. Modification of context structure may cause the 
  80:Generated_Source\PSoC4/cy_em_eeprom.c **** * unexpected behavior of the Cy_Em_EEPROM API functions which rely on it.
  81:Generated_Source\PSoC4/cy_em_eeprom.c **** *
  82:Generated_Source\PSoC4/cy_em_eeprom.c **** * \note
  83:Generated_Source\PSoC4/cy_em_eeprom.c **** * This function uses a buffer of the flash row size to perform read
  84:Generated_Source\PSoC4/cy_em_eeprom.c **** * operation. For the size of the row refer to the specific PSoC device
  85:Generated_Source\PSoC4/cy_em_eeprom.c **** * datasheet.
  86:Generated_Source\PSoC4/cy_em_eeprom.c **** *
  87:Generated_Source\PSoC4/cy_em_eeprom.c **** * \sideeffect 
  88:Generated_Source\PSoC4/cy_em_eeprom.c **** * If the "Redundant Copy" option is used, the function performs a number of 
ARM GAS  C:\Users\Larry\AppData\Local\Temp\ccxlVo0w.s 			page 3


  89:Generated_Source\PSoC4/cy_em_eeprom.c **** * write operations to the EEPROM to initialize flash rows checksums. Therefore,
  90:Generated_Source\PSoC4/cy_em_eeprom.c **** * Cy_Em_EEPROM_NumWrites(), when it is called right after Cy_Em_EEPROM_Init(), 
  91:Generated_Source\PSoC4/cy_em_eeprom.c **** * will return a non-zero value that identifies the number of writes performed 
  92:Generated_Source\PSoC4/cy_em_eeprom.c **** * by Cy_Em_EEPROM_Init().
  93:Generated_Source\PSoC4/cy_em_eeprom.c **** *
  94:Generated_Source\PSoC4/cy_em_eeprom.c **** *******************************************************************************/
  95:Generated_Source\PSoC4/cy_em_eeprom.c **** cy_en_em_eeprom_status_t Cy_Em_EEPROM_Init(cy_stc_eeprom_config_t* config, cy_stc_eeprom_context_t 
  96:Generated_Source\PSoC4/cy_em_eeprom.c **** {
  97:Generated_Source\PSoC4/cy_em_eeprom.c ****     cy_en_em_eeprom_status_t ret = CY_EM_EEPROM_BAD_PARAM;
  98:Generated_Source\PSoC4/cy_em_eeprom.c **** 
  99:Generated_Source\PSoC4/cy_em_eeprom.c ****     if((NULL != context) && (NULL != config) && (NULL != ((uint32 *)config->userFlashStartAddr)) &&
 100:Generated_Source\PSoC4/cy_em_eeprom.c ****         (config->wearLevelingFactor <= CY_EM_EEPROM_MAX_WEAR_LEVELING_FACTOR) && (config->eepromSiz
 101:Generated_Source\PSoC4/cy_em_eeprom.c ****     {
 102:Generated_Source\PSoC4/cy_em_eeprom.c ****         ret = CheckRanges(config);
 103:Generated_Source\PSoC4/cy_em_eeprom.c **** 
 104:Generated_Source\PSoC4/cy_em_eeprom.c ****         if(CY_EM_EEPROM_SUCCESS == ret)
 105:Generated_Source\PSoC4/cy_em_eeprom.c ****         {
 106:Generated_Source\PSoC4/cy_em_eeprom.c ****             /* Copy the user config structure fields into context */
 107:Generated_Source\PSoC4/cy_em_eeprom.c ****             context->eepromSize = config->eepromSize;
 108:Generated_Source\PSoC4/cy_em_eeprom.c ****             context->wearLevelingFactor = config->wearLevelingFactor;
 109:Generated_Source\PSoC4/cy_em_eeprom.c ****             context->redundantCopy = config->redundantCopy;
 110:Generated_Source\PSoC4/cy_em_eeprom.c ****             context->blockingWrite = config->blockingWrite;
 111:Generated_Source\PSoC4/cy_em_eeprom.c ****             context->userFlashStartAddr = config->userFlashStartAddr;
 112:Generated_Source\PSoC4/cy_em_eeprom.c ****             /* Store frequently used data for internal use */
 113:Generated_Source\PSoC4/cy_em_eeprom.c ****             context->numberOfRows = CY_EM_EEPROM_GET_NUM_ROWS_IN_EEPROM(config->eepromSize);
 114:Generated_Source\PSoC4/cy_em_eeprom.c ****             context->wlEndAddr = ((CY_EM_EEPROM_GET_EEPROM_SIZE(context->numberOfRows) * config->we
 115:Generated_Source\PSoC4/cy_em_eeprom.c ****                     config->userFlashStartAddr);
 116:Generated_Source\PSoC4/cy_em_eeprom.c ****             /* Find last written EEPROM row and store it for quick access */
 117:Generated_Source\PSoC4/cy_em_eeprom.c ****             FindLastWrittenRow(&context->lastWrRowAddr, context);
 118:Generated_Source\PSoC4/cy_em_eeprom.c **** 
 119:Generated_Source\PSoC4/cy_em_eeprom.c ****             if((0u == CY_EM_EEPROM_GET_SEQ_NUM(context->lastWrRowAddr)) && (0u != context->redundan
 120:Generated_Source\PSoC4/cy_em_eeprom.c ****             {
 121:Generated_Source\PSoC4/cy_em_eeprom.c ****                 /* Call the function only after device reprogramming in case
 122:Generated_Source\PSoC4/cy_em_eeprom.c ****                 * if redundant copy is enabled.
 123:Generated_Source\PSoC4/cy_em_eeprom.c ****                 */
 124:Generated_Source\PSoC4/cy_em_eeprom.c ****                 ret = FillChecksum(context);
 125:Generated_Source\PSoC4/cy_em_eeprom.c ****                 
 126:Generated_Source\PSoC4/cy_em_eeprom.c ****                 /* Update the last written EEPROM row for Cy_Em_EEPROM_NumWrites() */
 127:Generated_Source\PSoC4/cy_em_eeprom.c ****                 FindLastWrittenRow(&context->lastWrRowAddr, context);
 128:Generated_Source\PSoC4/cy_em_eeprom.c ****             }
 129:Generated_Source\PSoC4/cy_em_eeprom.c ****         }
 130:Generated_Source\PSoC4/cy_em_eeprom.c ****     }
 131:Generated_Source\PSoC4/cy_em_eeprom.c **** 
 132:Generated_Source\PSoC4/cy_em_eeprom.c ****     return(ret);
 133:Generated_Source\PSoC4/cy_em_eeprom.c **** }
 134:Generated_Source\PSoC4/cy_em_eeprom.c **** 
 135:Generated_Source\PSoC4/cy_em_eeprom.c **** 
 136:Generated_Source\PSoC4/cy_em_eeprom.c **** /*******************************************************************************
 137:Generated_Source\PSoC4/cy_em_eeprom.c **** * Function Name: Cy_Em_EEPROM_Read
 138:Generated_Source\PSoC4/cy_em_eeprom.c **** ****************************************************************************//**
 139:Generated_Source\PSoC4/cy_em_eeprom.c **** *
 140:Generated_Source\PSoC4/cy_em_eeprom.c **** * This function takes the logical EEPROM address, converts it to the actual
 141:Generated_Source\PSoC4/cy_em_eeprom.c **** * physical address where the data is stored and returns the data to the user.
 142:Generated_Source\PSoC4/cy_em_eeprom.c **** *
 143:Generated_Source\PSoC4/cy_em_eeprom.c **** * \param addr
 144:Generated_Source\PSoC4/cy_em_eeprom.c **** * The logical start address in EEPROM to start reading data from.
 145:Generated_Source\PSoC4/cy_em_eeprom.c **** *
ARM GAS  C:\Users\Larry\AppData\Local\Temp\ccxlVo0w.s 			page 4


 146:Generated_Source\PSoC4/cy_em_eeprom.c **** * \param eepromData
 147:Generated_Source\PSoC4/cy_em_eeprom.c **** * The pointer to a user array to write data to.
 148:Generated_Source\PSoC4/cy_em_eeprom.c **** *
 149:Generated_Source\PSoC4/cy_em_eeprom.c **** * \param size
 150:Generated_Source\PSoC4/cy_em_eeprom.c **** * The amount of data to read.
 151:Generated_Source\PSoC4/cy_em_eeprom.c **** *
 152:Generated_Source\PSoC4/cy_em_eeprom.c **** * \param context
 153:Generated_Source\PSoC4/cy_em_eeprom.c **** * The pointer to the EEPROM context structure \ref cy_stc_eeprom_context_t.
 154:Generated_Source\PSoC4/cy_em_eeprom.c **** *
 155:Generated_Source\PSoC4/cy_em_eeprom.c **** * \return
 156:Generated_Source\PSoC4/cy_em_eeprom.c **** * This function returns \ref cy_en_em_eeprom_status_t.
 157:Generated_Source\PSoC4/cy_em_eeprom.c **** *
 158:Generated_Source\PSoC4/cy_em_eeprom.c **** * \note
 159:Generated_Source\PSoC4/cy_em_eeprom.c **** * This function uses a buffer of the flash row size to perform read
 160:Generated_Source\PSoC4/cy_em_eeprom.c **** * operation. For the size of the row refer to the specific PSoC device
 161:Generated_Source\PSoC4/cy_em_eeprom.c **** * datasheet.
 162:Generated_Source\PSoC4/cy_em_eeprom.c **** *
 163:Generated_Source\PSoC4/cy_em_eeprom.c **** * \note
 164:Generated_Source\PSoC4/cy_em_eeprom.c **** * In case if redundant copy option is enabled the function may perform writes
 165:Generated_Source\PSoC4/cy_em_eeprom.c **** * to EEPROM. This is done in case if the data in the EEPPROM is corrupted and
 166:Generated_Source\PSoC4/cy_em_eeprom.c **** * the data in redundant copy is valid based on CRC-8 data integrity check.
 167:Generated_Source\PSoC4/cy_em_eeprom.c **** *
 168:Generated_Source\PSoC4/cy_em_eeprom.c **** *******************************************************************************/
 169:Generated_Source\PSoC4/cy_em_eeprom.c **** cy_en_em_eeprom_status_t Cy_Em_EEPROM_Read(uint32 addr, 
 170:Generated_Source\PSoC4/cy_em_eeprom.c ****                                         void * eepromData, 
 171:Generated_Source\PSoC4/cy_em_eeprom.c ****                                         uint32 size,
 172:Generated_Source\PSoC4/cy_em_eeprom.c ****                                         cy_stc_eeprom_context_t * context)
 173:Generated_Source\PSoC4/cy_em_eeprom.c **** {
 174:Generated_Source\PSoC4/cy_em_eeprom.c ****     cy_en_em_eeprom_status_t ret = CY_EM_EEPROM_BAD_PARAM;
 175:Generated_Source\PSoC4/cy_em_eeprom.c ****     uint32 i;
 176:Generated_Source\PSoC4/cy_em_eeprom.c ****     uint32 numBytesToRead;
 177:Generated_Source\PSoC4/cy_em_eeprom.c ****     uint32 curEepromBaseAddr;
 178:Generated_Source\PSoC4/cy_em_eeprom.c ****     uint32 curRowOffset;
 179:Generated_Source\PSoC4/cy_em_eeprom.c ****     uint32 startRowAddr;
 180:Generated_Source\PSoC4/cy_em_eeprom.c ****     uint32 actEepromRowNum;
 181:Generated_Source\PSoC4/cy_em_eeprom.c ****     uint32 curRdEepromRowNum = 0u;
 182:Generated_Source\PSoC4/cy_em_eeprom.c ****     uint32 dataStartEepromRowNum = 0u;
 183:Generated_Source\PSoC4/cy_em_eeprom.c ****     uint32 eeData = (uint32) eepromData; /* To avoid the pointer arithmetic with void */
 184:Generated_Source\PSoC4/cy_em_eeprom.c **** 
 185:Generated_Source\PSoC4/cy_em_eeprom.c ****     /* Validate input parameters */
 186:Generated_Source\PSoC4/cy_em_eeprom.c ****     if((0u != size) && ((addr + size) <= (context->eepromSize)) && (NULL != eepromData))
 187:Generated_Source\PSoC4/cy_em_eeprom.c ****     {
 188:Generated_Source\PSoC4/cy_em_eeprom.c ****         uint32 rdAddr = addr;
 189:Generated_Source\PSoC4/cy_em_eeprom.c ****         uint32 rdSize = size;
 190:Generated_Source\PSoC4/cy_em_eeprom.c ****         /* Get the sequence number of the last written row */
 191:Generated_Source\PSoC4/cy_em_eeprom.c ****         uint32 seqNum = CY_EM_EEPROM_GET_SEQ_NUM(context->lastWrRowAddr);
 192:Generated_Source\PSoC4/cy_em_eeprom.c ****         uint32 updateAddrFlag = 0u;
 193:Generated_Source\PSoC4/cy_em_eeprom.c **** 
 194:Generated_Source\PSoC4/cy_em_eeprom.c ****         /* Calculate the number of the row read operations. Currently this only concerns
 195:Generated_Source\PSoC4/cy_em_eeprom.c ****         * the reads from the EEPROM data locations.
 196:Generated_Source\PSoC4/cy_em_eeprom.c ****         */
 197:Generated_Source\PSoC4/cy_em_eeprom.c ****         uint32 numRowReads = ((((rdAddr + rdSize) - 1u) / CY_EM_EEPROM_EEPROM_DATA_LEN) -
 198:Generated_Source\PSoC4/cy_em_eeprom.c ****                               (rdAddr / CY_EM_EEPROM_EEPROM_DATA_LEN)) + 1u;
 199:Generated_Source\PSoC4/cy_em_eeprom.c **** 
 200:Generated_Source\PSoC4/cy_em_eeprom.c ****         /* Get the address of the first row of the currently active EEPROM sector. If
 201:Generated_Source\PSoC4/cy_em_eeprom.c ****         * no wear leveling is used - the EEPROM has only one sector, so use the base
 202:Generated_Source\PSoC4/cy_em_eeprom.c ****         * addr stored in "context->userFlashStartAddr".
ARM GAS  C:\Users\Larry\AppData\Local\Temp\ccxlVo0w.s 			page 5


 203:Generated_Source\PSoC4/cy_em_eeprom.c ****         */
 204:Generated_Source\PSoC4/cy_em_eeprom.c ****         curEepromBaseAddr = (((context->lastWrRowAddr - context->userFlashStartAddr) /
 205:Generated_Source\PSoC4/cy_em_eeprom.c ****                               (CY_EM_EEPROM_FLASH_SIZEOF_ROW * context->numberOfRows)) *
 206:Generated_Source\PSoC4/cy_em_eeprom.c ****                               (CY_EM_EEPROM_FLASH_SIZEOF_ROW * context->numberOfRows)) +
 207:Generated_Source\PSoC4/cy_em_eeprom.c ****                                context->userFlashStartAddr;
 208:Generated_Source\PSoC4/cy_em_eeprom.c **** 
 209:Generated_Source\PSoC4/cy_em_eeprom.c ****         /* Find the number of the row that contains the start address of the data */
 210:Generated_Source\PSoC4/cy_em_eeprom.c ****         for(i = 0u; i < context->numberOfRows; i++)
 211:Generated_Source\PSoC4/cy_em_eeprom.c ****         {
 212:Generated_Source\PSoC4/cy_em_eeprom.c ****             if(0u != CY_EM_EEPROM_IS_ADDR_IN_ROW_RANGE(rdAddr, i))
 213:Generated_Source\PSoC4/cy_em_eeprom.c ****             {
 214:Generated_Source\PSoC4/cy_em_eeprom.c ****                 dataStartEepromRowNum = i;
 215:Generated_Source\PSoC4/cy_em_eeprom.c ****                 curRdEepromRowNum = dataStartEepromRowNum;
 216:Generated_Source\PSoC4/cy_em_eeprom.c ****                 break;
 217:Generated_Source\PSoC4/cy_em_eeprom.c ****             }
 218:Generated_Source\PSoC4/cy_em_eeprom.c ****         }
 219:Generated_Source\PSoC4/cy_em_eeprom.c **** 
 220:Generated_Source\PSoC4/cy_em_eeprom.c ****         /* Find the row number of the last written row */
 221:Generated_Source\PSoC4/cy_em_eeprom.c ****         actEepromRowNum = (context->lastWrRowAddr - curEepromBaseAddr) / CY_EM_EEPROM_FLASH_SIZEOF_
 222:Generated_Source\PSoC4/cy_em_eeprom.c **** 
 223:Generated_Source\PSoC4/cy_em_eeprom.c ****         /* Check if wear leveling is used */
 224:Generated_Source\PSoC4/cy_em_eeprom.c ****         if(context->wearLevelingFactor > 1u)
 225:Generated_Source\PSoC4/cy_em_eeprom.c ****         {
 226:Generated_Source\PSoC4/cy_em_eeprom.c ****             uint32 dataEndEepromRowNum = dataStartEepromRowNum + (numRowReads - 1u);
 227:Generated_Source\PSoC4/cy_em_eeprom.c **** 
 228:Generated_Source\PSoC4/cy_em_eeprom.c ****             /* Check if the future validation of the read address is required. */
 229:Generated_Source\PSoC4/cy_em_eeprom.c ****             updateAddrFlag = (dataStartEepromRowNum > actEepromRowNum) ? 1u :
 230:Generated_Source\PSoC4/cy_em_eeprom.c ****                               ((dataEndEepromRowNum > actEepromRowNum) ? 1u : 0u);
 231:Generated_Source\PSoC4/cy_em_eeprom.c ****         }
 232:Generated_Source\PSoC4/cy_em_eeprom.c **** 
 233:Generated_Source\PSoC4/cy_em_eeprom.c ****         /* Copy data from the EEPROM data locations to the user buffer */
 234:Generated_Source\PSoC4/cy_em_eeprom.c ****         for(i = 0u; i < numRowReads; i++)
 235:Generated_Source\PSoC4/cy_em_eeprom.c ****         {
 236:Generated_Source\PSoC4/cy_em_eeprom.c ****             startRowAddr = curEepromBaseAddr + (curRdEepromRowNum * CY_EM_EEPROM_FLASH_SIZEOF_ROW);
 237:Generated_Source\PSoC4/cy_em_eeprom.c ****             curRowOffset = CY_EM_EEPROM_EEPROM_DATA_LEN + (rdAddr % CY_EM_EEPROM_EEPROM_DATA_LEN);
 238:Generated_Source\PSoC4/cy_em_eeprom.c **** 
 239:Generated_Source\PSoC4/cy_em_eeprom.c ****             /* Check if there are more reads pending and update the number of the
 240:Generated_Source\PSoC4/cy_em_eeprom.c ****             * remaining bytes to read respectively.
 241:Generated_Source\PSoC4/cy_em_eeprom.c ****             */
 242:Generated_Source\PSoC4/cy_em_eeprom.c ****             if((i + 1u) < numRowReads)
 243:Generated_Source\PSoC4/cy_em_eeprom.c ****             {
 244:Generated_Source\PSoC4/cy_em_eeprom.c ****                 numBytesToRead = CY_EM_EEPROM_EEPROM_DATA_LEN - (rdAddr % CY_EM_EEPROM_EEPROM_DATA_
 245:Generated_Source\PSoC4/cy_em_eeprom.c ****             }
 246:Generated_Source\PSoC4/cy_em_eeprom.c ****             else
 247:Generated_Source\PSoC4/cy_em_eeprom.c ****             {
 248:Generated_Source\PSoC4/cy_em_eeprom.c ****                 numBytesToRead = rdSize;
 249:Generated_Source\PSoC4/cy_em_eeprom.c ****             }
 250:Generated_Source\PSoC4/cy_em_eeprom.c **** 
 251:Generated_Source\PSoC4/cy_em_eeprom.c ****             /* Check if the read address needs to be updated to point to the correct
 252:Generated_Source\PSoC4/cy_em_eeprom.c ****             * EEPROM sector.
 253:Generated_Source\PSoC4/cy_em_eeprom.c ****             */
 254:Generated_Source\PSoC4/cy_em_eeprom.c ****             if((0u != updateAddrFlag) && (curRdEepromRowNum > actEepromRowNum))
 255:Generated_Source\PSoC4/cy_em_eeprom.c ****             {
 256:Generated_Source\PSoC4/cy_em_eeprom.c ****                 startRowAddr -= context->numberOfRows * CY_EM_EEPROM_FLASH_SIZEOF_ROW;
 257:Generated_Source\PSoC4/cy_em_eeprom.c **** 
 258:Generated_Source\PSoC4/cy_em_eeprom.c ****                 if(startRowAddr < context->userFlashStartAddr)
 259:Generated_Source\PSoC4/cy_em_eeprom.c ****                 {
ARM GAS  C:\Users\Larry\AppData\Local\Temp\ccxlVo0w.s 			page 6


 260:Generated_Source\PSoC4/cy_em_eeprom.c ****                     startRowAddr = context->wlEndAddr -
 261:Generated_Source\PSoC4/cy_em_eeprom.c ****                         ((context->numberOfRows - curRdEepromRowNum) * CY_EM_EEPROM_FLASH_SIZEOF_RO
 262:Generated_Source\PSoC4/cy_em_eeprom.c ****                 }
 263:Generated_Source\PSoC4/cy_em_eeprom.c ****             }
 264:Generated_Source\PSoC4/cy_em_eeprom.c **** 
 265:Generated_Source\PSoC4/cy_em_eeprom.c ****             if(0u != context->redundantCopy)
 266:Generated_Source\PSoC4/cy_em_eeprom.c ****             {
 267:Generated_Source\PSoC4/cy_em_eeprom.c ****                 /* Check a checksum of the EEPROM row and if it is bad, check a checksum in
 268:Generated_Source\PSoC4/cy_em_eeprom.c ****                 * the corresponding row in redundant copy, otherwise return failure.
 269:Generated_Source\PSoC4/cy_em_eeprom.c ****                 */
 270:Generated_Source\PSoC4/cy_em_eeprom.c ****                 ret = CheckCrcAndCopy(startRowAddr, eeData, curRowOffset, numBytesToRead, context);
 271:Generated_Source\PSoC4/cy_em_eeprom.c **** 
 272:Generated_Source\PSoC4/cy_em_eeprom.c ****                 if(CY_EM_EEPROM_SUCCESS != ret)
 273:Generated_Source\PSoC4/cy_em_eeprom.c ****                 {
 274:Generated_Source\PSoC4/cy_em_eeprom.c ****                     break;
 275:Generated_Source\PSoC4/cy_em_eeprom.c ****                 }
 276:Generated_Source\PSoC4/cy_em_eeprom.c ****             }
 277:Generated_Source\PSoC4/cy_em_eeprom.c ****             else
 278:Generated_Source\PSoC4/cy_em_eeprom.c ****             {
 279:Generated_Source\PSoC4/cy_em_eeprom.c ****                 /* Copy the data to the user buffer */
 280:Generated_Source\PSoC4/cy_em_eeprom.c ****                 (void)memcpy((void *)(eeData),
 281:Generated_Source\PSoC4/cy_em_eeprom.c ****                              (void *)(startRowAddr + curRowOffset),
 282:Generated_Source\PSoC4/cy_em_eeprom.c ****                              numBytesToRead);
 283:Generated_Source\PSoC4/cy_em_eeprom.c **** 
 284:Generated_Source\PSoC4/cy_em_eeprom.c ****                 /* Indicate success to be able to execute next code block */
 285:Generated_Source\PSoC4/cy_em_eeprom.c ****                 ret = CY_EM_EEPROM_SUCCESS;
 286:Generated_Source\PSoC4/cy_em_eeprom.c ****             }
 287:Generated_Source\PSoC4/cy_em_eeprom.c **** 
 288:Generated_Source\PSoC4/cy_em_eeprom.c ****             /* Update variables anticipated in the read operation */
 289:Generated_Source\PSoC4/cy_em_eeprom.c ****             rdAddr += numBytesToRead;
 290:Generated_Source\PSoC4/cy_em_eeprom.c ****             rdSize -= numBytesToRead;
 291:Generated_Source\PSoC4/cy_em_eeprom.c ****             eeData += numBytesToRead;
 292:Generated_Source\PSoC4/cy_em_eeprom.c ****             curRdEepromRowNum++;
 293:Generated_Source\PSoC4/cy_em_eeprom.c ****         }
 294:Generated_Source\PSoC4/cy_em_eeprom.c **** 
 295:Generated_Source\PSoC4/cy_em_eeprom.c ****         /* This code block will copy the latest data from the EEPROM headers into the
 296:Generated_Source\PSoC4/cy_em_eeprom.c ****         * user buffer. The data previously copied into the user buffer may be updated
 297:Generated_Source\PSoC4/cy_em_eeprom.c ****         * as the EEPROM headers contain more recent data. 
 298:Generated_Source\PSoC4/cy_em_eeprom.c ****         * The code block is executed when two following conditions are true:
 299:Generated_Source\PSoC4/cy_em_eeprom.c ****         *  1) The reads from "historic" data locations were successful;
 300:Generated_Source\PSoC4/cy_em_eeprom.c ****         *  2) The user performed at least one write operation to Em_EEPROM (0u !=
 301:Generated_Source\PSoC4/cy_em_eeprom.c ****         *     seqNum).        
 302:Generated_Source\PSoC4/cy_em_eeprom.c ****         */
 303:Generated_Source\PSoC4/cy_em_eeprom.c ****         if((CY_EM_EEPROM_SUCCESS == ret) && (0u != seqNum))
 304:Generated_Source\PSoC4/cy_em_eeprom.c ****         {
 305:Generated_Source\PSoC4/cy_em_eeprom.c ****             numRowReads = (context->numberOfRows <= seqNum) ? (context->numberOfRows) : (seqNum);
 306:Generated_Source\PSoC4/cy_em_eeprom.c ****             numRowReads--;
 307:Generated_Source\PSoC4/cy_em_eeprom.c **** 
 308:Generated_Source\PSoC4/cy_em_eeprom.c ****             for(i = (seqNum - numRowReads); i <= seqNum; i++)
 309:Generated_Source\PSoC4/cy_em_eeprom.c ****             {
 310:Generated_Source\PSoC4/cy_em_eeprom.c ****                 startRowAddr = GetRowAddrBySeqNum(i, context);
 311:Generated_Source\PSoC4/cy_em_eeprom.c **** 
 312:Generated_Source\PSoC4/cy_em_eeprom.c ****                 if (0u != startRowAddr)
 313:Generated_Source\PSoC4/cy_em_eeprom.c ****                 {
 314:Generated_Source\PSoC4/cy_em_eeprom.c ****                     /* The following variables are introduced to increase code readability. */
 315:Generated_Source\PSoC4/cy_em_eeprom.c ****                     uint32 startAddr  = *(uint32 *)(startRowAddr + CY_EM_EEPROM_HEADER_ADDR_OFFSET)
 316:Generated_Source\PSoC4/cy_em_eeprom.c ****                     uint32 endAddr    = startAddr + (*(uint32 *)(startRowAddr + CY_EM_EEPROM_HEADER
ARM GAS  C:\Users\Larry\AppData\Local\Temp\ccxlVo0w.s 			page 7


 317:Generated_Source\PSoC4/cy_em_eeprom.c **** 
 318:Generated_Source\PSoC4/cy_em_eeprom.c ****                     /* Check if the current row EEPROM header contains the data requested for read 
 319:Generated_Source\PSoC4/cy_em_eeprom.c ****                     if(0u != CY_EM_EEPROM_IS_ADDRESES_CROSSING(startAddr, endAddr, addr, addr + siz
 320:Generated_Source\PSoC4/cy_em_eeprom.c ****                     {
 321:Generated_Source\PSoC4/cy_em_eeprom.c ****                         uint32 srcOffset = (startAddr > addr) ? (0u) : (addr - startAddr);
 322:Generated_Source\PSoC4/cy_em_eeprom.c ****                         uint32 dstOffset = (startAddr > addr) ? (startAddr - addr): (0u);
 323:Generated_Source\PSoC4/cy_em_eeprom.c ****                         rdAddr = (startAddr > addr) ? (startAddr) : (addr);
 324:Generated_Source\PSoC4/cy_em_eeprom.c **** 
 325:Generated_Source\PSoC4/cy_em_eeprom.c ****                         srcOffset += CY_EM_EEPROM_HEADER_DATA_OFFSET;
 326:Generated_Source\PSoC4/cy_em_eeprom.c **** 
 327:Generated_Source\PSoC4/cy_em_eeprom.c ****                         /* Calculate the number of bytes to be read from the current row's EEPROM h
 328:Generated_Source\PSoC4/cy_em_eeprom.c ****                         numBytesToRead = ((endAddr < (addr + size)) ? endAddr : (addr + size)) - rd
 329:Generated_Source\PSoC4/cy_em_eeprom.c **** 
 330:Generated_Source\PSoC4/cy_em_eeprom.c ****                         /* Calculate the offset in the user buffer from which the data will be upda
 331:Generated_Source\PSoC4/cy_em_eeprom.c ****                         eeData = ((uint32)eepromData) + dstOffset;
 332:Generated_Source\PSoC4/cy_em_eeprom.c **** 
 333:Generated_Source\PSoC4/cy_em_eeprom.c ****                         /* Check a checksum of the EEPROM row and if it is bad, check a checksum in
 334:Generated_Source\PSoC4/cy_em_eeprom.c ****                         * corresponding row in redundant copy, otherwise return failure. Copy the d
 335:Generated_Source\PSoC4/cy_em_eeprom.c ****                         * from the recent EEPROM headers to the user buffer. This will overwrite th
 336:Generated_Source\PSoC4/cy_em_eeprom.c ****                         * data copied form EEPROM data locations as the data in EEPROM headers is n
 337:Generated_Source\PSoC4/cy_em_eeprom.c ****                         */
 338:Generated_Source\PSoC4/cy_em_eeprom.c ****                         if(0u != context->redundantCopy)
 339:Generated_Source\PSoC4/cy_em_eeprom.c ****                         {
 340:Generated_Source\PSoC4/cy_em_eeprom.c ****                             ret = CheckCrcAndCopy(startRowAddr, eeData, srcOffset, numBytesToRead, 
 341:Generated_Source\PSoC4/cy_em_eeprom.c **** 
 342:Generated_Source\PSoC4/cy_em_eeprom.c ****                             if(CY_EM_EEPROM_SUCCESS != ret)
 343:Generated_Source\PSoC4/cy_em_eeprom.c ****                             {
 344:Generated_Source\PSoC4/cy_em_eeprom.c ****                                 break;
 345:Generated_Source\PSoC4/cy_em_eeprom.c ****                             }
 346:Generated_Source\PSoC4/cy_em_eeprom.c ****                         }
 347:Generated_Source\PSoC4/cy_em_eeprom.c ****                         else
 348:Generated_Source\PSoC4/cy_em_eeprom.c ****                         {
 349:Generated_Source\PSoC4/cy_em_eeprom.c ****                             (void)memcpy((void *)(eeData), (void *)(startRowAddr + srcOffset), numB
 350:Generated_Source\PSoC4/cy_em_eeprom.c ****                         }
 351:Generated_Source\PSoC4/cy_em_eeprom.c ****                     }
 352:Generated_Source\PSoC4/cy_em_eeprom.c ****                 }
 353:Generated_Source\PSoC4/cy_em_eeprom.c ****             }
 354:Generated_Source\PSoC4/cy_em_eeprom.c ****         }
 355:Generated_Source\PSoC4/cy_em_eeprom.c ****     }
 356:Generated_Source\PSoC4/cy_em_eeprom.c **** 
 357:Generated_Source\PSoC4/cy_em_eeprom.c ****     return(ret);
 358:Generated_Source\PSoC4/cy_em_eeprom.c **** }
 359:Generated_Source\PSoC4/cy_em_eeprom.c **** 
 360:Generated_Source\PSoC4/cy_em_eeprom.c **** 
 361:Generated_Source\PSoC4/cy_em_eeprom.c **** /*******************************************************************************
 362:Generated_Source\PSoC4/cy_em_eeprom.c **** * Function Name: Cy_Em_EEPROM_Write
 363:Generated_Source\PSoC4/cy_em_eeprom.c **** ****************************************************************************//**
 364:Generated_Source\PSoC4/cy_em_eeprom.c **** *
 365:Generated_Source\PSoC4/cy_em_eeprom.c **** * This function takes the logical EEPROM address and converts it to the actual
 366:Generated_Source\PSoC4/cy_em_eeprom.c **** * physical address and writes data there. If wear leveling is implemented, the
 367:Generated_Source\PSoC4/cy_em_eeprom.c **** * writing process will use the wear leveling techniques. This is a blocking
 368:Generated_Source\PSoC4/cy_em_eeprom.c **** * function and it does not return until the write operation is completed. The
 369:Generated_Source\PSoC4/cy_em_eeprom.c **** * user firmware should not enter Hibernate mode until write is completed. The
 370:Generated_Source\PSoC4/cy_em_eeprom.c **** * write operation is allowed in Sleep and Deep-Sleep modes. During the flash
 371:Generated_Source\PSoC4/cy_em_eeprom.c **** * operation, the device should not be reset, including the XRES pin, a software
 372:Generated_Source\PSoC4/cy_em_eeprom.c **** * reset, and watchdog reset sources. Also, low-voltage detect circuits should
 373:Generated_Source\PSoC4/cy_em_eeprom.c **** * be configured to generate an interrupt instead of a reset. Otherwise, portions
ARM GAS  C:\Users\Larry\AppData\Local\Temp\ccxlVo0w.s 			page 8


 374:Generated_Source\PSoC4/cy_em_eeprom.c **** * of flash may undergo unexpected changes.
 375:Generated_Source\PSoC4/cy_em_eeprom.c **** *
 376:Generated_Source\PSoC4/cy_em_eeprom.c **** * \param addr
 377:Generated_Source\PSoC4/cy_em_eeprom.c **** * The logical start address in EEPROM to start writing data from.
 378:Generated_Source\PSoC4/cy_em_eeprom.c **** *
 379:Generated_Source\PSoC4/cy_em_eeprom.c **** * \param eepromData
 380:Generated_Source\PSoC4/cy_em_eeprom.c **** * Data to write to EEPROM.
 381:Generated_Source\PSoC4/cy_em_eeprom.c **** *
 382:Generated_Source\PSoC4/cy_em_eeprom.c **** * \param size
 383:Generated_Source\PSoC4/cy_em_eeprom.c **** * The amount of data to write to EEPROM.
 384:Generated_Source\PSoC4/cy_em_eeprom.c **** *
 385:Generated_Source\PSoC4/cy_em_eeprom.c **** * \param context
 386:Generated_Source\PSoC4/cy_em_eeprom.c **** * The pointer to the EEPROM context structure \ref cy_stc_eeprom_context_t.
 387:Generated_Source\PSoC4/cy_em_eeprom.c **** *
 388:Generated_Source\PSoC4/cy_em_eeprom.c **** * \return
 389:Generated_Source\PSoC4/cy_em_eeprom.c **** * This function returns \ref cy_en_em_eeprom_status_t.
 390:Generated_Source\PSoC4/cy_em_eeprom.c **** *
 391:Generated_Source\PSoC4/cy_em_eeprom.c **** * \note
 392:Generated_Source\PSoC4/cy_em_eeprom.c **** * This function uses a buffer of the flash row size to perform write
 393:Generated_Source\PSoC4/cy_em_eeprom.c **** * operation. For the size of the row refer to the specific PSoC device
 394:Generated_Source\PSoC4/cy_em_eeprom.c **** * datasheet.
 395:Generated_Source\PSoC4/cy_em_eeprom.c **** *
 396:Generated_Source\PSoC4/cy_em_eeprom.c **** * \sideeffect
 397:Generated_Source\PSoC4/cy_em_eeprom.c **** * In case when blocking write option is used, if this function is called by
 398:Generated_Source\PSoC4/cy_em_eeprom.c **** * the CM4 the user code on CM0P and the user code on CM4 are blocked until erase
 399:Generated_Source\PSoC4/cy_em_eeprom.c **** * flash row operation is finished. If this function is called by the CM0P the
 400:Generated_Source\PSoC4/cy_em_eeprom.c **** * user code on CM4 is not blocked and the user code on CM0P is blocked until
 401:Generated_Source\PSoC4/cy_em_eeprom.c **** * erase flash row operation is finished. Plan your task allocation accordingly.
 402:Generated_Source\PSoC4/cy_em_eeprom.c **** *
 403:Generated_Source\PSoC4/cy_em_eeprom.c **** * \sideeffect
 404:Generated_Source\PSoC4/cy_em_eeprom.c **** * In case if non-blocking write option is used and when user flash is used as
 405:Generated_Source\PSoC4/cy_em_eeprom.c **** * an EEPROM storage care should be taken to prevent the read while write (RWW)
 406:Generated_Source\PSoC4/cy_em_eeprom.c **** * exception. To prevent the RWW exception the user flash macro that includes
 407:Generated_Source\PSoC4/cy_em_eeprom.c **** * the EEPROM storage should not be read while the EEPROM write is not completed.
 408:Generated_Source\PSoC4/cy_em_eeprom.c **** * The read also means the user code execution from the respective flash macro.
 409:Generated_Source\PSoC4/cy_em_eeprom.c **** *
 410:Generated_Source\PSoC4/cy_em_eeprom.c **** *******************************************************************************/
 411:Generated_Source\PSoC4/cy_em_eeprom.c **** cy_en_em_eeprom_status_t Cy_Em_EEPROM_Write(uint32 addr,
 412:Generated_Source\PSoC4/cy_em_eeprom.c ****                                             void * eepromData,
 413:Generated_Source\PSoC4/cy_em_eeprom.c ****                                             uint32 size,
 414:Generated_Source\PSoC4/cy_em_eeprom.c ****                                             cy_stc_eeprom_context_t * context)
 415:Generated_Source\PSoC4/cy_em_eeprom.c **** {
 416:Generated_Source\PSoC4/cy_em_eeprom.c ****     cy_en_em_eeprom_status_t ret = CY_EM_EEPROM_BAD_PARAM;
 417:Generated_Source\PSoC4/cy_em_eeprom.c ****     uint32 i;
 418:Generated_Source\PSoC4/cy_em_eeprom.c ****     uint32 wrCnt;
 419:Generated_Source\PSoC4/cy_em_eeprom.c ****     uint32 actEmEepromRowNum;
 420:Generated_Source\PSoC4/cy_em_eeprom.c ****     uint32 writeRamBuffer[CY_EM_EEPROM_FLASH_SIZEOF_ROW / CY_EM_EEPROM_U32_DIV];
 421:Generated_Source\PSoC4/cy_em_eeprom.c ****     uint32 startAddr = 0u;
 422:Generated_Source\PSoC4/cy_em_eeprom.c ****     uint32 endAddr = 0u;
 423:Generated_Source\PSoC4/cy_em_eeprom.c ****     uint32 tmpRowAddr;
 424:Generated_Source\PSoC4/cy_em_eeprom.c ****     uint32 emEepromRowAddr = context->lastWrRowAddr;
 425:Generated_Source\PSoC4/cy_em_eeprom.c ****     uint32 emEepromRowRdAddr;
 426:Generated_Source\PSoC4/cy_em_eeprom.c ****     void * tmpData;
 427:Generated_Source\PSoC4/cy_em_eeprom.c ****     uint32 eeData = (uint32) eepromData; /* To avoid the pointer arithmetic with void */
 428:Generated_Source\PSoC4/cy_em_eeprom.c **** 
 429:Generated_Source\PSoC4/cy_em_eeprom.c ****     /* Check if the EEPROM data does not exceed the EEPROM capacity */
 430:Generated_Source\PSoC4/cy_em_eeprom.c ****     if((0u != size) && ((addr + size) <= (context->eepromSize)) && (NULL != eepromData))
ARM GAS  C:\Users\Larry\AppData\Local\Temp\ccxlVo0w.s 			page 9


 431:Generated_Source\PSoC4/cy_em_eeprom.c ****     {
 432:Generated_Source\PSoC4/cy_em_eeprom.c ****         uint32 numWrites = ((size - 1u) / CY_EM_EEPROM_HEADER_DATA_LEN) + 1u;
 433:Generated_Source\PSoC4/cy_em_eeprom.c ****         uint32 eeHeaderDataOffset = 0u;
 434:Generated_Source\PSoC4/cy_em_eeprom.c **** 
 435:Generated_Source\PSoC4/cy_em_eeprom.c ****         for(wrCnt = 0u; wrCnt < numWrites; wrCnt++)
 436:Generated_Source\PSoC4/cy_em_eeprom.c ****         {
 437:Generated_Source\PSoC4/cy_em_eeprom.c ****             uint32 skipOperation = 0u;
 438:Generated_Source\PSoC4/cy_em_eeprom.c ****             /* Get the sequence number of the last written row */
 439:Generated_Source\PSoC4/cy_em_eeprom.c ****             uint32 seqNum = CY_EM_EEPROM_GET_SEQ_NUM(emEepromRowAddr);
 440:Generated_Source\PSoC4/cy_em_eeprom.c **** 
 441:Generated_Source\PSoC4/cy_em_eeprom.c ****             /* Get the address of the row to be written. The "emEepromRowAddr" may be
 442:Generated_Source\PSoC4/cy_em_eeprom.c ****             * updated with the proper address (if wear leveling is used). The
 443:Generated_Source\PSoC4/cy_em_eeprom.c ****             * "emEepromRowRdAddr" will point to the row address from which the historic
 444:Generated_Source\PSoC4/cy_em_eeprom.c ****             * data will be read into the RAM buffer.
 445:Generated_Source\PSoC4/cy_em_eeprom.c ****             */
 446:Generated_Source\PSoC4/cy_em_eeprom.c ****             GetNextRowToWrite(seqNum, &emEepromRowAddr, &emEepromRowRdAddr, context);
 447:Generated_Source\PSoC4/cy_em_eeprom.c **** 
 448:Generated_Source\PSoC4/cy_em_eeprom.c ****             /* Clear the RAM buffer so to not put junk into flash */
 449:Generated_Source\PSoC4/cy_em_eeprom.c ****             (void)memset(writeRamBuffer, 0, CY_EM_EEPROM_FLASH_SIZEOF_ROW);
 450:Generated_Source\PSoC4/cy_em_eeprom.c **** 
 451:Generated_Source\PSoC4/cy_em_eeprom.c ****             /* Fill the EM_EEPROM header info for the row in the RAM buffer */
 452:Generated_Source\PSoC4/cy_em_eeprom.c ****             seqNum++;
 453:Generated_Source\PSoC4/cy_em_eeprom.c ****             writeRamBuffer[CY_EM_EEPROM_HEADER_SEQ_NUM_OFFSET_U32] = seqNum;
 454:Generated_Source\PSoC4/cy_em_eeprom.c ****             writeRamBuffer[CY_EM_EEPROM_HEADER_ADDR_OFFSET_U32] = addr;
 455:Generated_Source\PSoC4/cy_em_eeprom.c ****             tmpData = (void *) eeData;
 456:Generated_Source\PSoC4/cy_em_eeprom.c **** 
 457:Generated_Source\PSoC4/cy_em_eeprom.c ****             /* Check if this is the last row to write */
 458:Generated_Source\PSoC4/cy_em_eeprom.c ****             if(wrCnt == (numWrites - 1u))
 459:Generated_Source\PSoC4/cy_em_eeprom.c ****             {
 460:Generated_Source\PSoC4/cy_em_eeprom.c ****                 /* Fill in the remaining size value to the EEPROM header. */
 461:Generated_Source\PSoC4/cy_em_eeprom.c ****                 writeRamBuffer[CY_EM_EEPROM_HEADER_LEN_OFFSET_U32] = size;
 462:Generated_Source\PSoC4/cy_em_eeprom.c ****             }
 463:Generated_Source\PSoC4/cy_em_eeprom.c ****             else
 464:Generated_Source\PSoC4/cy_em_eeprom.c ****             {
 465:Generated_Source\PSoC4/cy_em_eeprom.c ****                 /* This is not the last row to write in the current EEPROM write operation.
 466:Generated_Source\PSoC4/cy_em_eeprom.c ****                 * Write the maximum possible data size to the EEPROM header. Update the
 467:Generated_Source\PSoC4/cy_em_eeprom.c ****                 * size, eeData and addr respectively.
 468:Generated_Source\PSoC4/cy_em_eeprom.c ****                 */
 469:Generated_Source\PSoC4/cy_em_eeprom.c ****                 writeRamBuffer[CY_EM_EEPROM_HEADER_LEN_OFFSET_U32] = CY_EM_EEPROM_HEADER_DATA_LEN;
 470:Generated_Source\PSoC4/cy_em_eeprom.c ****                 size -= CY_EM_EEPROM_HEADER_DATA_LEN;
 471:Generated_Source\PSoC4/cy_em_eeprom.c ****                 addr += CY_EM_EEPROM_HEADER_DATA_LEN;
 472:Generated_Source\PSoC4/cy_em_eeprom.c ****                 eeData += CY_EM_EEPROM_HEADER_DATA_LEN;
 473:Generated_Source\PSoC4/cy_em_eeprom.c ****             }
 474:Generated_Source\PSoC4/cy_em_eeprom.c **** 
 475:Generated_Source\PSoC4/cy_em_eeprom.c ****             /* Write the data to the EEPROM header */
 476:Generated_Source\PSoC4/cy_em_eeprom.c ****             (void)memcpy((void *)&writeRamBuffer[CY_EM_EEPROM_HEADER_DATA_OFFSET_U32],
 477:Generated_Source\PSoC4/cy_em_eeprom.c ****                          tmpData,
 478:Generated_Source\PSoC4/cy_em_eeprom.c ****                          writeRamBuffer[CY_EM_EEPROM_HEADER_LEN_OFFSET_U32]);
 479:Generated_Source\PSoC4/cy_em_eeprom.c **** 
 480:Generated_Source\PSoC4/cy_em_eeprom.c ****             if(emEepromRowRdAddr != 0UL)
 481:Generated_Source\PSoC4/cy_em_eeprom.c ****             {
 482:Generated_Source\PSoC4/cy_em_eeprom.c ****                 /* Copy the EEPROM historic data for this row from flash to RAM */
 483:Generated_Source\PSoC4/cy_em_eeprom.c ****                 (void)memcpy((void *)&writeRamBuffer[CY_EM_EEPROM_EEPROM_DATA_OFFSET_U32],
 484:Generated_Source\PSoC4/cy_em_eeprom.c ****                              (void *)(emEepromRowRdAddr + CY_EM_EEPROM_EEPROM_DATA_LEN),
 485:Generated_Source\PSoC4/cy_em_eeprom.c ****                              CY_EM_EEPROM_EEPROM_DATA_LEN);
 486:Generated_Source\PSoC4/cy_em_eeprom.c ****             }
 487:Generated_Source\PSoC4/cy_em_eeprom.c **** 
ARM GAS  C:\Users\Larry\AppData\Local\Temp\ccxlVo0w.s 			page 10


 488:Generated_Source\PSoC4/cy_em_eeprom.c ****             /* Check if there is data for this location in other EEPROM headers:
 489:Generated_Source\PSoC4/cy_em_eeprom.c ****             * find out the row with the lowest possible sequence number which
 490:Generated_Source\PSoC4/cy_em_eeprom.c ****             * may contain the data for the current row.
 491:Generated_Source\PSoC4/cy_em_eeprom.c ****             */
 492:Generated_Source\PSoC4/cy_em_eeprom.c ****             i = (seqNum > context->numberOfRows) ? ((seqNum - (context->numberOfRows)) + 1u) : 1u;
 493:Generated_Source\PSoC4/cy_em_eeprom.c **** 
 494:Generated_Source\PSoC4/cy_em_eeprom.c ****             for(; i <= seqNum; i++)
 495:Generated_Source\PSoC4/cy_em_eeprom.c ****             {
 496:Generated_Source\PSoC4/cy_em_eeprom.c ****                 if(i == seqNum)
 497:Generated_Source\PSoC4/cy_em_eeprom.c ****                 {
 498:Generated_Source\PSoC4/cy_em_eeprom.c ****                     /* The code reached the row that is about to be written. Analyze the recently
 499:Generated_Source\PSoC4/cy_em_eeprom.c ****                     * created EEPROM header (stored in the RAM buffer currently): if it contains
 500:Generated_Source\PSoC4/cy_em_eeprom.c ****                     * the data for EEPROM data locations in the row that is about to be written.
 501:Generated_Source\PSoC4/cy_em_eeprom.c ****                     */
 502:Generated_Source\PSoC4/cy_em_eeprom.c ****                     tmpRowAddr = (uint32) writeRamBuffer;
 503:Generated_Source\PSoC4/cy_em_eeprom.c ****                 }
 504:Generated_Source\PSoC4/cy_em_eeprom.c ****                 else
 505:Generated_Source\PSoC4/cy_em_eeprom.c ****                 {
 506:Generated_Source\PSoC4/cy_em_eeprom.c ****                     /* Retrieve the address of the previously written row by its sequence number.
 507:Generated_Source\PSoC4/cy_em_eeprom.c ****                     * The pointer will be used to get data from the respective EEPROM header.
 508:Generated_Source\PSoC4/cy_em_eeprom.c ****                     */
 509:Generated_Source\PSoC4/cy_em_eeprom.c ****                     tmpRowAddr = GetRowAddrBySeqNum(i, context);
 510:Generated_Source\PSoC4/cy_em_eeprom.c ****                 }
 511:Generated_Source\PSoC4/cy_em_eeprom.c **** 
 512:Generated_Source\PSoC4/cy_em_eeprom.c ****                 actEmEepromRowNum = CY_EM_EEPROM_GET_ACT_ROW_NUM_FROM_ADDR(emEepromRowAddr,
 513:Generated_Source\PSoC4/cy_em_eeprom.c ****                                                                            context->numberOfRows,
 514:Generated_Source\PSoC4/cy_em_eeprom.c ****                                                                            context->userFlashStartA
 515:Generated_Source\PSoC4/cy_em_eeprom.c ****                 if(0UL != tmpRowAddr)
 516:Generated_Source\PSoC4/cy_em_eeprom.c ****                 {
 517:Generated_Source\PSoC4/cy_em_eeprom.c ****                     /* Calculate the required addressed for the later EEPROM historic data update *
 518:Generated_Source\PSoC4/cy_em_eeprom.c ****                     skipOperation = GetAddresses(
 519:Generated_Source\PSoC4/cy_em_eeprom.c ****                                               &startAddr,
 520:Generated_Source\PSoC4/cy_em_eeprom.c ****                                               &endAddr,
 521:Generated_Source\PSoC4/cy_em_eeprom.c ****                                               &eeHeaderDataOffset,
 522:Generated_Source\PSoC4/cy_em_eeprom.c ****                                               actEmEepromRowNum,
 523:Generated_Source\PSoC4/cy_em_eeprom.c ****                                               *(uint32 *)(tmpRowAddr + CY_EM_EEPROM_HEADER_ADDR_OFF
 524:Generated_Source\PSoC4/cy_em_eeprom.c ****                                               *(uint32 *)(tmpRowAddr + CY_EM_EEPROM_HEADER_LEN_OFFS
 525:Generated_Source\PSoC4/cy_em_eeprom.c ****                 }
 526:Generated_Source\PSoC4/cy_em_eeprom.c ****                 else
 527:Generated_Source\PSoC4/cy_em_eeprom.c ****                 {
 528:Generated_Source\PSoC4/cy_em_eeprom.c ****                     /* Skip writes to the RAM buffer */
 529:Generated_Source\PSoC4/cy_em_eeprom.c ****                     skipOperation++;
 530:Generated_Source\PSoC4/cy_em_eeprom.c ****                 }
 531:Generated_Source\PSoC4/cy_em_eeprom.c **** 
 532:Generated_Source\PSoC4/cy_em_eeprom.c ****                 /* Write data to the RAM buffer */
 533:Generated_Source\PSoC4/cy_em_eeprom.c ****                 if(0u == skipOperation)
 534:Generated_Source\PSoC4/cy_em_eeprom.c ****                 {
 535:Generated_Source\PSoC4/cy_em_eeprom.c ****                     uint32 dataAddr = ((uint32)((uint8 *)&writeRamBuffer)) + startAddr;
 536:Generated_Source\PSoC4/cy_em_eeprom.c **** 
 537:Generated_Source\PSoC4/cy_em_eeprom.c ****                     /* Update the address to point to the EEPROM header data and not to
 538:Generated_Source\PSoC4/cy_em_eeprom.c ****                     * the start of the row.
 539:Generated_Source\PSoC4/cy_em_eeprom.c ****                     */
 540:Generated_Source\PSoC4/cy_em_eeprom.c ****                     tmpRowAddr = tmpRowAddr + CY_EM_EEPROM_HEADER_DATA_OFFSET + eeHeaderDataOffset;
 541:Generated_Source\PSoC4/cy_em_eeprom.c ****                     (void)memcpy((void *)(dataAddr), (void *)(tmpRowAddr), endAddr - startAddr);
 542:Generated_Source\PSoC4/cy_em_eeprom.c ****                 }
 543:Generated_Source\PSoC4/cy_em_eeprom.c **** 
 544:Generated_Source\PSoC4/cy_em_eeprom.c ****                 /* Calculate the checksum if redundant copy is enabled */
ARM GAS  C:\Users\Larry\AppData\Local\Temp\ccxlVo0w.s 			page 11


 545:Generated_Source\PSoC4/cy_em_eeprom.c ****                 if(0u != context->redundantCopy)
 546:Generated_Source\PSoC4/cy_em_eeprom.c ****                 {
 547:Generated_Source\PSoC4/cy_em_eeprom.c ****                     writeRamBuffer[CY_EM_EEPROM_HEADER_CHECKSUM_OFFSET_U32] = (uint32)
 548:Generated_Source\PSoC4/cy_em_eeprom.c ****                         CalcChecksum((uint8 *) &writeRamBuffer[CY_EM_EEPROM_EEPROM_DATA_OFFSET_U32]
 549:Generated_Source\PSoC4/cy_em_eeprom.c ****                                                   CY_EM_EEPROM_EEPROM_DATA_LEN);
 550:Generated_Source\PSoC4/cy_em_eeprom.c ****                 }
 551:Generated_Source\PSoC4/cy_em_eeprom.c ****             }
 552:Generated_Source\PSoC4/cy_em_eeprom.c **** 
 553:Generated_Source\PSoC4/cy_em_eeprom.c ****             /* Write the data to the specified flash row */
 554:Generated_Source\PSoC4/cy_em_eeprom.c ****             ret = WriteRow(emEepromRowAddr, writeRamBuffer, context);
 555:Generated_Source\PSoC4/cy_em_eeprom.c ****             tmpRowAddr = emEepromRowAddr;
 556:Generated_Source\PSoC4/cy_em_eeprom.c **** 
 557:Generated_Source\PSoC4/cy_em_eeprom.c ****             /* Check if redundant copy is used */
 558:Generated_Source\PSoC4/cy_em_eeprom.c ****             if((0u != context->redundantCopy) && (CY_EM_EEPROM_SUCCESS == ret))
 559:Generated_Source\PSoC4/cy_em_eeprom.c ****             {
 560:Generated_Source\PSoC4/cy_em_eeprom.c ****                 /* Update the row address to point to the row in the redundant EEPROM's copy */
 561:Generated_Source\PSoC4/cy_em_eeprom.c ****                 tmpRowAddr = (emEepromRowAddr - context->userFlashStartAddr) + context->wlEndAddr;
 562:Generated_Source\PSoC4/cy_em_eeprom.c **** 
 563:Generated_Source\PSoC4/cy_em_eeprom.c ****                 /* Write the data to the specified flash row */
 564:Generated_Source\PSoC4/cy_em_eeprom.c ****                 ret = WriteRow(tmpRowAddr, writeRamBuffer, context);
 565:Generated_Source\PSoC4/cy_em_eeprom.c ****             }
 566:Generated_Source\PSoC4/cy_em_eeprom.c **** 
 567:Generated_Source\PSoC4/cy_em_eeprom.c ****             if(CY_EM_EEPROM_SUCCESS == ret)
 568:Generated_Source\PSoC4/cy_em_eeprom.c ****             {
 569:Generated_Source\PSoC4/cy_em_eeprom.c ****                 /* Store last written row address only when EEPROM and redundant
 570:Generated_Source\PSoC4/cy_em_eeprom.c ****                 * copy writes were successful.
 571:Generated_Source\PSoC4/cy_em_eeprom.c ****                 */
 572:Generated_Source\PSoC4/cy_em_eeprom.c ****                 context->lastWrRowAddr = emEepromRowAddr;
 573:Generated_Source\PSoC4/cy_em_eeprom.c ****             }
 574:Generated_Source\PSoC4/cy_em_eeprom.c ****             else
 575:Generated_Source\PSoC4/cy_em_eeprom.c ****             {
 576:Generated_Source\PSoC4/cy_em_eeprom.c ****                 break;
 577:Generated_Source\PSoC4/cy_em_eeprom.c ****             }
 578:Generated_Source\PSoC4/cy_em_eeprom.c ****         }
 579:Generated_Source\PSoC4/cy_em_eeprom.c ****     }
 580:Generated_Source\PSoC4/cy_em_eeprom.c ****     return(ret);
 581:Generated_Source\PSoC4/cy_em_eeprom.c **** }
 582:Generated_Source\PSoC4/cy_em_eeprom.c **** 
 583:Generated_Source\PSoC4/cy_em_eeprom.c **** 
 584:Generated_Source\PSoC4/cy_em_eeprom.c **** /*******************************************************************************
 585:Generated_Source\PSoC4/cy_em_eeprom.c **** * Function Name: Cy_Em_EEPROM_Erase
 586:Generated_Source\PSoC4/cy_em_eeprom.c **** ****************************************************************************//**
 587:Generated_Source\PSoC4/cy_em_eeprom.c **** *
 588:Generated_Source\PSoC4/cy_em_eeprom.c **** * This function erases the entire contents of the EEPROM. Erased values are all
 589:Generated_Source\PSoC4/cy_em_eeprom.c **** * zeros. This is a blocking function and it does not return until the write
 590:Generated_Source\PSoC4/cy_em_eeprom.c **** * operation is completed. The user firmware should not enter Hibernate mode until
 591:Generated_Source\PSoC4/cy_em_eeprom.c **** * erase is completed. The erase operation is allowed in Sleep and Deep-Sleep modes.
 592:Generated_Source\PSoC4/cy_em_eeprom.c **** * During the flash operation, the device should not be reset, including the
 593:Generated_Source\PSoC4/cy_em_eeprom.c **** * XRES pin, a software reset, and watchdog reset sources. Also, low-voltage
 594:Generated_Source\PSoC4/cy_em_eeprom.c **** * detect circuits should be configured to generate an interrupt instead of a
 595:Generated_Source\PSoC4/cy_em_eeprom.c **** * reset. Otherwise, portions of flash may undergo unexpected changes.
 596:Generated_Source\PSoC4/cy_em_eeprom.c **** *
 597:Generated_Source\PSoC4/cy_em_eeprom.c **** * \param context
 598:Generated_Source\PSoC4/cy_em_eeprom.c **** * The pointer to the EEPROM context structure \ref cy_stc_eeprom_context_t.
 599:Generated_Source\PSoC4/cy_em_eeprom.c **** *
 600:Generated_Source\PSoC4/cy_em_eeprom.c **** * \return
 601:Generated_Source\PSoC4/cy_em_eeprom.c **** * This function returns \ref cy_en_em_eeprom_status_t.
ARM GAS  C:\Users\Larry\AppData\Local\Temp\ccxlVo0w.s 			page 12


 602:Generated_Source\PSoC4/cy_em_eeprom.c **** *
 603:Generated_Source\PSoC4/cy_em_eeprom.c **** * \note
 604:Generated_Source\PSoC4/cy_em_eeprom.c **** * For all non PSoC 6 devices the erase operation is performed by clearing
 605:Generated_Source\PSoC4/cy_em_eeprom.c **** * the EEPROM data using flash write. This affects the flash durability.
 606:Generated_Source\PSoC4/cy_em_eeprom.c **** * So it is recommended to use this function in utmost case to prolongate
 607:Generated_Source\PSoC4/cy_em_eeprom.c **** * flash life.
 608:Generated_Source\PSoC4/cy_em_eeprom.c **** *
 609:Generated_Source\PSoC4/cy_em_eeprom.c **** * \note
 610:Generated_Source\PSoC4/cy_em_eeprom.c **** * This function uses a buffer of the flash row size to perform erase
 611:Generated_Source\PSoC4/cy_em_eeprom.c **** * operation. For the size of the row refer to the specific PSoC device
 612:Generated_Source\PSoC4/cy_em_eeprom.c **** * datasheet.
 613:Generated_Source\PSoC4/cy_em_eeprom.c **** *
 614:Generated_Source\PSoC4/cy_em_eeprom.c **** * \sideeffect
 615:Generated_Source\PSoC4/cy_em_eeprom.c **** * In case when blocking write option is used, if this function is called by
 616:Generated_Source\PSoC4/cy_em_eeprom.c **** * the CM4 the user code on CM0P and the user code on CM4 are blocked until erase
 617:Generated_Source\PSoC4/cy_em_eeprom.c **** * flash row operation is finished. If this function is called by the CM0P the
 618:Generated_Source\PSoC4/cy_em_eeprom.c **** * user code on CM4 is not blocked and the user code on CM0P is blocked until
 619:Generated_Source\PSoC4/cy_em_eeprom.c **** * erase flash row operation is finished. Plan your task allocation accordingly.
 620:Generated_Source\PSoC4/cy_em_eeprom.c **** *
 621:Generated_Source\PSoC4/cy_em_eeprom.c **** * \sideeffect
 622:Generated_Source\PSoC4/cy_em_eeprom.c **** * In case if non-blocking write option is used and when user flash is used as
 623:Generated_Source\PSoC4/cy_em_eeprom.c **** * an EEPROM storage care should be taken to prevent the read while write (RWW)
 624:Generated_Source\PSoC4/cy_em_eeprom.c **** * exception. To prevent the RWW exception the user flash macro that includes
 625:Generated_Source\PSoC4/cy_em_eeprom.c **** * the EEPROM storage should not be read while the EEPROM erase is not completed.
 626:Generated_Source\PSoC4/cy_em_eeprom.c **** * The read also means the user code execution from the respective flash macro.
 627:Generated_Source\PSoC4/cy_em_eeprom.c **** *
 628:Generated_Source\PSoC4/cy_em_eeprom.c **** *******************************************************************************/
 629:Generated_Source\PSoC4/cy_em_eeprom.c **** cy_en_em_eeprom_status_t Cy_Em_EEPROM_Erase(cy_stc_eeprom_context_t * context)
 630:Generated_Source\PSoC4/cy_em_eeprom.c **** {
 631:Generated_Source\PSoC4/cy_em_eeprom.c ****     uint32 i;
 632:Generated_Source\PSoC4/cy_em_eeprom.c ****     uint32 seqNum;
 633:Generated_Source\PSoC4/cy_em_eeprom.c ****     uint32 emEepromRowAddr = context->lastWrRowAddr;
 634:Generated_Source\PSoC4/cy_em_eeprom.c ****     uint32 emEepromRowRdAddr;
 635:Generated_Source\PSoC4/cy_em_eeprom.c ****     cy_en_em_eeprom_status_t ret = CY_EM_EEPROM_WRITE_FAIL;
 636:Generated_Source\PSoC4/cy_em_eeprom.c ****     uint32 writeRamBuffer[CY_EM_EEPROM_FLASH_SIZEOF_ROW / CY_EM_EEPROM_U32_DIV] = {0u};
 637:Generated_Source\PSoC4/cy_em_eeprom.c **** #if (CY_PSOC6)
 638:Generated_Source\PSoC4/cy_em_eeprom.c ****     uint32 emEepromStoredRowAddr = context->lastWrRowAddr;
 639:Generated_Source\PSoC4/cy_em_eeprom.c ****     uint32 storedSeqNum;
 640:Generated_Source\PSoC4/cy_em_eeprom.c **** #endif /* (!CY_PSOC6) */
 641:Generated_Source\PSoC4/cy_em_eeprom.c **** 
 642:Generated_Source\PSoC4/cy_em_eeprom.c ****     /* Get the sequence number of the last written row */
 643:Generated_Source\PSoC4/cy_em_eeprom.c ****     seqNum = CY_EM_EEPROM_GET_SEQ_NUM(emEepromRowAddr);
 644:Generated_Source\PSoC4/cy_em_eeprom.c **** 
 645:Generated_Source\PSoC4/cy_em_eeprom.c ****     /* If there were no writes to EEPROM - nothing to erase */
 646:Generated_Source\PSoC4/cy_em_eeprom.c ****     if(0u != seqNum)
 647:Generated_Source\PSoC4/cy_em_eeprom.c ****     {
 648:Generated_Source\PSoC4/cy_em_eeprom.c ****         /* Calculate the number of row erase operations required */
 649:Generated_Source\PSoC4/cy_em_eeprom.c ****         uint32 numWrites = context->numberOfRows * context->wearLevelingFactor;
 650:Generated_Source\PSoC4/cy_em_eeprom.c **** 
 651:Generated_Source\PSoC4/cy_em_eeprom.c ****     #if (CY_PSOC6)
 652:Generated_Source\PSoC4/cy_em_eeprom.c ****         GetNextRowToWrite(seqNum, &emEepromStoredRowAddr, &emEepromRowRdAddr, context);
 653:Generated_Source\PSoC4/cy_em_eeprom.c ****         storedSeqNum = seqNum + 1u;
 654:Generated_Source\PSoC4/cy_em_eeprom.c ****     #endif /* (CY_PSOC6) */
 655:Generated_Source\PSoC4/cy_em_eeprom.c **** 
 656:Generated_Source\PSoC4/cy_em_eeprom.c ****         if(0u != context->redundantCopy)
 657:Generated_Source\PSoC4/cy_em_eeprom.c ****         {
 658:Generated_Source\PSoC4/cy_em_eeprom.c ****             writeRamBuffer[CY_EM_EEPROM_HEADER_CHECKSUM_OFFSET_U32] = (uint32)
ARM GAS  C:\Users\Larry\AppData\Local\Temp\ccxlVo0w.s 			page 13


 659:Generated_Source\PSoC4/cy_em_eeprom.c ****                         CalcChecksum((uint8 *) &writeRamBuffer[CY_EM_EEPROM_EEPROM_DATA_OFFSET_U32]
 660:Generated_Source\PSoC4/cy_em_eeprom.c ****                                                   CY_EM_EEPROM_EEPROM_DATA_LEN);
 661:Generated_Source\PSoC4/cy_em_eeprom.c ****         }
 662:Generated_Source\PSoC4/cy_em_eeprom.c **** 
 663:Generated_Source\PSoC4/cy_em_eeprom.c ****         for(i = 0u; i < numWrites; i++)
 664:Generated_Source\PSoC4/cy_em_eeprom.c ****         {
 665:Generated_Source\PSoC4/cy_em_eeprom.c ****         #if (CY_PSOC6)
 666:Generated_Source\PSoC4/cy_em_eeprom.c ****             /* For PSoC 6 the erase operation moves backwards. From last written row
 667:Generated_Source\PSoC4/cy_em_eeprom.c ****             * identified by "seqNum" down to "seqNum" - "numWrites". If "emEepromRowAddr"
 668:Generated_Source\PSoC4/cy_em_eeprom.c ****             * is zero this means that the row identified by "seqNum" was previously 
 669:Generated_Source\PSoC4/cy_em_eeprom.c ****             * erased.
 670:Generated_Source\PSoC4/cy_em_eeprom.c ****             */
 671:Generated_Source\PSoC4/cy_em_eeprom.c ****             if(0u != emEepromRowAddr)
 672:Generated_Source\PSoC4/cy_em_eeprom.c ****             {
 673:Generated_Source\PSoC4/cy_em_eeprom.c ****                 ret = EraseRow(emEepromRowAddr, (uint32)writeRamBuffer, context);
 674:Generated_Source\PSoC4/cy_em_eeprom.c ****             }
 675:Generated_Source\PSoC4/cy_em_eeprom.c **** 
 676:Generated_Source\PSoC4/cy_em_eeprom.c ****             seqNum--;
 677:Generated_Source\PSoC4/cy_em_eeprom.c **** 
 678:Generated_Source\PSoC4/cy_em_eeprom.c ****             if(0u == seqNum)
 679:Generated_Source\PSoC4/cy_em_eeprom.c ****             {
 680:Generated_Source\PSoC4/cy_em_eeprom.c ****                 /* Exit the loop as there is no more row is EEPROM to be erased */
 681:Generated_Source\PSoC4/cy_em_eeprom.c ****                 break;
 682:Generated_Source\PSoC4/cy_em_eeprom.c ****             }
 683:Generated_Source\PSoC4/cy_em_eeprom.c ****             emEepromRowAddr = GetRowAddrBySeqNum(seqNum, context);
 684:Generated_Source\PSoC4/cy_em_eeprom.c ****         #else
 685:Generated_Source\PSoC4/cy_em_eeprom.c ****             seqNum = CY_EM_EEPROM_GET_SEQ_NUM(emEepromRowAddr);
 686:Generated_Source\PSoC4/cy_em_eeprom.c ****             /* Get the address of the row to be erased. "emEepromRowAddr" may be updated
 687:Generated_Source\PSoC4/cy_em_eeprom.c ****             * with the proper address (if wear leveling is used).
 688:Generated_Source\PSoC4/cy_em_eeprom.c ****             */
 689:Generated_Source\PSoC4/cy_em_eeprom.c ****             GetNextRowToWrite(seqNum, &emEepromRowAddr, &emEepromRowRdAddr, context);
 690:Generated_Source\PSoC4/cy_em_eeprom.c ****             seqNum++;
 691:Generated_Source\PSoC4/cy_em_eeprom.c ****             writeRamBuffer[0u] = seqNum;
 692:Generated_Source\PSoC4/cy_em_eeprom.c ****             ret = EraseRow(emEepromRowAddr, (uint32)writeRamBuffer, context);
 693:Generated_Source\PSoC4/cy_em_eeprom.c ****         #endif /* (CY_PSOC6) */
 694:Generated_Source\PSoC4/cy_em_eeprom.c ****         }
 695:Generated_Source\PSoC4/cy_em_eeprom.c **** 
 696:Generated_Source\PSoC4/cy_em_eeprom.c ****     #if (CY_PSOC6)
 697:Generated_Source\PSoC4/cy_em_eeprom.c ****         if(CY_EM_EEPROM_SUCCESS == ret)
 698:Generated_Source\PSoC4/cy_em_eeprom.c ****         {
 699:Generated_Source\PSoC4/cy_em_eeprom.c ****             writeRamBuffer[0u] = storedSeqNum;
 700:Generated_Source\PSoC4/cy_em_eeprom.c **** 
 701:Generated_Source\PSoC4/cy_em_eeprom.c ****             /* Write the previously stored sequence number to the flash row which would be
 702:Generated_Source\PSoC4/cy_em_eeprom.c ****             * written next if the erase wouldn't happen. In this case the write to
 703:Generated_Source\PSoC4/cy_em_eeprom.c ****             * redundant copy can be skipped as it does not add any value.
 704:Generated_Source\PSoC4/cy_em_eeprom.c ****             */
 705:Generated_Source\PSoC4/cy_em_eeprom.c ****             ret = WriteRow(emEepromStoredRowAddr, writeRamBuffer, context);
 706:Generated_Source\PSoC4/cy_em_eeprom.c **** 
 707:Generated_Source\PSoC4/cy_em_eeprom.c ****             if(CY_EM_EEPROM_SUCCESS == ret)
 708:Generated_Source\PSoC4/cy_em_eeprom.c ****             {
 709:Generated_Source\PSoC4/cy_em_eeprom.c ****                 context->lastWrRowAddr = emEepromStoredRowAddr;
 710:Generated_Source\PSoC4/cy_em_eeprom.c ****             }
 711:Generated_Source\PSoC4/cy_em_eeprom.c ****         }
 712:Generated_Source\PSoC4/cy_em_eeprom.c ****     #endif /* (CY_PSOC6) */
 713:Generated_Source\PSoC4/cy_em_eeprom.c **** 
 714:Generated_Source\PSoC4/cy_em_eeprom.c ****     }
 715:Generated_Source\PSoC4/cy_em_eeprom.c ****     return(ret);
ARM GAS  C:\Users\Larry\AppData\Local\Temp\ccxlVo0w.s 			page 14


 716:Generated_Source\PSoC4/cy_em_eeprom.c **** }
 717:Generated_Source\PSoC4/cy_em_eeprom.c **** 
 718:Generated_Source\PSoC4/cy_em_eeprom.c **** 
 719:Generated_Source\PSoC4/cy_em_eeprom.c **** /*******************************************************************************
 720:Generated_Source\PSoC4/cy_em_eeprom.c **** * Function Name: Cy_Em_EEPROM_NumWrites
 721:Generated_Source\PSoC4/cy_em_eeprom.c **** ****************************************************************************//**
 722:Generated_Source\PSoC4/cy_em_eeprom.c **** *
 723:Generated_Source\PSoC4/cy_em_eeprom.c **** * Returns the number of the EEPROM writes completed so far.
 724:Generated_Source\PSoC4/cy_em_eeprom.c **** *
 725:Generated_Source\PSoC4/cy_em_eeprom.c **** * \param context
 726:Generated_Source\PSoC4/cy_em_eeprom.c **** * The pointer to the EEPROM context structure \ref cy_stc_eeprom_context_t.
 727:Generated_Source\PSoC4/cy_em_eeprom.c **** *
 728:Generated_Source\PSoC4/cy_em_eeprom.c **** * \return
 729:Generated_Source\PSoC4/cy_em_eeprom.c **** * The number of writes performed to the EEPROM.
 730:Generated_Source\PSoC4/cy_em_eeprom.c **** *
 731:Generated_Source\PSoC4/cy_em_eeprom.c **** *******************************************************************************/
 732:Generated_Source\PSoC4/cy_em_eeprom.c **** uint32 Cy_Em_EEPROM_NumWrites(cy_stc_eeprom_context_t * context)
 733:Generated_Source\PSoC4/cy_em_eeprom.c **** {
 734:Generated_Source\PSoC4/cy_em_eeprom.c ****     return(CY_EM_EEPROM_GET_SEQ_NUM(context->lastWrRowAddr));
 735:Generated_Source\PSoC4/cy_em_eeprom.c **** }
 736:Generated_Source\PSoC4/cy_em_eeprom.c **** 
 737:Generated_Source\PSoC4/cy_em_eeprom.c **** /** \} */
 738:Generated_Source\PSoC4/cy_em_eeprom.c **** 
 739:Generated_Source\PSoC4/cy_em_eeprom.c **** /** \cond INTERNAL */
 740:Generated_Source\PSoC4/cy_em_eeprom.c **** 
 741:Generated_Source\PSoC4/cy_em_eeprom.c **** 
 742:Generated_Source\PSoC4/cy_em_eeprom.c **** /*******************************************************************************
 743:Generated_Source\PSoC4/cy_em_eeprom.c **** * Function Name: FindLastWrittenRow
 744:Generated_Source\PSoC4/cy_em_eeprom.c **** ****************************************************************************//**
 745:Generated_Source\PSoC4/cy_em_eeprom.c **** *
 746:Generated_Source\PSoC4/cy_em_eeprom.c **** * Performs a search of the last written row address of the EEPROM associated
 747:Generated_Source\PSoC4/cy_em_eeprom.c **** * with the context structure. If there were no writes to the EEPROM the
 748:Generated_Source\PSoC4/cy_em_eeprom.c **** * function returns the start address of the EEPROM. The row address is returned
 749:Generated_Source\PSoC4/cy_em_eeprom.c **** * in the input parameter.
 750:Generated_Source\PSoC4/cy_em_eeprom.c **** *
 751:Generated_Source\PSoC4/cy_em_eeprom.c **** * \param lastWrRowPtr
 752:Generated_Source\PSoC4/cy_em_eeprom.c **** * The pointer to a memory where the last written row will be returned.
 753:Generated_Source\PSoC4/cy_em_eeprom.c **** *
 754:Generated_Source\PSoC4/cy_em_eeprom.c **** * \param context
 755:Generated_Source\PSoC4/cy_em_eeprom.c **** * The pointer to the EEPROM context structure \ref cy_stc_eeprom_context_t.
 756:Generated_Source\PSoC4/cy_em_eeprom.c **** *
 757:Generated_Source\PSoC4/cy_em_eeprom.c **** *******************************************************************************/
 758:Generated_Source\PSoC4/cy_em_eeprom.c **** static void FindLastWrittenRow(uint32 * lastWrRowPtr, cy_stc_eeprom_context_t * context)
 759:Generated_Source\PSoC4/cy_em_eeprom.c **** {
  27              		.loc 1 759 0
  28              		.cfi_startproc
  29              		@ args = 0, pretend = 0, frame = 0
  30              		@ frame_needed = 0, uses_anonymous_args = 0
  31              	.LVL0:
  32 0000 70B5     		push	{r4, r5, r6, lr}
  33              		.cfi_def_cfa_offset 16
  34              		.cfi_offset 4, -16
  35              		.cfi_offset 5, -12
  36              		.cfi_offset 6, -8
  37              		.cfi_offset 14, -4
  38              	.LVL1:
 760:Generated_Source\PSoC4/cy_em_eeprom.c ****     uint32 seqNum = 0u;
ARM GAS  C:\Users\Larry\AppData\Local\Temp\ccxlVo0w.s 			page 15


 761:Generated_Source\PSoC4/cy_em_eeprom.c ****     uint32 prevSeqNum = 0u;
 762:Generated_Source\PSoC4/cy_em_eeprom.c ****     uint32 numRows;
 763:Generated_Source\PSoC4/cy_em_eeprom.c ****     uint32 emEepromAddr = context->userFlashStartAddr;
  39              		.loc 1 763 0
  40 0002 8A69     		ldr	r2, [r1, #24]
  41              	.LVL2:
 764:Generated_Source\PSoC4/cy_em_eeprom.c **** 
 765:Generated_Source\PSoC4/cy_em_eeprom.c ****     *lastWrRowPtr = emEepromAddr;
  42              		.loc 1 765 0
  43 0004 0260     		str	r2, [r0]
  44              	.LVL3:
 766:Generated_Source\PSoC4/cy_em_eeprom.c **** 
 767:Generated_Source\PSoC4/cy_em_eeprom.c ****     for(numRows = 0u; numRows < (context->numberOfRows * context->wearLevelingFactor); numRows++)
  45              		.loc 1 767 0
  46 0006 0024     		movs	r4, #0
 761:Generated_Source\PSoC4/cy_em_eeprom.c ****     uint32 numRows;
  47              		.loc 1 761 0
  48 0008 0025     		movs	r5, #0
  49              		.loc 1 767 0
  50 000a 08E0     		b	.L2
  51              	.LVL4:
  52              	.L4:
 768:Generated_Source\PSoC4/cy_em_eeprom.c ****     {
 769:Generated_Source\PSoC4/cy_em_eeprom.c ****         seqNum = CY_EM_EEPROM_GET_SEQ_NUM(emEepromAddr);
  53              		.loc 1 769 0
  54 000c 1368     		ldr	r3, [r2]
  55              	.LVL5:
 770:Generated_Source\PSoC4/cy_em_eeprom.c ****         if((0u != seqNum) && (seqNum > prevSeqNum))
  56              		.loc 1 770 0
  57 000e 002B     		cmp	r3, #0
  58 0010 03D0     		beq	.L3
  59              		.loc 1 770 0 is_stmt 0 discriminator 1
  60 0012 9D42     		cmp	r5, r3
  61 0014 01D2     		bcs	.L3
  62              	.LVL6:
 771:Generated_Source\PSoC4/cy_em_eeprom.c ****         {
 772:Generated_Source\PSoC4/cy_em_eeprom.c ****             /* Some record in EEPROM was found. Store found sequence
 773:Generated_Source\PSoC4/cy_em_eeprom.c ****             * number and row address.
 774:Generated_Source\PSoC4/cy_em_eeprom.c ****             */
 775:Generated_Source\PSoC4/cy_em_eeprom.c ****             prevSeqNum = seqNum;
 776:Generated_Source\PSoC4/cy_em_eeprom.c ****             *lastWrRowPtr = emEepromAddr;
  63              		.loc 1 776 0 is_stmt 1
  64 0016 0260     		str	r2, [r0]
 775:Generated_Source\PSoC4/cy_em_eeprom.c ****             *lastWrRowPtr = emEepromAddr;
  65              		.loc 1 775 0
  66 0018 1D00     		movs	r5, r3
  67              	.LVL7:
  68              	.L3:
 777:Generated_Source\PSoC4/cy_em_eeprom.c ****         }
 778:Generated_Source\PSoC4/cy_em_eeprom.c **** 
 779:Generated_Source\PSoC4/cy_em_eeprom.c ****         /* Switch to the next row */
 780:Generated_Source\PSoC4/cy_em_eeprom.c ****         emEepromAddr = emEepromAddr + CY_EM_EEPROM_FLASH_SIZEOF_ROW;
  69              		.loc 1 780 0 discriminator 2
  70 001a 8032     		adds	r2, r2, #128
  71              	.LVL8:
 767:Generated_Source\PSoC4/cy_em_eeprom.c ****     {
  72              		.loc 1 767 0 discriminator 2
ARM GAS  C:\Users\Larry\AppData\Local\Temp\ccxlVo0w.s 			page 16


  73 001c 0134     		adds	r4, r4, #1
  74              	.LVL9:
  75              	.L2:
 767:Generated_Source\PSoC4/cy_em_eeprom.c ****     {
  76              		.loc 1 767 0 is_stmt 0 discriminator 1
  77 001e 0B69     		ldr	r3, [r1, #16]
  78 0020 4E68     		ldr	r6, [r1, #4]
  79 0022 7343     		muls	r3, r6
  80 0024 9C42     		cmp	r4, r3
  81 0026 F1D3     		bcc	.L4
 781:Generated_Source\PSoC4/cy_em_eeprom.c ****     }
 782:Generated_Source\PSoC4/cy_em_eeprom.c **** }
  82              		.loc 1 782 0 is_stmt 1
  83              		@ sp needed
  84              	.LVL10:
  85              	.LVL11:
  86 0028 70BD     		pop	{r4, r5, r6, pc}
  87              		.cfi_endproc
  88              	.LFE6:
  89              		.size	FindLastWrittenRow, .-FindLastWrittenRow
  90 002a C046     		.section	.text.GetRowAddrBySeqNum,"ax",%progbits
  91              		.align	2
  92              		.code	16
  93              		.thumb_func
  94              		.type	GetRowAddrBySeqNum, %function
  95              	GetRowAddrBySeqNum:
  96              	.LFB7:
 783:Generated_Source\PSoC4/cy_em_eeprom.c **** 
 784:Generated_Source\PSoC4/cy_em_eeprom.c **** 
 785:Generated_Source\PSoC4/cy_em_eeprom.c **** /*******************************************************************************
 786:Generated_Source\PSoC4/cy_em_eeprom.c **** * Function Name: GetRowAddrBySeqNum
 787:Generated_Source\PSoC4/cy_em_eeprom.c **** ****************************************************************************//**
 788:Generated_Source\PSoC4/cy_em_eeprom.c **** *
 789:Generated_Source\PSoC4/cy_em_eeprom.c **** * Returns the address of the row in EEPROM using its sequence number.
 790:Generated_Source\PSoC4/cy_em_eeprom.c **** *
 791:Generated_Source\PSoC4/cy_em_eeprom.c **** * \param seqNum
 792:Generated_Source\PSoC4/cy_em_eeprom.c **** * The sequence number of the row.
 793:Generated_Source\PSoC4/cy_em_eeprom.c **** *
 794:Generated_Source\PSoC4/cy_em_eeprom.c **** * \param context
 795:Generated_Source\PSoC4/cy_em_eeprom.c **** * The pointer to the EEPROM context structure.
 796:Generated_Source\PSoC4/cy_em_eeprom.c **** *
 797:Generated_Source\PSoC4/cy_em_eeprom.c **** * \return
 798:Generated_Source\PSoC4/cy_em_eeprom.c **** * The address of the row or zero if the row with the sequence number was not
 799:Generated_Source\PSoC4/cy_em_eeprom.c **** * found.
 800:Generated_Source\PSoC4/cy_em_eeprom.c **** *
 801:Generated_Source\PSoC4/cy_em_eeprom.c **** *******************************************************************************/
 802:Generated_Source\PSoC4/cy_em_eeprom.c **** static uint32 GetRowAddrBySeqNum(uint32 seqNum, cy_stc_eeprom_context_t * context)
 803:Generated_Source\PSoC4/cy_em_eeprom.c **** {
  97              		.loc 1 803 0
  98              		.cfi_startproc
  99              		@ args = 0, pretend = 0, frame = 0
 100              		@ frame_needed = 0, uses_anonymous_args = 0
 101              		@ link register save eliminated.
 102              	.LVL12:
 804:Generated_Source\PSoC4/cy_em_eeprom.c ****     uint32 emEepromAddr = context->userFlashStartAddr;
 103              		.loc 1 804 0
 104 0000 8B69     		ldr	r3, [r1, #24]
ARM GAS  C:\Users\Larry\AppData\Local\Temp\ccxlVo0w.s 			page 17


 105              	.LVL13:
 805:Generated_Source\PSoC4/cy_em_eeprom.c **** 
 806:Generated_Source\PSoC4/cy_em_eeprom.c ****     while(CY_EM_EEPROM_GET_SEQ_NUM(emEepromAddr) != seqNum)
 106              		.loc 1 806 0
 107 0002 03E0     		b	.L6
 108              	.L8:
 807:Generated_Source\PSoC4/cy_em_eeprom.c ****     {
 808:Generated_Source\PSoC4/cy_em_eeprom.c ****         /* Switch to the next row */
 809:Generated_Source\PSoC4/cy_em_eeprom.c ****         emEepromAddr = emEepromAddr + CY_EM_EEPROM_FLASH_SIZEOF_ROW;
 109              		.loc 1 809 0
 110 0004 8033     		adds	r3, r3, #128
 111              	.LVL14:
 810:Generated_Source\PSoC4/cy_em_eeprom.c **** 
 811:Generated_Source\PSoC4/cy_em_eeprom.c ****         if (CY_EM_EEPROM_ADDR_IN_RANGE !=
 112              		.loc 1 811 0
 113 0006 0A68     		ldr	r2, [r1]
 114 0008 9342     		cmp	r3, r2
 115 000a 03D2     		bcs	.L9
 116              	.L6:
 806:Generated_Source\PSoC4/cy_em_eeprom.c ****     {
 117              		.loc 1 806 0
 118 000c 1A68     		ldr	r2, [r3]
 119 000e 8242     		cmp	r2, r0
 120 0010 F8D1     		bne	.L8
 121 0012 00E0     		b	.L7
 122              	.L9:
 812:Generated_Source\PSoC4/cy_em_eeprom.c ****             CY_EM_EEPROM_IS_ADDR_EXCEED_RANGE(emEepromAddr, context->wlEndAddr))
 813:Generated_Source\PSoC4/cy_em_eeprom.c ****         {
 814:Generated_Source\PSoC4/cy_em_eeprom.c ****             emEepromAddr = 0u;
 123              		.loc 1 814 0
 124 0014 0023     		movs	r3, #0
 125              	.LVL15:
 126              	.L7:
 815:Generated_Source\PSoC4/cy_em_eeprom.c ****             /* Exit the loop as we reached the end of EEPROM */
 816:Generated_Source\PSoC4/cy_em_eeprom.c ****             break;
 817:Generated_Source\PSoC4/cy_em_eeprom.c ****         }
 818:Generated_Source\PSoC4/cy_em_eeprom.c ****     }
 819:Generated_Source\PSoC4/cy_em_eeprom.c **** 
 820:Generated_Source\PSoC4/cy_em_eeprom.c ****     return (emEepromAddr);
 821:Generated_Source\PSoC4/cy_em_eeprom.c **** }
 127              		.loc 1 821 0
 128 0016 1800     		movs	r0, r3
 129              	.LVL16:
 130              		@ sp needed
 131 0018 7047     		bx	lr
 132              		.cfi_endproc
 133              	.LFE7:
 134              		.size	GetRowAddrBySeqNum, .-GetRowAddrBySeqNum
 135 001a C046     		.section	.text.GetNextRowToWrite,"ax",%progbits
 136              		.align	2
 137              		.code	16
 138              		.thumb_func
 139              		.type	GetNextRowToWrite, %function
 140              	GetNextRowToWrite:
 141              	.LFB8:
 822:Generated_Source\PSoC4/cy_em_eeprom.c **** 
 823:Generated_Source\PSoC4/cy_em_eeprom.c **** 
ARM GAS  C:\Users\Larry\AppData\Local\Temp\ccxlVo0w.s 			page 18


 824:Generated_Source\PSoC4/cy_em_eeprom.c **** /*******************************************************************************
 825:Generated_Source\PSoC4/cy_em_eeprom.c **** * Function Name: GetNextRowToWrite
 826:Generated_Source\PSoC4/cy_em_eeprom.c **** ****************************************************************************//**
 827:Generated_Source\PSoC4/cy_em_eeprom.c **** *
 828:Generated_Source\PSoC4/cy_em_eeprom.c **** * Performs a range check of the row that should be written and updates the
 829:Generated_Source\PSoC4/cy_em_eeprom.c **** * address to the row respectively. The similar actions are done for the read
 830:Generated_Source\PSoC4/cy_em_eeprom.c **** * address.
 831:Generated_Source\PSoC4/cy_em_eeprom.c **** *
 832:Generated_Source\PSoC4/cy_em_eeprom.c **** * \param seqNum
 833:Generated_Source\PSoC4/cy_em_eeprom.c **** * The sequence number of the last written row.
 834:Generated_Source\PSoC4/cy_em_eeprom.c **** *
 835:Generated_Source\PSoC4/cy_em_eeprom.c **** * \param rowToWrPtr
 836:Generated_Source\PSoC4/cy_em_eeprom.c **** * The address of the last written row (input). The address of the row to be 
 837:Generated_Source\PSoC4/cy_em_eeprom.c **** * written (output).
 838:Generated_Source\PSoC4/cy_em_eeprom.c **** *
 839:Generated_Source\PSoC4/cy_em_eeprom.c **** * \param rowToRdPtr
 840:Generated_Source\PSoC4/cy_em_eeprom.c **** * The address of the row from which the data should be read into the RAM buffer
 841:Generated_Source\PSoC4/cy_em_eeprom.c **** * in a later write operation. Out parameter.
 842:Generated_Source\PSoC4/cy_em_eeprom.c **** *
 843:Generated_Source\PSoC4/cy_em_eeprom.c **** * \param context
 844:Generated_Source\PSoC4/cy_em_eeprom.c **** * The pointer to the EEPROM context structure \ref cy_stc_eeprom_context_t.
 845:Generated_Source\PSoC4/cy_em_eeprom.c **** *
 846:Generated_Source\PSoC4/cy_em_eeprom.c **** *******************************************************************************/
 847:Generated_Source\PSoC4/cy_em_eeprom.c **** static void GetNextRowToWrite(uint32 seqNum,
 848:Generated_Source\PSoC4/cy_em_eeprom.c ****                             uint32 * rowToWrPtr,
 849:Generated_Source\PSoC4/cy_em_eeprom.c ****                             uint32 * rowToRdPtr,
 850:Generated_Source\PSoC4/cy_em_eeprom.c ****                             cy_stc_eeprom_context_t * context)
 851:Generated_Source\PSoC4/cy_em_eeprom.c **** {
 142              		.loc 1 851 0
 143              		.cfi_startproc
 144              		@ args = 0, pretend = 0, frame = 0
 145              		@ frame_needed = 0, uses_anonymous_args = 0
 146              	.LVL17:
 147 0000 30B5     		push	{r4, r5, lr}
 148              		.cfi_def_cfa_offset 12
 149              		.cfi_offset 4, -12
 150              		.cfi_offset 5, -8
 151              		.cfi_offset 14, -4
 852:Generated_Source\PSoC4/cy_em_eeprom.c ****     /* Switch to the next row to be written if the current sequence number is
 853:Generated_Source\PSoC4/cy_em_eeprom.c ****     * not zero.
 854:Generated_Source\PSoC4/cy_em_eeprom.c ****     */
 855:Generated_Source\PSoC4/cy_em_eeprom.c ****     if(0u != seqNum)
 152              		.loc 1 855 0
 153 0002 0028     		cmp	r0, #0
 154 0004 02D0     		beq	.L11
 856:Generated_Source\PSoC4/cy_em_eeprom.c ****     {
 857:Generated_Source\PSoC4/cy_em_eeprom.c ****         *rowToWrPtr = (*rowToWrPtr + CY_EM_EEPROM_FLASH_SIZEOF_ROW);
 155              		.loc 1 857 0
 156 0006 0C68     		ldr	r4, [r1]
 157 0008 8034     		adds	r4, r4, #128
 158 000a 0C60     		str	r4, [r1]
 159              	.L11:
 858:Generated_Source\PSoC4/cy_em_eeprom.c ****     }
 859:Generated_Source\PSoC4/cy_em_eeprom.c **** 
 860:Generated_Source\PSoC4/cy_em_eeprom.c ****     /* If the resulting row address is out of EEPROM, then switch to the base
 861:Generated_Source\PSoC4/cy_em_eeprom.c ****     * EEPROM address (Row#0).
 862:Generated_Source\PSoC4/cy_em_eeprom.c ****     */
ARM GAS  C:\Users\Larry\AppData\Local\Temp\ccxlVo0w.s 			page 19


 863:Generated_Source\PSoC4/cy_em_eeprom.c ****     if(CY_EM_EEPROM_ADDR_IN_RANGE !=
 160              		.loc 1 863 0
 161 000c 0C68     		ldr	r4, [r1]
 162 000e 1D68     		ldr	r5, [r3]
 163 0010 AC42     		cmp	r4, r5
 164 0012 01D3     		bcc	.L12
 864:Generated_Source\PSoC4/cy_em_eeprom.c ****             CY_EM_EEPROM_IS_ADDR_EXCEED_RANGE(*rowToWrPtr, context->wlEndAddr))
 865:Generated_Source\PSoC4/cy_em_eeprom.c ****     {
 866:Generated_Source\PSoC4/cy_em_eeprom.c ****         *rowToWrPtr = context->userFlashStartAddr;
 165              		.loc 1 866 0
 166 0014 9C69     		ldr	r4, [r3, #24]
 167 0016 0C60     		str	r4, [r1]
 168              	.L12:
 867:Generated_Source\PSoC4/cy_em_eeprom.c ****     }
 868:Generated_Source\PSoC4/cy_em_eeprom.c **** 
 869:Generated_Source\PSoC4/cy_em_eeprom.c ****     *rowToRdPtr = 0u;
 169              		.loc 1 869 0
 170 0018 0024     		movs	r4, #0
 171 001a 1460     		str	r4, [r2]
 870:Generated_Source\PSoC4/cy_em_eeprom.c **** 
 871:Generated_Source\PSoC4/cy_em_eeprom.c ****     /* Check if the sequence number is larger than the number of rows in the EEPROM.
 872:Generated_Source\PSoC4/cy_em_eeprom.c ****     * If not, do not update the row read address because there is no historic
 873:Generated_Source\PSoC4/cy_em_eeprom.c ****     * data to be read.
 874:Generated_Source\PSoC4/cy_em_eeprom.c ****     */
 875:Generated_Source\PSoC4/cy_em_eeprom.c ****     if(context->numberOfRows <= seqNum)
 172              		.loc 1 875 0
 173 001c 5C68     		ldr	r4, [r3, #4]
 174 001e A042     		cmp	r0, r4
 175 0020 16D3     		bcc	.L10
 876:Generated_Source\PSoC4/cy_em_eeprom.c ****     {
 877:Generated_Source\PSoC4/cy_em_eeprom.c ****         /* Check if wear leveling is used in EEPROM */
 878:Generated_Source\PSoC4/cy_em_eeprom.c ****         if(context->wearLevelingFactor > 1u)
 176              		.loc 1 878 0
 177 0022 1D69     		ldr	r5, [r3, #16]
 178 0024 012D     		cmp	r5, #1
 179 0026 11D9     		bls	.L14
 879:Generated_Source\PSoC4/cy_em_eeprom.c ****         {
 880:Generated_Source\PSoC4/cy_em_eeprom.c ****             /* The read row address should be taken from an EEPROM copy that became
 881:Generated_Source\PSoC4/cy_em_eeprom.c ****             * inactive recently. This condition check handles that.
 882:Generated_Source\PSoC4/cy_em_eeprom.c ****             */
 883:Generated_Source\PSoC4/cy_em_eeprom.c ****             if((*rowToWrPtr - (context->numberOfRows * CY_EM_EEPROM_FLASH_SIZEOF_ROW)) <
 180              		.loc 1 883 0
 181 0028 0868     		ldr	r0, [r1]
 182              	.LVL18:
 183 002a E101     		lsls	r1, r4, #7
 184              	.LVL19:
 185 002c 411A     		subs	r1, r0, r1
 884:Generated_Source\PSoC4/cy_em_eeprom.c ****                 context->userFlashStartAddr)
 186              		.loc 1 884 0
 187 002e 9B69     		ldr	r3, [r3, #24]
 188              	.LVL20:
 883:Generated_Source\PSoC4/cy_em_eeprom.c ****                 context->userFlashStartAddr)
 189              		.loc 1 883 0
 190 0030 9942     		cmp	r1, r3
 191 0032 09D2     		bcs	.L15
 885:Generated_Source\PSoC4/cy_em_eeprom.c ****             {
 886:Generated_Source\PSoC4/cy_em_eeprom.c ****                 *rowToRdPtr = context->userFlashStartAddr +
ARM GAS  C:\Users\Larry\AppData\Local\Temp\ccxlVo0w.s 			page 20


 887:Generated_Source\PSoC4/cy_em_eeprom.c ****                     (context->numberOfRows * (context->wearLevelingFactor - 1u) *
 192              		.loc 1 887 0
 193 0034 0749     		ldr	r1, .L16
 194 0036 8C46     		mov	ip, r1
 195 0038 6544     		add	r5, r5, ip
 196 003a 6C43     		muls	r4, r5
 197 003c E401     		lsls	r4, r4, #7
 886:Generated_Source\PSoC4/cy_em_eeprom.c ****                     (context->numberOfRows * (context->wearLevelingFactor - 1u) *
 198              		.loc 1 886 0
 199 003e 1C19     		adds	r4, r3, r4
 888:Generated_Source\PSoC4/cy_em_eeprom.c ****                         CY_EM_EEPROM_FLASH_SIZEOF_ROW) + (*rowToWrPtr - context->userFlashStartAddr
 200              		.loc 1 888 0
 201 0040 C01A     		subs	r0, r0, r3
 202 0042 2418     		adds	r4, r4, r0
 886:Generated_Source\PSoC4/cy_em_eeprom.c ****                     (context->numberOfRows * (context->wearLevelingFactor - 1u) *
 203              		.loc 1 886 0
 204 0044 1460     		str	r4, [r2]
 205 0046 03E0     		b	.L10
 206              	.L15:
 889:Generated_Source\PSoC4/cy_em_eeprom.c ****             }
 890:Generated_Source\PSoC4/cy_em_eeprom.c ****             else
 891:Generated_Source\PSoC4/cy_em_eeprom.c ****             {
 892:Generated_Source\PSoC4/cy_em_eeprom.c ****                 *rowToRdPtr = *rowToWrPtr - (context->numberOfRows * CY_EM_EEPROM_FLASH_SIZEOF_ROW)
 207              		.loc 1 892 0
 208 0048 1160     		str	r1, [r2]
 209 004a 01E0     		b	.L10
 210              	.LVL21:
 211              	.L14:
 893:Generated_Source\PSoC4/cy_em_eeprom.c ****             }
 894:Generated_Source\PSoC4/cy_em_eeprom.c ****         }
 895:Generated_Source\PSoC4/cy_em_eeprom.c ****         else
 896:Generated_Source\PSoC4/cy_em_eeprom.c ****         {
 897:Generated_Source\PSoC4/cy_em_eeprom.c ****             /* If no wear leveling, always read from the same flash row that
 898:Generated_Source\PSoC4/cy_em_eeprom.c ****             * should be written.
 899:Generated_Source\PSoC4/cy_em_eeprom.c ****             */
 900:Generated_Source\PSoC4/cy_em_eeprom.c ****             *rowToRdPtr = *rowToWrPtr;
 212              		.loc 1 900 0
 213 004c 0B68     		ldr	r3, [r1]
 214              	.LVL22:
 215 004e 1360     		str	r3, [r2]
 216              	.LVL23:
 217              	.L10:
 901:Generated_Source\PSoC4/cy_em_eeprom.c ****         }
 902:Generated_Source\PSoC4/cy_em_eeprom.c ****     }
 903:Generated_Source\PSoC4/cy_em_eeprom.c **** }
 218              		.loc 1 903 0
 219              		@ sp needed
 220 0050 30BD     		pop	{r4, r5, pc}
 221              	.L17:
 222 0052 C046     		.align	2
 223              	.L16:
 224 0054 FFFFFF01 		.word	33554431
 225              		.cfi_endproc
 226              	.LFE8:
 227              		.size	GetNextRowToWrite, .-GetNextRowToWrite
 228              		.section	.text.CalcChecksum,"ax",%progbits
 229              		.align	2
ARM GAS  C:\Users\Larry\AppData\Local\Temp\ccxlVo0w.s 			page 21


 230              		.code	16
 231              		.thumb_func
 232              		.type	CalcChecksum, %function
 233              	CalcChecksum:
 234              	.LFB9:
 904:Generated_Source\PSoC4/cy_em_eeprom.c **** 
 905:Generated_Source\PSoC4/cy_em_eeprom.c **** 
 906:Generated_Source\PSoC4/cy_em_eeprom.c **** /*******************************************************************************
 907:Generated_Source\PSoC4/cy_em_eeprom.c **** * Function Name: CalcChecksum
 908:Generated_Source\PSoC4/cy_em_eeprom.c **** ****************************************************************************//**
 909:Generated_Source\PSoC4/cy_em_eeprom.c **** *
 910:Generated_Source\PSoC4/cy_em_eeprom.c **** * Implements CRC-8 that is used in checksum calculation for the redundant copy
 911:Generated_Source\PSoC4/cy_em_eeprom.c **** * algorithm.
 912:Generated_Source\PSoC4/cy_em_eeprom.c **** *
 913:Generated_Source\PSoC4/cy_em_eeprom.c **** * \param rowData
 914:Generated_Source\PSoC4/cy_em_eeprom.c **** * The row data to be used to calculate the checksum.
 915:Generated_Source\PSoC4/cy_em_eeprom.c **** *
 916:Generated_Source\PSoC4/cy_em_eeprom.c **** * \param len
 917:Generated_Source\PSoC4/cy_em_eeprom.c **** * The length of rowData.
 918:Generated_Source\PSoC4/cy_em_eeprom.c **** *
 919:Generated_Source\PSoC4/cy_em_eeprom.c **** * \return
 920:Generated_Source\PSoC4/cy_em_eeprom.c **** * The calculated value of CRC-8.
 921:Generated_Source\PSoC4/cy_em_eeprom.c **** *
 922:Generated_Source\PSoC4/cy_em_eeprom.c **** *******************************************************************************/
 923:Generated_Source\PSoC4/cy_em_eeprom.c **** static uint8 CalcChecksum(uint8 rowData[], uint32 len)
 924:Generated_Source\PSoC4/cy_em_eeprom.c **** {
 235              		.loc 1 924 0
 236              		.cfi_startproc
 237              		@ args = 0, pretend = 0, frame = 0
 238              		@ frame_needed = 0, uses_anonymous_args = 0
 239              	.LVL24:
 240 0000 30B5     		push	{r4, r5, lr}
 241              		.cfi_def_cfa_offset 12
 242              		.cfi_offset 4, -12
 243              		.cfi_offset 5, -8
 244              		.cfi_offset 14, -4
 245 0002 0500     		movs	r5, r0
 246              	.LVL25:
 925:Generated_Source\PSoC4/cy_em_eeprom.c ****     uint8 crc = CY_EM_EEPROM_CRC8_SEED;
 926:Generated_Source\PSoC4/cy_em_eeprom.c ****     uint8 i;
 927:Generated_Source\PSoC4/cy_em_eeprom.c ****     uint16 cnt = 0u;
 247              		.loc 1 927 0
 248 0004 0024     		movs	r4, #0
 925:Generated_Source\PSoC4/cy_em_eeprom.c ****     uint8 crc = CY_EM_EEPROM_CRC8_SEED;
 249              		.loc 1 925 0
 250 0006 FF20     		movs	r0, #255
 251              	.LVL26:
 928:Generated_Source\PSoC4/cy_em_eeprom.c **** 
 929:Generated_Source\PSoC4/cy_em_eeprom.c ****     while(cnt != len)
 252              		.loc 1 929 0
 253 0008 14E0     		b	.L19
 254              	.LVL27:
 255              	.L24:
 930:Generated_Source\PSoC4/cy_em_eeprom.c ****     {
 931:Generated_Source\PSoC4/cy_em_eeprom.c ****         crc ^= rowData[cnt];
 256              		.loc 1 931 0
 257 000a 2B5D     		ldrb	r3, [r5, r4]
ARM GAS  C:\Users\Larry\AppData\Local\Temp\ccxlVo0w.s 			page 22


 258 000c 5840     		eors	r0, r3
 259              	.LVL28:
 932:Generated_Source\PSoC4/cy_em_eeprom.c ****         for (i = 0u; i < CY_EM_EEPROM_CRC8_POLYNOM_LEN; i++)
 260              		.loc 1 932 0
 261 000e 0022     		movs	r2, #0
 262 0010 0CE0     		b	.L20
 263              	.LVL29:
 264              	.L23:
 933:Generated_Source\PSoC4/cy_em_eeprom.c ****         {
 934:Generated_Source\PSoC4/cy_em_eeprom.c ****             crc = CY_EM_EEPROM_CALCULATE_CRC8(crc);
 265              		.loc 1 934 0
 266 0012 43B2     		sxtb	r3, r0
 267 0014 002B     		cmp	r3, #0
 268 0016 05DA     		bge	.L21
 269              		.loc 1 934 0 is_stmt 0 discriminator 1
 270 0018 4000     		lsls	r0, r0, #1
 271              	.LVL30:
 272 001a C3B2     		uxtb	r3, r0
 273              	.LVL31:
 274 001c 3120     		movs	r0, #49
 275 001e 4340     		eors	r3, r0
 276 0020 D8B2     		uxtb	r0, r3
 277 0022 01E0     		b	.L22
 278              	.LVL32:
 279              	.L21:
 280              		.loc 1 934 0 discriminator 2
 281 0024 4000     		lsls	r0, r0, #1
 282              	.LVL33:
 283 0026 C0B2     		uxtb	r0, r0
 284              	.LVL34:
 285              	.L22:
 932:Generated_Source\PSoC4/cy_em_eeprom.c ****         for (i = 0u; i < CY_EM_EEPROM_CRC8_POLYNOM_LEN; i++)
 286              		.loc 1 932 0 is_stmt 1 discriminator 4
 287 0028 0132     		adds	r2, r2, #1
 288              	.LVL35:
 289 002a D2B2     		uxtb	r2, r2
 290              	.LVL36:
 291              	.L20:
 932:Generated_Source\PSoC4/cy_em_eeprom.c ****         for (i = 0u; i < CY_EM_EEPROM_CRC8_POLYNOM_LEN; i++)
 292              		.loc 1 932 0 is_stmt 0 discriminator 2
 293 002c 072A     		cmp	r2, #7
 294 002e F0D9     		bls	.L23
 935:Generated_Source\PSoC4/cy_em_eeprom.c ****         }
 936:Generated_Source\PSoC4/cy_em_eeprom.c ****         cnt++;
 295              		.loc 1 936 0 is_stmt 1
 296 0030 0134     		adds	r4, r4, #1
 297              	.LVL37:
 298 0032 A4B2     		uxth	r4, r4
 299              	.LVL38:
 300              	.L19:
 929:Generated_Source\PSoC4/cy_em_eeprom.c ****     {
 301              		.loc 1 929 0
 302 0034 8C42     		cmp	r4, r1
 303 0036 E8D1     		bne	.L24
 937:Generated_Source\PSoC4/cy_em_eeprom.c ****     }
 938:Generated_Source\PSoC4/cy_em_eeprom.c **** 
 939:Generated_Source\PSoC4/cy_em_eeprom.c ****     return (crc);
ARM GAS  C:\Users\Larry\AppData\Local\Temp\ccxlVo0w.s 			page 23


 940:Generated_Source\PSoC4/cy_em_eeprom.c **** }
 304              		.loc 1 940 0
 305              		@ sp needed
 306              	.LVL39:
 307              	.LVL40:
 308 0038 30BD     		pop	{r4, r5, pc}
 309              		.cfi_endproc
 310              	.LFE9:
 311              		.size	CalcChecksum, .-CalcChecksum
 312 003a C046     		.section	.text.CheckRanges,"ax",%progbits
 313              		.align	2
 314              		.code	16
 315              		.thumb_func
 316              		.type	CheckRanges, %function
 317              	CheckRanges:
 318              	.LFB10:
 941:Generated_Source\PSoC4/cy_em_eeprom.c **** 
 942:Generated_Source\PSoC4/cy_em_eeprom.c **** 
 943:Generated_Source\PSoC4/cy_em_eeprom.c **** /*******************************************************************************
 944:Generated_Source\PSoC4/cy_em_eeprom.c **** * Function Name: CheckRanges
 945:Generated_Source\PSoC4/cy_em_eeprom.c **** ****************************************************************************//**
 946:Generated_Source\PSoC4/cy_em_eeprom.c **** *
 947:Generated_Source\PSoC4/cy_em_eeprom.c **** * Checks if the EEPROM of the requested size can be placed in flash.
 948:Generated_Source\PSoC4/cy_em_eeprom.c **** *
 949:Generated_Source\PSoC4/cy_em_eeprom.c **** * \param config
 950:Generated_Source\PSoC4/cy_em_eeprom.c **** * The pointer to a configuration structure. See \ref cy_stc_eeprom_config_t.
 951:Generated_Source\PSoC4/cy_em_eeprom.c **** *
 952:Generated_Source\PSoC4/cy_em_eeprom.c **** * \return
 953:Generated_Source\PSoC4/cy_em_eeprom.c **** * error / status code. See \ref cy_en_em_eeprom_status_t.
 954:Generated_Source\PSoC4/cy_em_eeprom.c **** *
 955:Generated_Source\PSoC4/cy_em_eeprom.c **** *******************************************************************************/
 956:Generated_Source\PSoC4/cy_em_eeprom.c **** static cy_en_em_eeprom_status_t CheckRanges(cy_stc_eeprom_config_t* config)
 957:Generated_Source\PSoC4/cy_em_eeprom.c **** {
 319              		.loc 1 957 0
 320              		.cfi_startproc
 321              		@ args = 0, pretend = 0, frame = 0
 322              		@ frame_needed = 0, uses_anonymous_args = 0
 323              	.LVL41:
 324 0000 10B5     		push	{r4, lr}
 325              		.cfi_def_cfa_offset 8
 326              		.cfi_offset 4, -8
 327              		.cfi_offset 14, -4
 328              	.LVL42:
 958:Generated_Source\PSoC4/cy_em_eeprom.c ****     cy_en_em_eeprom_status_t ret = CY_EM_EEPROM_BAD_DATA;
 959:Generated_Source\PSoC4/cy_em_eeprom.c ****     uint32 startAddr = config->userFlashStartAddr;
 329              		.loc 1 959 0
 330 0002 C468     		ldr	r4, [r0, #12]
 331              	.LVL43:
 960:Generated_Source\PSoC4/cy_em_eeprom.c ****     uint32 endAddr = startAddr + CY_EM_EEPROM_GET_PHYSICAL_SIZE(config->eepromSize,
 332              		.loc 1 960 0
 333 0004 0268     		ldr	r2, [r0]
 334 0006 9109     		lsrs	r1, r2, #6
 335 0008 3F23     		movs	r3, #63
 336 000a 1340     		ands	r3, r2
 337 000c 00D0     		beq	.L26
 338 000e 0123     		movs	r3, #1
 339              	.L26:
ARM GAS  C:\Users\Larry\AppData\Local\Temp\ccxlVo0w.s 			page 24


 340              		.loc 1 960 0 is_stmt 0 discriminator 4
 341 0010 5B18     		adds	r3, r3, r1
 342 0012 4268     		ldr	r2, [r0, #4]
 343 0014 5343     		muls	r3, r2
 344 0016 027A     		ldrb	r2, [r0, #8]
 345 0018 0132     		adds	r2, r2, #1
 346 001a 5343     		muls	r3, r2
 347 001c DB01     		lsls	r3, r3, #7
 348 001e E318     		adds	r3, r4, r3
 349              	.LVL44:
 961:Generated_Source\PSoC4/cy_em_eeprom.c ****             config->wearLevelingFactor, config->redundantCopy);
 962:Generated_Source\PSoC4/cy_em_eeprom.c **** 
 963:Generated_Source\PSoC4/cy_em_eeprom.c ****     /* Range check if there is enough flash for EEPROM */
 964:Generated_Source\PSoC4/cy_em_eeprom.c ****     if (CY_EM_EEPROM_IS_IN_FLASH_RANGE(startAddr, endAddr))
 350              		.loc 1 964 0 is_stmt 1 discriminator 4
 351 0020 002C     		cmp	r4, #0
 352 0022 05D0     		beq	.L28
 353              		.loc 1 964 0 is_stmt 0 discriminator 1
 354 0024 8022     		movs	r2, #128
 355 0026 9202     		lsls	r2, r2, #10
 356 0028 9342     		cmp	r3, r2
 357 002a 03D9     		bls	.L29
 958:Generated_Source\PSoC4/cy_em_eeprom.c ****     uint32 startAddr = config->userFlashStartAddr;
 358              		.loc 1 958 0 is_stmt 1
 359 002c 0320     		movs	r0, #3
 360              	.LVL45:
 361 002e 02E0     		b	.L27
 362              	.LVL46:
 363              	.L28:
 364 0030 0320     		movs	r0, #3
 365              	.LVL47:
 366 0032 00E0     		b	.L27
 367              	.LVL48:
 368              	.L29:
 965:Generated_Source\PSoC4/cy_em_eeprom.c ****     {
 966:Generated_Source\PSoC4/cy_em_eeprom.c ****         ret = CY_EM_EEPROM_SUCCESS;
 369              		.loc 1 966 0
 370 0034 0020     		movs	r0, #0
 371              	.LVL49:
 372              	.L27:
 967:Generated_Source\PSoC4/cy_em_eeprom.c ****     }
 968:Generated_Source\PSoC4/cy_em_eeprom.c ****     return (ret);
 969:Generated_Source\PSoC4/cy_em_eeprom.c **** }
 373              		.loc 1 969 0
 374              		@ sp needed
 375              	.LVL50:
 376 0036 10BD     		pop	{r4, pc}
 377              		.cfi_endproc
 378              	.LFE10:
 379              		.size	CheckRanges, .-CheckRanges
 380              		.section	.text.GetAddresses,"ax",%progbits
 381              		.align	2
 382              		.code	16
 383              		.thumb_func
 384              		.type	GetAddresses, %function
 385              	GetAddresses:
 386              	.LFB14:
ARM GAS  C:\Users\Larry\AppData\Local\Temp\ccxlVo0w.s 			page 25


 970:Generated_Source\PSoC4/cy_em_eeprom.c **** 
 971:Generated_Source\PSoC4/cy_em_eeprom.c **** 
 972:Generated_Source\PSoC4/cy_em_eeprom.c **** /*******************************************************************************
 973:Generated_Source\PSoC4/cy_em_eeprom.c **** * Function Name: WriteRow
 974:Generated_Source\PSoC4/cy_em_eeprom.c **** ****************************************************************************//**
 975:Generated_Source\PSoC4/cy_em_eeprom.c **** *
 976:Generated_Source\PSoC4/cy_em_eeprom.c **** * Writes one flash row starting from the specified row address.
 977:Generated_Source\PSoC4/cy_em_eeprom.c **** *
 978:Generated_Source\PSoC4/cy_em_eeprom.c **** * \param rowAdd
 979:Generated_Source\PSoC4/cy_em_eeprom.c **** * The address of the flash row.
 980:Generated_Source\PSoC4/cy_em_eeprom.c **** *
 981:Generated_Source\PSoC4/cy_em_eeprom.c **** * \param rowData
 982:Generated_Source\PSoC4/cy_em_eeprom.c **** * The pointer to the data to be written to the row.
 983:Generated_Source\PSoC4/cy_em_eeprom.c **** *
 984:Generated_Source\PSoC4/cy_em_eeprom.c **** * \param context
 985:Generated_Source\PSoC4/cy_em_eeprom.c **** * The pointer to the EEPROM context structure \ref cy_stc_eeprom_context_t.
 986:Generated_Source\PSoC4/cy_em_eeprom.c **** *
 987:Generated_Source\PSoC4/cy_em_eeprom.c **** * \return
 988:Generated_Source\PSoC4/cy_em_eeprom.c **** * error / status code. See \ref cy_en_em_eeprom_status_t.
 989:Generated_Source\PSoC4/cy_em_eeprom.c **** *
 990:Generated_Source\PSoC4/cy_em_eeprom.c **** *******************************************************************************/
 991:Generated_Source\PSoC4/cy_em_eeprom.c **** static cy_en_em_eeprom_status_t WriteRow(uint32 rowAddr,
 992:Generated_Source\PSoC4/cy_em_eeprom.c ****                                         uint32 *rowData,
 993:Generated_Source\PSoC4/cy_em_eeprom.c ****                                         cy_stc_eeprom_context_t * context)
 994:Generated_Source\PSoC4/cy_em_eeprom.c **** {
 995:Generated_Source\PSoC4/cy_em_eeprom.c ****     cy_en_em_eeprom_status_t ret = CY_EM_EEPROM_WRITE_FAIL;
 996:Generated_Source\PSoC4/cy_em_eeprom.c **** #if (!CY_PSOC6)
 997:Generated_Source\PSoC4/cy_em_eeprom.c ****     cystatus rc;
 998:Generated_Source\PSoC4/cy_em_eeprom.c ****     uint32 rowId;
 999:Generated_Source\PSoC4/cy_em_eeprom.c ****     #if ((CY_PSOC3) || (CY_PSOC5))
1000:Generated_Source\PSoC4/cy_em_eeprom.c ****         uint32 arrayId;
1001:Generated_Source\PSoC4/cy_em_eeprom.c ****     #endif /* (CY_PSOC3) */
1002:Generated_Source\PSoC4/cy_em_eeprom.c ****     
1003:Generated_Source\PSoC4/cy_em_eeprom.c ****     #if (CY_PSOC3)
1004:Generated_Source\PSoC4/cy_em_eeprom.c ****         rowAddr &= CY_EM_EEPROM_CODE_ADDR_MASK;
1005:Generated_Source\PSoC4/cy_em_eeprom.c ****         context = context;      /* To avoid compiler warning generation */
1006:Generated_Source\PSoC4/cy_em_eeprom.c ****     #else
1007:Generated_Source\PSoC4/cy_em_eeprom.c ****         (void)context;          /* To avoid compiler warning generation */
1008:Generated_Source\PSoC4/cy_em_eeprom.c ****     #endif /* ((CY_PSOC3) */
1009:Generated_Source\PSoC4/cy_em_eeprom.c ****     
1010:Generated_Source\PSoC4/cy_em_eeprom.c ****     /* For non-PSoC 6 devices, the Array ID and Row ID needed to write the row */
1011:Generated_Source\PSoC4/cy_em_eeprom.c ****     rowId = (rowAddr / CY_EM_EEPROM_FLASH_SIZEOF_ROW) % CY_EM_EEPROM_ROWS_IN_ARRAY;
1012:Generated_Source\PSoC4/cy_em_eeprom.c **** 
1013:Generated_Source\PSoC4/cy_em_eeprom.c ****     /* Write the flash row */
1014:Generated_Source\PSoC4/cy_em_eeprom.c ****     #if (CY_PSOC4)
1015:Generated_Source\PSoC4/cy_em_eeprom.c ****         rc = CySysFlashWriteRow(rowId, (uint8 *)rowData);
1016:Generated_Source\PSoC4/cy_em_eeprom.c ****     #else
1017:Generated_Source\PSoC4/cy_em_eeprom.c **** 
1018:Generated_Source\PSoC4/cy_em_eeprom.c ****         #ifndef CY_EM_EEPROM_SKIP_TEMP_MEASUREMENT
1019:Generated_Source\PSoC4/cy_em_eeprom.c ****             (void)CySetTemp();
1020:Generated_Source\PSoC4/cy_em_eeprom.c ****         #endif /* (CY_EM_EEPROM_SKIP_TEMP_MEASUREMENT) */
1021:Generated_Source\PSoC4/cy_em_eeprom.c **** 
1022:Generated_Source\PSoC4/cy_em_eeprom.c ****         arrayId = rowAddr / CY_FLASH_SIZEOF_ARRAY;
1023:Generated_Source\PSoC4/cy_em_eeprom.c ****         rc = CyWriteRowData((uint8)arrayId, (uint16)rowId, (uint8 *)rowData);
1024:Generated_Source\PSoC4/cy_em_eeprom.c ****         
1025:Generated_Source\PSoC4/cy_em_eeprom.c ****         #if (CY_PSOC5)
1026:Generated_Source\PSoC4/cy_em_eeprom.c ****             CyFlushCache();
ARM GAS  C:\Users\Larry\AppData\Local\Temp\ccxlVo0w.s 			page 26


1027:Generated_Source\PSoC4/cy_em_eeprom.c ****         #endif /* (CY_PSOC5) */
1028:Generated_Source\PSoC4/cy_em_eeprom.c ****     #endif /* (CY_PSOC4) */
1029:Generated_Source\PSoC4/cy_em_eeprom.c **** 
1030:Generated_Source\PSoC4/cy_em_eeprom.c ****     if(CYRET_SUCCESS == rc)
1031:Generated_Source\PSoC4/cy_em_eeprom.c ****     {
1032:Generated_Source\PSoC4/cy_em_eeprom.c ****         ret = CY_EM_EEPROM_SUCCESS;
1033:Generated_Source\PSoC4/cy_em_eeprom.c ****     }
1034:Generated_Source\PSoC4/cy_em_eeprom.c **** #else /* PSoC 6 */
1035:Generated_Source\PSoC4/cy_em_eeprom.c ****     if(0u != context->blockingWrite)
1036:Generated_Source\PSoC4/cy_em_eeprom.c ****     {
1037:Generated_Source\PSoC4/cy_em_eeprom.c ****         /* Do blocking write */
1038:Generated_Source\PSoC4/cy_em_eeprom.c ****         if(CY_FLASH_DRV_SUCCESS == Cy_Flash_WriteRow(rowAddr, (const uint32 *)rowData))
1039:Generated_Source\PSoC4/cy_em_eeprom.c ****         {
1040:Generated_Source\PSoC4/cy_em_eeprom.c ****             ret = CY_EM_EEPROM_SUCCESS;
1041:Generated_Source\PSoC4/cy_em_eeprom.c ****         }
1042:Generated_Source\PSoC4/cy_em_eeprom.c ****     }
1043:Generated_Source\PSoC4/cy_em_eeprom.c ****     else
1044:Generated_Source\PSoC4/cy_em_eeprom.c ****     {
1045:Generated_Source\PSoC4/cy_em_eeprom.c ****         /* Initiate write */
1046:Generated_Source\PSoC4/cy_em_eeprom.c ****         if(CY_FLASH_DRV_OPERATION_STARTED == Cy_Flash_StartWrite(rowAddr, (const uint32 *)rowData))
1047:Generated_Source\PSoC4/cy_em_eeprom.c ****         {
1048:Generated_Source\PSoC4/cy_em_eeprom.c ****             uint32 countMs = CY_EM_EEPROM_MAX_WRITE_DURATION_MS;
1049:Generated_Source\PSoC4/cy_em_eeprom.c ****             cy_en_flashdrv_status_t rc;
1050:Generated_Source\PSoC4/cy_em_eeprom.c **** 
1051:Generated_Source\PSoC4/cy_em_eeprom.c ****             do
1052:Generated_Source\PSoC4/cy_em_eeprom.c ****             {
1053:Generated_Source\PSoC4/cy_em_eeprom.c ****                 CyDelay(1u);                         /* Wait 1ms */
1054:Generated_Source\PSoC4/cy_em_eeprom.c ****                 rc = Cy_Flash_IsWriteComplete();     /* Check if write completed */
1055:Generated_Source\PSoC4/cy_em_eeprom.c ****                 countMs--;
1056:Generated_Source\PSoC4/cy_em_eeprom.c ****             }
1057:Generated_Source\PSoC4/cy_em_eeprom.c ****             while ((rc == CY_FLASH_DRV_OPCODE_BUSY) && (0u != countMs));
1058:Generated_Source\PSoC4/cy_em_eeprom.c **** 
1059:Generated_Source\PSoC4/cy_em_eeprom.c ****             if(CY_FLASH_DRV_SUCCESS == rc)
1060:Generated_Source\PSoC4/cy_em_eeprom.c ****             {
1061:Generated_Source\PSoC4/cy_em_eeprom.c ****                 ret = CY_EM_EEPROM_SUCCESS;
1062:Generated_Source\PSoC4/cy_em_eeprom.c ****             }
1063:Generated_Source\PSoC4/cy_em_eeprom.c ****         }
1064:Generated_Source\PSoC4/cy_em_eeprom.c ****     }
1065:Generated_Source\PSoC4/cy_em_eeprom.c **** #endif /* (CY_PSOC6) */
1066:Generated_Source\PSoC4/cy_em_eeprom.c **** 
1067:Generated_Source\PSoC4/cy_em_eeprom.c ****     return (ret);
1068:Generated_Source\PSoC4/cy_em_eeprom.c **** }
1069:Generated_Source\PSoC4/cy_em_eeprom.c **** 
1070:Generated_Source\PSoC4/cy_em_eeprom.c **** 
1071:Generated_Source\PSoC4/cy_em_eeprom.c **** /*******************************************************************************
1072:Generated_Source\PSoC4/cy_em_eeprom.c **** * Function Name: EraseRow
1073:Generated_Source\PSoC4/cy_em_eeprom.c **** ****************************************************************************//**
1074:Generated_Source\PSoC4/cy_em_eeprom.c **** *
1075:Generated_Source\PSoC4/cy_em_eeprom.c **** * Erases one flash row starting from the specified row address. If the redundant
1076:Generated_Source\PSoC4/cy_em_eeprom.c **** * copy option is enabled the corresponding row in the redundant copy will also
1077:Generated_Source\PSoC4/cy_em_eeprom.c **** * be erased.
1078:Generated_Source\PSoC4/cy_em_eeprom.c **** *
1079:Generated_Source\PSoC4/cy_em_eeprom.c **** * \param rowAdd
1080:Generated_Source\PSoC4/cy_em_eeprom.c **** * The address of the flash row.
1081:Generated_Source\PSoC4/cy_em_eeprom.c **** *
1082:Generated_Source\PSoC4/cy_em_eeprom.c **** * \param ramBuffAddr
1083:Generated_Source\PSoC4/cy_em_eeprom.c **** * The address of the RAM buffer that contains zeroed data (used only for
ARM GAS  C:\Users\Larry\AppData\Local\Temp\ccxlVo0w.s 			page 27


1084:Generated_Source\PSoC4/cy_em_eeprom.c **** * non-PSoC 6 devices).
1085:Generated_Source\PSoC4/cy_em_eeprom.c **** *
1086:Generated_Source\PSoC4/cy_em_eeprom.c **** * \param context
1087:Generated_Source\PSoC4/cy_em_eeprom.c **** * The pointer to the EEPROM context structure \ref cy_stc_eeprom_context_t.
1088:Generated_Source\PSoC4/cy_em_eeprom.c **** *
1089:Generated_Source\PSoC4/cy_em_eeprom.c **** * \return
1090:Generated_Source\PSoC4/cy_em_eeprom.c **** * error / status code. See \ref cy_en_em_eeprom_status_t.
1091:Generated_Source\PSoC4/cy_em_eeprom.c **** *
1092:Generated_Source\PSoC4/cy_em_eeprom.c **** *******************************************************************************/
1093:Generated_Source\PSoC4/cy_em_eeprom.c **** static cy_en_em_eeprom_status_t EraseRow(uint32 rowAddr,
1094:Generated_Source\PSoC4/cy_em_eeprom.c ****                                         uint32 ramBuffAddr,
1095:Generated_Source\PSoC4/cy_em_eeprom.c ****                                         cy_stc_eeprom_context_t * context)
1096:Generated_Source\PSoC4/cy_em_eeprom.c **** {
1097:Generated_Source\PSoC4/cy_em_eeprom.c ****     uint32 emEepromRowAddr = rowAddr;
1098:Generated_Source\PSoC4/cy_em_eeprom.c ****     cy_en_em_eeprom_status_t ret = CY_EM_EEPROM_WRITE_FAIL;
1099:Generated_Source\PSoC4/cy_em_eeprom.c **** #if (CY_PSOC6)
1100:Generated_Source\PSoC4/cy_em_eeprom.c ****     uint32 i = 1u;
1101:Generated_Source\PSoC4/cy_em_eeprom.c **** 
1102:Generated_Source\PSoC4/cy_em_eeprom.c ****     (void)ramBuffAddr; /* To avoid compiler warning */
1103:Generated_Source\PSoC4/cy_em_eeprom.c **** 
1104:Generated_Source\PSoC4/cy_em_eeprom.c ****     if(0u != context->redundantCopy)
1105:Generated_Source\PSoC4/cy_em_eeprom.c ****     {
1106:Generated_Source\PSoC4/cy_em_eeprom.c ****         i++;
1107:Generated_Source\PSoC4/cy_em_eeprom.c ****     }
1108:Generated_Source\PSoC4/cy_em_eeprom.c **** 
1109:Generated_Source\PSoC4/cy_em_eeprom.c ****     do
1110:Generated_Source\PSoC4/cy_em_eeprom.c ****     {
1111:Generated_Source\PSoC4/cy_em_eeprom.c ****         if(0u != context->blockingWrite)
1112:Generated_Source\PSoC4/cy_em_eeprom.c ****         {
1113:Generated_Source\PSoC4/cy_em_eeprom.c ****             /* Erase the flash row */
1114:Generated_Source\PSoC4/cy_em_eeprom.c ****             if(CY_FLASH_DRV_SUCCESS == Cy_Flash_EraseRow(emEepromRowAddr))
1115:Generated_Source\PSoC4/cy_em_eeprom.c ****             {
1116:Generated_Source\PSoC4/cy_em_eeprom.c ****                 ret = CY_EM_EEPROM_SUCCESS;
1117:Generated_Source\PSoC4/cy_em_eeprom.c ****             }
1118:Generated_Source\PSoC4/cy_em_eeprom.c ****         }
1119:Generated_Source\PSoC4/cy_em_eeprom.c ****         else
1120:Generated_Source\PSoC4/cy_em_eeprom.c ****         {
1121:Generated_Source\PSoC4/cy_em_eeprom.c ****             /* Initiate erase */
1122:Generated_Source\PSoC4/cy_em_eeprom.c ****             if(CY_FLASH_DRV_OPERATION_STARTED == Cy_Flash_StartErase(emEepromRowAddr))
1123:Generated_Source\PSoC4/cy_em_eeprom.c ****             {
1124:Generated_Source\PSoC4/cy_em_eeprom.c ****                 uint32 countMs = CY_EM_EEPROM_MAX_WRITE_DURATION_MS;
1125:Generated_Source\PSoC4/cy_em_eeprom.c ****                 cy_en_flashdrv_status_t rc;
1126:Generated_Source\PSoC4/cy_em_eeprom.c **** 
1127:Generated_Source\PSoC4/cy_em_eeprom.c ****                 do
1128:Generated_Source\PSoC4/cy_em_eeprom.c ****                 {
1129:Generated_Source\PSoC4/cy_em_eeprom.c ****                     CyDelay(1u);                         /* Wait 1ms */
1130:Generated_Source\PSoC4/cy_em_eeprom.c ****                     rc = Cy_Flash_IsWriteComplete();     /* Check if erase completed */
1131:Generated_Source\PSoC4/cy_em_eeprom.c ****                     countMs--;
1132:Generated_Source\PSoC4/cy_em_eeprom.c ****                 }
1133:Generated_Source\PSoC4/cy_em_eeprom.c ****                 while ((rc == CY_FLASH_DRV_OPCODE_BUSY) && (0u != countMs));
1134:Generated_Source\PSoC4/cy_em_eeprom.c **** 
1135:Generated_Source\PSoC4/cy_em_eeprom.c ****                 if(CY_FLASH_DRV_SUCCESS == rc)
1136:Generated_Source\PSoC4/cy_em_eeprom.c ****                 {
1137:Generated_Source\PSoC4/cy_em_eeprom.c ****                     ret = CY_EM_EEPROM_SUCCESS;
1138:Generated_Source\PSoC4/cy_em_eeprom.c ****                 }
1139:Generated_Source\PSoC4/cy_em_eeprom.c ****             }
1140:Generated_Source\PSoC4/cy_em_eeprom.c ****         }
ARM GAS  C:\Users\Larry\AppData\Local\Temp\ccxlVo0w.s 			page 28


1141:Generated_Source\PSoC4/cy_em_eeprom.c **** 
1142:Generated_Source\PSoC4/cy_em_eeprom.c ****         if(CY_EM_EEPROM_SUCCESS == ret)
1143:Generated_Source\PSoC4/cy_em_eeprom.c ****         {
1144:Generated_Source\PSoC4/cy_em_eeprom.c ****             /* Update the address to point to the redundant copy row */
1145:Generated_Source\PSoC4/cy_em_eeprom.c ****             emEepromRowAddr = (emEepromRowAddr - context->userFlashStartAddr) + context->wlEndAddr;
1146:Generated_Source\PSoC4/cy_em_eeprom.c ****         }
1147:Generated_Source\PSoC4/cy_em_eeprom.c ****         else
1148:Generated_Source\PSoC4/cy_em_eeprom.c ****         {
1149:Generated_Source\PSoC4/cy_em_eeprom.c ****             break;
1150:Generated_Source\PSoC4/cy_em_eeprom.c ****         }
1151:Generated_Source\PSoC4/cy_em_eeprom.c ****         i--;
1152:Generated_Source\PSoC4/cy_em_eeprom.c ****     } while (0u != i);
1153:Generated_Source\PSoC4/cy_em_eeprom.c **** #else
1154:Generated_Source\PSoC4/cy_em_eeprom.c ****     /* Write the data to the specified flash row */
1155:Generated_Source\PSoC4/cy_em_eeprom.c ****     ret = WriteRow(emEepromRowAddr, (uint32 *)ramBuffAddr, context);
1156:Generated_Source\PSoC4/cy_em_eeprom.c **** 
1157:Generated_Source\PSoC4/cy_em_eeprom.c ****     if((CY_EM_EEPROM_SUCCESS == ret) && (0u != context->redundantCopy))
1158:Generated_Source\PSoC4/cy_em_eeprom.c ****     {
1159:Generated_Source\PSoC4/cy_em_eeprom.c ****         /* Update the address to point to the redundant copy row */
1160:Generated_Source\PSoC4/cy_em_eeprom.c ****         emEepromRowAddr = (emEepromRowAddr - context->userFlashStartAddr) + context->wlEndAddr;
1161:Generated_Source\PSoC4/cy_em_eeprom.c ****         ret = WriteRow(emEepromRowAddr, (uint32 *)ramBuffAddr, context);
1162:Generated_Source\PSoC4/cy_em_eeprom.c ****     }
1163:Generated_Source\PSoC4/cy_em_eeprom.c **** 
1164:Generated_Source\PSoC4/cy_em_eeprom.c ****     if(CY_EM_EEPROM_SUCCESS == ret)
1165:Generated_Source\PSoC4/cy_em_eeprom.c ****     {
1166:Generated_Source\PSoC4/cy_em_eeprom.c ****         context->lastWrRowAddr = rowAddr;
1167:Generated_Source\PSoC4/cy_em_eeprom.c ****     }
1168:Generated_Source\PSoC4/cy_em_eeprom.c **** #endif /* (CY_PSOC6) */
1169:Generated_Source\PSoC4/cy_em_eeprom.c **** 
1170:Generated_Source\PSoC4/cy_em_eeprom.c ****     return(ret);
1171:Generated_Source\PSoC4/cy_em_eeprom.c **** }
1172:Generated_Source\PSoC4/cy_em_eeprom.c **** 
1173:Generated_Source\PSoC4/cy_em_eeprom.c **** 
1174:Generated_Source\PSoC4/cy_em_eeprom.c **** /*******************************************************************************
1175:Generated_Source\PSoC4/cy_em_eeprom.c **** * Function Name: CheckCrcAndCopy
1176:Generated_Source\PSoC4/cy_em_eeprom.c **** ****************************************************************************//**
1177:Generated_Source\PSoC4/cy_em_eeprom.c **** *
1178:Generated_Source\PSoC4/cy_em_eeprom.c **** * Checks the checksum of the specific row in EEPROM. If the CRC matches - copies
1179:Generated_Source\PSoC4/cy_em_eeprom.c **** * the data to the "datAddr" from EEPROM. f the CRC does not match checks the
1180:Generated_Source\PSoC4/cy_em_eeprom.c **** * CRC of the corresponding row in the EEPROM's redundant copy. If the CRC
1181:Generated_Source\PSoC4/cy_em_eeprom.c **** * matches - copies the data to the "datAddr" from EEPROM redundant copy. If the
1182:Generated_Source\PSoC4/cy_em_eeprom.c **** * CRC of the redundant copy does not match - returns bad checksum.
1183:Generated_Source\PSoC4/cy_em_eeprom.c **** *
1184:Generated_Source\PSoC4/cy_em_eeprom.c **** * \param startAddr
1185:Generated_Source\PSoC4/cy_em_eeprom.c **** * The address that points to the start of the specified row.
1186:Generated_Source\PSoC4/cy_em_eeprom.c **** *
1187:Generated_Source\PSoC4/cy_em_eeprom.c **** * \param datAddr
1188:Generated_Source\PSoC4/cy_em_eeprom.c **** * The start address of where the row data will be copied if the CRC check
1189:Generated_Source\PSoC4/cy_em_eeprom.c **** * will succeed.
1190:Generated_Source\PSoC4/cy_em_eeprom.c **** *
1191:Generated_Source\PSoC4/cy_em_eeprom.c **** * \param rowOffset
1192:Generated_Source\PSoC4/cy_em_eeprom.c **** * The offset in the row from which the data should be copied.
1193:Generated_Source\PSoC4/cy_em_eeprom.c **** *
1194:Generated_Source\PSoC4/cy_em_eeprom.c **** * \param numBytes
1195:Generated_Source\PSoC4/cy_em_eeprom.c **** * The number of bytes to be copied.
1196:Generated_Source\PSoC4/cy_em_eeprom.c **** *
1197:Generated_Source\PSoC4/cy_em_eeprom.c **** * \param context
ARM GAS  C:\Users\Larry\AppData\Local\Temp\ccxlVo0w.s 			page 29


1198:Generated_Source\PSoC4/cy_em_eeprom.c **** * The pointer to the EEPROM context structure \ref cy_stc_eeprom_context_t.
1199:Generated_Source\PSoC4/cy_em_eeprom.c **** *
1200:Generated_Source\PSoC4/cy_em_eeprom.c **** * \return
1201:Generated_Source\PSoC4/cy_em_eeprom.c **** * error / status code. See \ref cy_en_em_eeprom_status_t.
1202:Generated_Source\PSoC4/cy_em_eeprom.c **** *
1203:Generated_Source\PSoC4/cy_em_eeprom.c **** * \note
1204:Generated_Source\PSoC4/cy_em_eeprom.c **** * This function uses a buffer of the flash row size to perform read
1205:Generated_Source\PSoC4/cy_em_eeprom.c **** * operation. For the size of the row refer to the specific PSoC device
1206:Generated_Source\PSoC4/cy_em_eeprom.c **** * datasheet.
1207:Generated_Source\PSoC4/cy_em_eeprom.c **** *
1208:Generated_Source\PSoC4/cy_em_eeprom.c **** *******************************************************************************/
1209:Generated_Source\PSoC4/cy_em_eeprom.c **** static cy_en_em_eeprom_status_t CheckCrcAndCopy(uint32 startAddr,
1210:Generated_Source\PSoC4/cy_em_eeprom.c ****                                                 uint32 dstAddr,
1211:Generated_Source\PSoC4/cy_em_eeprom.c ****                                                 uint32 rowOffset,
1212:Generated_Source\PSoC4/cy_em_eeprom.c ****                                                 uint32 numBytes,
1213:Generated_Source\PSoC4/cy_em_eeprom.c ****                                                 cy_stc_eeprom_context_t * context)
1214:Generated_Source\PSoC4/cy_em_eeprom.c **** {
1215:Generated_Source\PSoC4/cy_em_eeprom.c ****     cy_en_em_eeprom_status_t ret;
1216:Generated_Source\PSoC4/cy_em_eeprom.c ****     uint32 writeRamBuffer[CY_EM_EEPROM_FLASH_SIZEOF_ROW / CY_EM_EEPROM_U32_DIV];
1217:Generated_Source\PSoC4/cy_em_eeprom.c **** 
1218:Generated_Source\PSoC4/cy_em_eeprom.c ****     /* Calculate the row address in the EEPROM's redundant copy */
1219:Generated_Source\PSoC4/cy_em_eeprom.c ****     uint32 rcStartRowAddr = (startAddr - context->userFlashStartAddr) + context->wlEndAddr;
1220:Generated_Source\PSoC4/cy_em_eeprom.c **** 
1221:Generated_Source\PSoC4/cy_em_eeprom.c ****     /* Check the row data CRC in the EEPROM */
1222:Generated_Source\PSoC4/cy_em_eeprom.c ****     if((*(uint32 *)(startAddr + CY_EM_EEPROM_HEADER_CHECKSUM_OFFSET)) ==
1223:Generated_Source\PSoC4/cy_em_eeprom.c ****         ((uint32) CalcChecksum((uint8 *)(startAddr + CY_EM_EEPROM_EEPROM_DATA_OFFSET),
1224:Generated_Source\PSoC4/cy_em_eeprom.c ****             CY_EM_EEPROM_EEPROM_DATA_LEN)))
1225:Generated_Source\PSoC4/cy_em_eeprom.c ****     {
1226:Generated_Source\PSoC4/cy_em_eeprom.c ****         (void)memcpy((void *)(dstAddr), (void *)(startAddr + rowOffset), numBytes);
1227:Generated_Source\PSoC4/cy_em_eeprom.c **** 
1228:Generated_Source\PSoC4/cy_em_eeprom.c ****         ret = CY_EM_EEPROM_SUCCESS;
1229:Generated_Source\PSoC4/cy_em_eeprom.c ****     }
1230:Generated_Source\PSoC4/cy_em_eeprom.c ****     /* Check the row data CRC in the EEPROM's redundant copy */
1231:Generated_Source\PSoC4/cy_em_eeprom.c ****     else if((*(uint32 *)(rcStartRowAddr + CY_EM_EEPROM_HEADER_CHECKSUM_OFFSET)) ==
1232:Generated_Source\PSoC4/cy_em_eeprom.c ****             ((uint32) CalcChecksum((uint8 *)(rcStartRowAddr + CY_EM_EEPROM_EEPROM_DATA_OFFSET),
1233:Generated_Source\PSoC4/cy_em_eeprom.c ****                 CY_EM_EEPROM_EEPROM_DATA_LEN)))
1234:Generated_Source\PSoC4/cy_em_eeprom.c ****     {
1235:Generated_Source\PSoC4/cy_em_eeprom.c ****         /* Copy the redundant copy row to RAM buffer to avoid read while write (RWW)
1236:Generated_Source\PSoC4/cy_em_eeprom.c ****         * flash exception. The RWW occurs while trying to write and read the data from
1237:Generated_Source\PSoC4/cy_em_eeprom.c ****         * same flash macro.
1238:Generated_Source\PSoC4/cy_em_eeprom.c ****         */
1239:Generated_Source\PSoC4/cy_em_eeprom.c ****         (void)memcpy((void *)(writeRamBuffer), (void *)(rcStartRowAddr), CY_EM_EEPROM_FLASH_SIZEOF_
1240:Generated_Source\PSoC4/cy_em_eeprom.c **** 
1241:Generated_Source\PSoC4/cy_em_eeprom.c ****         /* Restore bad row data from the RAM buffer */
1242:Generated_Source\PSoC4/cy_em_eeprom.c ****         ret = WriteRow(startAddr, (uint32 *)writeRamBuffer, context);
1243:Generated_Source\PSoC4/cy_em_eeprom.c **** 
1244:Generated_Source\PSoC4/cy_em_eeprom.c ****         if(CY_EM_EEPROM_SUCCESS == ret)
1245:Generated_Source\PSoC4/cy_em_eeprom.c ****         {
1246:Generated_Source\PSoC4/cy_em_eeprom.c ****             (void)memcpy((void *)(dstAddr), (void *)(writeRamBuffer + rowOffset), numBytes);
1247:Generated_Source\PSoC4/cy_em_eeprom.c ****         }
1248:Generated_Source\PSoC4/cy_em_eeprom.c ****     }
1249:Generated_Source\PSoC4/cy_em_eeprom.c ****     else
1250:Generated_Source\PSoC4/cy_em_eeprom.c ****     {
1251:Generated_Source\PSoC4/cy_em_eeprom.c ****         ret = CY_EM_EEPROM_BAD_CHECKSUM;
1252:Generated_Source\PSoC4/cy_em_eeprom.c ****     }
1253:Generated_Source\PSoC4/cy_em_eeprom.c **** 
1254:Generated_Source\PSoC4/cy_em_eeprom.c ****     return(ret);
ARM GAS  C:\Users\Larry\AppData\Local\Temp\ccxlVo0w.s 			page 30


1255:Generated_Source\PSoC4/cy_em_eeprom.c **** }
1256:Generated_Source\PSoC4/cy_em_eeprom.c **** 
1257:Generated_Source\PSoC4/cy_em_eeprom.c **** 
1258:Generated_Source\PSoC4/cy_em_eeprom.c **** /*******************************************************************************
1259:Generated_Source\PSoC4/cy_em_eeprom.c **** * Function Name: GetAddresses
1260:Generated_Source\PSoC4/cy_em_eeprom.c **** ****************************************************************************//**
1261:Generated_Source\PSoC4/cy_em_eeprom.c **** *
1262:Generated_Source\PSoC4/cy_em_eeprom.c **** * Calculates the start and end address of the row's EEPROM data to be updated.
1263:Generated_Source\PSoC4/cy_em_eeprom.c **** * The start and end are not absolute addresses but a relative addresses in a
1264:Generated_Source\PSoC4/cy_em_eeprom.c **** * flash row.
1265:Generated_Source\PSoC4/cy_em_eeprom.c **** *
1266:Generated_Source\PSoC4/cy_em_eeprom.c **** * \param startAddr
1267:Generated_Source\PSoC4/cy_em_eeprom.c **** * The pointer the address where the EEPROM data start address will be returned.
1268:Generated_Source\PSoC4/cy_em_eeprom.c **** *
1269:Generated_Source\PSoC4/cy_em_eeprom.c **** * \param endAddr
1270:Generated_Source\PSoC4/cy_em_eeprom.c **** * The pointer the address where the EEPROM data end address will be returned.
1271:Generated_Source\PSoC4/cy_em_eeprom.c **** *
1272:Generated_Source\PSoC4/cy_em_eeprom.c **** * \param offset
1273:Generated_Source\PSoC4/cy_em_eeprom.c **** * The pointer the address where the calculated offset of the EEPROM header data
1274:Generated_Source\PSoC4/cy_em_eeprom.c **** * will be returned.
1275:Generated_Source\PSoC4/cy_em_eeprom.c **** *
1276:Generated_Source\PSoC4/cy_em_eeprom.c **** * \param rowNum
1277:Generated_Source\PSoC4/cy_em_eeprom.c **** * The row number that is about to be written.
1278:Generated_Source\PSoC4/cy_em_eeprom.c **** *
1279:Generated_Source\PSoC4/cy_em_eeprom.c **** * \param addr
1280:Generated_Source\PSoC4/cy_em_eeprom.c **** * The address of the EEPROM header data in the currently analyzed row that may
1281:Generated_Source\PSoC4/cy_em_eeprom.c **** * concern to the row about to be written.
1282:Generated_Source\PSoC4/cy_em_eeprom.c **** *
1283:Generated_Source\PSoC4/cy_em_eeprom.c **** * \param len
1284:Generated_Source\PSoC4/cy_em_eeprom.c **** * The length of the EEPROM header data in the currently analyzed row that may
1285:Generated_Source\PSoC4/cy_em_eeprom.c **** * concern to the row about to be written.
1286:Generated_Source\PSoC4/cy_em_eeprom.c **** *
1287:Generated_Source\PSoC4/cy_em_eeprom.c **** * \return
1288:Generated_Source\PSoC4/cy_em_eeprom.c **** * Zero indicates that the currently analyzed row has the data to be written to
1289:Generated_Source\PSoC4/cy_em_eeprom.c **** * the active EEPROM row data locations. Non zero value indicates that there is
1290:Generated_Source\PSoC4/cy_em_eeprom.c **** * no data to be written
1291:Generated_Source\PSoC4/cy_em_eeprom.c **** *
1292:Generated_Source\PSoC4/cy_em_eeprom.c **** *******************************************************************************/
1293:Generated_Source\PSoC4/cy_em_eeprom.c **** static uint32 GetAddresses(uint32 *startAddr, 
1294:Generated_Source\PSoC4/cy_em_eeprom.c ****                         uint32 *endAddr, 
1295:Generated_Source\PSoC4/cy_em_eeprom.c ****                         uint32 *offset,
1296:Generated_Source\PSoC4/cy_em_eeprom.c ****                         uint32 rowNum,
1297:Generated_Source\PSoC4/cy_em_eeprom.c ****                         uint32 addr,
1298:Generated_Source\PSoC4/cy_em_eeprom.c ****                         uint32 len)
1299:Generated_Source\PSoC4/cy_em_eeprom.c **** {
 387              		.loc 1 1299 0
 388              		.cfi_startproc
 389              		@ args = 8, pretend = 0, frame = 0
 390              		@ frame_needed = 0, uses_anonymous_args = 0
 391              	.LVL51:
 392 0000 F0B5     		push	{r4, r5, r6, r7, lr}
 393              		.cfi_def_cfa_offset 20
 394              		.cfi_offset 4, -20
 395              		.cfi_offset 5, -16
 396              		.cfi_offset 6, -12
 397              		.cfi_offset 7, -8
 398              		.cfi_offset 14, -4
ARM GAS  C:\Users\Larry\AppData\Local\Temp\ccxlVo0w.s 			page 31


 399 0002 059C     		ldr	r4, [sp, #20]
 400              	.LVL52:
1300:Generated_Source\PSoC4/cy_em_eeprom.c ****     uint32 skip = 0u;
1301:Generated_Source\PSoC4/cy_em_eeprom.c **** 
1302:Generated_Source\PSoC4/cy_em_eeprom.c ****     *offset =0u;
 401              		.loc 1 1302 0
 402 0004 0025     		movs	r5, #0
 403 0006 1560     		str	r5, [r2]
1303:Generated_Source\PSoC4/cy_em_eeprom.c **** 
1304:Generated_Source\PSoC4/cy_em_eeprom.c ****     if(0u != CY_EM_EEPROM_IS_ADDR_IN_ROW_RANGE(addr, rowNum))
 404              		.loc 1 1304 0
 405 0008 9D01     		lsls	r5, r3, #6
 406 000a A542     		cmp	r5, r4
 407 000c 06D8     		bhi	.L37
 408              		.loc 1 1304 0 is_stmt 0 discriminator 1
 409 000e 5E1C     		adds	r6, r3, #1
 410 0010 B601     		lsls	r6, r6, #6
 411 0012 013E     		subs	r6, r6, #1
 412 0014 B442     		cmp	r4, r6
 413 0016 03D9     		bls	.L38
 414              		.loc 1 1304 0
 415 0018 0026     		movs	r6, #0
 416 001a 02E0     		b	.L31
 417              	.L37:
 418 001c 0026     		movs	r6, #0
 419 001e 00E0     		b	.L31
 420              	.L38:
 421 0020 0126     		movs	r6, #1
 422              	.L31:
 423              		.loc 1 1304 0 discriminator 6
 424 0022 002E     		cmp	r6, #0
 425 0024 1ED0     		beq	.L32
1305:Generated_Source\PSoC4/cy_em_eeprom.c ****     {
1306:Generated_Source\PSoC4/cy_em_eeprom.c ****         *startAddr = CY_EM_EEPROM_EEPROM_DATA_LEN + (addr % CY_EM_EEPROM_EEPROM_DATA_LEN);
 426              		.loc 1 1306 0 is_stmt 1
 427 0026 3F22     		movs	r2, #63
 428              	.LVL53:
 429 0028 2240     		ands	r2, r4
 430 002a 4032     		adds	r2, r2, #64
 431 002c 0260     		str	r2, [r0]
1307:Generated_Source\PSoC4/cy_em_eeprom.c **** 
1308:Generated_Source\PSoC4/cy_em_eeprom.c ****         if(0u != CY_EM_EEPROM_IS_ADDR_IN_ROW_RANGE(addr + len, rowNum))
 432              		.loc 1 1308 0
 433 002e 0698     		ldr	r0, [sp, #24]
 434              	.LVL54:
 435 0030 8446     		mov	ip, r0
 436 0032 6444     		add	r4, r4, ip
 437 0034 A542     		cmp	r5, r4
 438 0036 06D8     		bhi	.L39
 439              		.loc 1 1308 0 is_stmt 0 discriminator 1
 440 0038 0133     		adds	r3, r3, #1
 441              	.LVL55:
 442 003a 9B01     		lsls	r3, r3, #6
 443              	.LVL56:
 444 003c 013B     		subs	r3, r3, #1
 445 003e 9C42     		cmp	r4, r3
 446 0040 03D9     		bls	.L40
ARM GAS  C:\Users\Larry\AppData\Local\Temp\ccxlVo0w.s 			page 32


 447              		.loc 1 1308 0
 448 0042 0023     		movs	r3, #0
 449 0044 02E0     		b	.L33
 450              	.LVL57:
 451              	.L39:
 452 0046 0023     		movs	r3, #0
 453              	.LVL58:
 454 0048 00E0     		b	.L33
 455              	.L40:
 456 004a 0123     		movs	r3, #1
 457              	.L33:
 458              		.loc 1 1308 0 discriminator 6
 459 004c 002B     		cmp	r3, #0
 460 004e 05D0     		beq	.L34
1309:Generated_Source\PSoC4/cy_em_eeprom.c ****         {
1310:Generated_Source\PSoC4/cy_em_eeprom.c ****             *endAddr = *startAddr + len;
 461              		.loc 1 1310 0 is_stmt 1
 462 0050 069B     		ldr	r3, [sp, #24]
 463 0052 9C46     		mov	ip, r3
 464 0054 6244     		add	r2, r2, ip
 465 0056 0A60     		str	r2, [r1]
1300:Generated_Source\PSoC4/cy_em_eeprom.c **** 
 466              		.loc 1 1300 0
 467 0058 0020     		movs	r0, #0
 468 005a 21E0     		b	.L35
 469              	.L34:
1311:Generated_Source\PSoC4/cy_em_eeprom.c ****         }
1312:Generated_Source\PSoC4/cy_em_eeprom.c ****         else
1313:Generated_Source\PSoC4/cy_em_eeprom.c ****         {
1314:Generated_Source\PSoC4/cy_em_eeprom.c ****             *endAddr = CY_EM_EEPROM_FLASH_SIZEOF_ROW;
 470              		.loc 1 1314 0
 471 005c 8023     		movs	r3, #128
 472 005e 0B60     		str	r3, [r1]
1300:Generated_Source\PSoC4/cy_em_eeprom.c **** 
 473              		.loc 1 1300 0
 474 0060 0020     		movs	r0, #0
 475 0062 1DE0     		b	.L35
 476              	.LVL59:
 477              	.L32:
1315:Generated_Source\PSoC4/cy_em_eeprom.c ****         }
1316:Generated_Source\PSoC4/cy_em_eeprom.c ****     }
1317:Generated_Source\PSoC4/cy_em_eeprom.c ****     else
1318:Generated_Source\PSoC4/cy_em_eeprom.c ****     {
1319:Generated_Source\PSoC4/cy_em_eeprom.c **** 
1320:Generated_Source\PSoC4/cy_em_eeprom.c ****         if(0u != CY_EM_EEPROM_IS_ADDR_IN_ROW_RANGE(addr + len, rowNum))
 478              		.loc 1 1320 0
 479 0064 069F     		ldr	r7, [sp, #24]
 480 0066 E719     		adds	r7, r4, r7
 481 0068 BD42     		cmp	r5, r7
 482 006a 05D8     		bhi	.L36
 483              		.loc 1 1320 0 is_stmt 0 discriminator 1
 484 006c 0133     		adds	r3, r3, #1
 485              	.LVL60:
 486 006e 9B01     		lsls	r3, r3, #6
 487              	.LVL61:
 488 0070 013B     		subs	r3, r3, #1
 489 0072 9F42     		cmp	r7, r3
ARM GAS  C:\Users\Larry\AppData\Local\Temp\ccxlVo0w.s 			page 33


 490 0074 00D8     		bhi	.L36
 491              		.loc 1 1320 0
 492 0076 0126     		movs	r6, #1
 493              	.L36:
 494              		.loc 1 1320 0 discriminator 6
 495 0078 002E     		cmp	r6, #0
 496 007a 10D0     		beq	.L42
1321:Generated_Source\PSoC4/cy_em_eeprom.c ****         {
1322:Generated_Source\PSoC4/cy_em_eeprom.c ****             *startAddr = CY_EM_EEPROM_EEPROM_DATA_LEN;
 497              		.loc 1 1322 0 is_stmt 1
 498 007c 4023     		movs	r3, #64
 499 007e 0360     		str	r3, [r0]
1323:Generated_Source\PSoC4/cy_em_eeprom.c ****             *endAddr = (*startAddr + len) - (*startAddr - (addr % CY_EM_EEPROM_EEPROM_DATA_LEN));
 500              		.loc 1 1323 0
 501 0080 069B     		ldr	r3, [sp, #24]
 502 0082 4033     		adds	r3, r3, #64
 503 0084 3F25     		movs	r5, #63
 504 0086 2C40     		ands	r4, r5
 505 0088 403C     		subs	r4, r4, #64
 506 008a 1C19     		adds	r4, r3, r4
 507 008c 0C60     		str	r4, [r1]
1324:Generated_Source\PSoC4/cy_em_eeprom.c ****             *offset = len - (*endAddr - *startAddr);
 508              		.loc 1 1324 0
 509 008e 0368     		ldr	r3, [r0]
 510 0090 1C1B     		subs	r4, r3, r4
 511 0092 069B     		ldr	r3, [sp, #24]
 512 0094 9C46     		mov	ip, r3
 513 0096 6444     		add	r4, r4, ip
 514 0098 1460     		str	r4, [r2]
1300:Generated_Source\PSoC4/cy_em_eeprom.c **** 
 515              		.loc 1 1300 0
 516 009a 0020     		movs	r0, #0
 517              	.LVL62:
 518 009c 00E0     		b	.L35
 519              	.LVL63:
 520              	.L42:
1325:Generated_Source\PSoC4/cy_em_eeprom.c ****         }
1326:Generated_Source\PSoC4/cy_em_eeprom.c ****         else
1327:Generated_Source\PSoC4/cy_em_eeprom.c ****         {
1328:Generated_Source\PSoC4/cy_em_eeprom.c ****             skip++;
 521              		.loc 1 1328 0
 522 009e 0120     		movs	r0, #1
 523              	.LVL64:
 524              	.L35:
1329:Generated_Source\PSoC4/cy_em_eeprom.c ****         }
1330:Generated_Source\PSoC4/cy_em_eeprom.c ****     }
1331:Generated_Source\PSoC4/cy_em_eeprom.c **** 
1332:Generated_Source\PSoC4/cy_em_eeprom.c ****     return (skip);
1333:Generated_Source\PSoC4/cy_em_eeprom.c **** }
 525              		.loc 1 1333 0
 526              		@ sp needed
 527 00a0 F0BD     		pop	{r4, r5, r6, r7, pc}
 528              		.cfi_endproc
 529              	.LFE14:
 530              		.size	GetAddresses, .-GetAddresses
 531 00a2 C046     		.section	.text.WriteRow,"ax",%progbits
 532              		.align	2
ARM GAS  C:\Users\Larry\AppData\Local\Temp\ccxlVo0w.s 			page 34


 533              		.code	16
 534              		.thumb_func
 535              		.type	WriteRow, %function
 536              	WriteRow:
 537              	.LFB11:
 994:Generated_Source\PSoC4/cy_em_eeprom.c ****     cy_en_em_eeprom_status_t ret = CY_EM_EEPROM_WRITE_FAIL;
 538              		.loc 1 994 0
 539              		.cfi_startproc
 540              		@ args = 0, pretend = 0, frame = 0
 541              		@ frame_needed = 0, uses_anonymous_args = 0
 542              	.LVL65:
 543 0000 10B5     		push	{r4, lr}
 544              		.cfi_def_cfa_offset 8
 545              		.cfi_offset 4, -8
 546              		.cfi_offset 14, -4
 547              	.LVL66:
1011:Generated_Source\PSoC4/cy_em_eeprom.c **** 
 548              		.loc 1 1011 0
 549 0002 C009     		lsrs	r0, r0, #7
 550              	.LVL67:
 551 0004 C005     		lsls	r0, r0, #23
 552 0006 C00D     		lsrs	r0, r0, #23
 553              	.LVL68:
1015:Generated_Source\PSoC4/cy_em_eeprom.c ****     #else
 554              		.loc 1 1015 0
 555 0008 FFF7FEFF 		bl	CySysFlashWriteRow
 556              	.LVL69:
1030:Generated_Source\PSoC4/cy_em_eeprom.c ****     {
 557              		.loc 1 1030 0
 558 000c 0028     		cmp	r0, #0
 559 000e 01D0     		beq	.L45
 995:Generated_Source\PSoC4/cy_em_eeprom.c **** #if (!CY_PSOC6)
 560              		.loc 1 995 0
 561 0010 0420     		movs	r0, #4
 562              	.LVL70:
 563 0012 00E0     		b	.L44
 564              	.LVL71:
 565              	.L45:
1032:Generated_Source\PSoC4/cy_em_eeprom.c ****     }
 566              		.loc 1 1032 0
 567 0014 0020     		movs	r0, #0
 568              	.LVL72:
 569              	.L44:
1068:Generated_Source\PSoC4/cy_em_eeprom.c **** 
 570              		.loc 1 1068 0
 571              		@ sp needed
 572 0016 10BD     		pop	{r4, pc}
 573              		.cfi_endproc
 574              	.LFE11:
 575              		.size	WriteRow, .-WriteRow
 576              		.section	.text.FillChecksum,"ax",%progbits
 577              		.align	2
 578              		.code	16
 579              		.thumb_func
 580              		.type	FillChecksum, %function
 581              	FillChecksum:
 582              	.LFB15:
ARM GAS  C:\Users\Larry\AppData\Local\Temp\ccxlVo0w.s 			page 35


1334:Generated_Source\PSoC4/cy_em_eeprom.c **** 
1335:Generated_Source\PSoC4/cy_em_eeprom.c **** 
1336:Generated_Source\PSoC4/cy_em_eeprom.c **** /*******************************************************************************
1337:Generated_Source\PSoC4/cy_em_eeprom.c **** * Function Name: FillChecksum
1338:Generated_Source\PSoC4/cy_em_eeprom.c **** ****************************************************************************//**
1339:Generated_Source\PSoC4/cy_em_eeprom.c **** *
1340:Generated_Source\PSoC4/cy_em_eeprom.c **** * Performs calculation of the checksum on each row in the Em_EEPROM and fills
1341:Generated_Source\PSoC4/cy_em_eeprom.c **** * the Em_EEPROM headers checksum field with the calculated checksums.
1342:Generated_Source\PSoC4/cy_em_eeprom.c **** *
1343:Generated_Source\PSoC4/cy_em_eeprom.c **** * \param context
1344:Generated_Source\PSoC4/cy_em_eeprom.c **** * The pointer to the EEPROM context structure.
1345:Generated_Source\PSoC4/cy_em_eeprom.c **** *
1346:Generated_Source\PSoC4/cy_em_eeprom.c **** * \return
1347:Generated_Source\PSoC4/cy_em_eeprom.c **** * error / status code. See \ref cy_en_em_eeprom_status_t.
1348:Generated_Source\PSoC4/cy_em_eeprom.c **** *
1349:Generated_Source\PSoC4/cy_em_eeprom.c **** * \theory 
1350:Generated_Source\PSoC4/cy_em_eeprom.c **** * In case if redundant copy option is used the Em_EEPROM would return bad 
1351:Generated_Source\PSoC4/cy_em_eeprom.c **** * checksum while trying to read the EEPROM rows which were not yet written by 
1352:Generated_Source\PSoC4/cy_em_eeprom.c **** * the user. E.g. any read after device reprogramming without previous Write() 
1353:Generated_Source\PSoC4/cy_em_eeprom.c **** * operation to the EEPROM would fail. This would happen because the Em_EEPROM 
1354:Generated_Source\PSoC4/cy_em_eeprom.c **** * headers checksum field values (which is zero at the moment) would not be 
1355:Generated_Source\PSoC4/cy_em_eeprom.c **** * equal to the actual data checksum. This function allows to avoid read failure
1356:Generated_Source\PSoC4/cy_em_eeprom.c **** * after device reprogramming. 
1357:Generated_Source\PSoC4/cy_em_eeprom.c **** *
1358:Generated_Source\PSoC4/cy_em_eeprom.c **** * \note
1359:Generated_Source\PSoC4/cy_em_eeprom.c **** * This function uses a buffer of the flash row size to perform read
1360:Generated_Source\PSoC4/cy_em_eeprom.c **** * operation. For the size of the row refer to the specific PSoC device
1361:Generated_Source\PSoC4/cy_em_eeprom.c **** * datasheet.
1362:Generated_Source\PSoC4/cy_em_eeprom.c **** *
1363:Generated_Source\PSoC4/cy_em_eeprom.c **** *******************************************************************************/
1364:Generated_Source\PSoC4/cy_em_eeprom.c **** static cy_en_em_eeprom_status_t FillChecksum(cy_stc_eeprom_context_t * context)
1365:Generated_Source\PSoC4/cy_em_eeprom.c **** {
 583              		.loc 1 1365 0
 584              		.cfi_startproc
 585              		@ args = 0, pretend = 0, frame = 136
 586              		@ frame_needed = 0, uses_anonymous_args = 0
 587              	.LVL73:
 588 0000 F0B5     		push	{r4, r5, r6, r7, lr}
 589              		.cfi_def_cfa_offset 20
 590              		.cfi_offset 4, -20
 591              		.cfi_offset 5, -16
 592              		.cfi_offset 6, -12
 593              		.cfi_offset 7, -8
 594              		.cfi_offset 14, -4
 595 0002 A3B0     		sub	sp, sp, #140
 596              		.cfi_def_cfa_offset 160
 597 0004 0400     		movs	r4, r0
1366:Generated_Source\PSoC4/cy_em_eeprom.c ****     uint32 i;
1367:Generated_Source\PSoC4/cy_em_eeprom.c ****     uint32 rdAddr;
1368:Generated_Source\PSoC4/cy_em_eeprom.c ****     uint32 writeRamBuffer[CY_EM_EEPROM_FLASH_SIZEOF_ROW / CY_EM_EEPROM_U32_DIV];
1369:Generated_Source\PSoC4/cy_em_eeprom.c ****     uint32 wrAddr = context->lastWrRowAddr;
 598              		.loc 1 1369 0
 599 0006 8368     		ldr	r3, [r0, #8]
 600 0008 0093     		str	r3, [sp]
1370:Generated_Source\PSoC4/cy_em_eeprom.c ****     uint32 tmpRowAddr;
1371:Generated_Source\PSoC4/cy_em_eeprom.c ****     /* Get the sequence number (number of writes) */
1372:Generated_Source\PSoC4/cy_em_eeprom.c ****     uint32 seqNum = CY_EM_EEPROM_GET_SEQ_NUM(wrAddr);
ARM GAS  C:\Users\Larry\AppData\Local\Temp\ccxlVo0w.s 			page 36


 601              		.loc 1 1372 0
 602 000a 1D68     		ldr	r5, [r3]
 603              	.LVL74:
1373:Generated_Source\PSoC4/cy_em_eeprom.c ****     cy_en_em_eeprom_status_t ret = CY_EM_EEPROM_BAD_PARAM;
 604              		.loc 1 1373 0
 605 000c 0126     		movs	r6, #1
1374:Generated_Source\PSoC4/cy_em_eeprom.c **** 
1375:Generated_Source\PSoC4/cy_em_eeprom.c ****     for(i = 0u; i < (context->numberOfRows * context->wearLevelingFactor); i++)
 606              		.loc 1 1375 0
 607 000e 0027     		movs	r7, #0
 608 0010 23E0     		b	.L47
 609              	.LVL75:
 610              	.L48:
1376:Generated_Source\PSoC4/cy_em_eeprom.c ****     {
1377:Generated_Source\PSoC4/cy_em_eeprom.c ****         /* Copy the EEPROM row from Flash to RAM */
1378:Generated_Source\PSoC4/cy_em_eeprom.c ****         (void)memcpy((void *)&writeRamBuffer[0u], (void *)(wrAddr), CY_EM_EEPROM_FLASH_SIZEOF_ROW);
 611              		.loc 1 1378 0 discriminator 3
 612 0012 009E     		ldr	r6, [sp]
 613              	.LVL76:
 614 0014 8022     		movs	r2, #128
 615 0016 3100     		movs	r1, r6
 616 0018 01A8     		add	r0, sp, #4
 617 001a FFF7FEFF 		bl	memcpy
 618              	.LVL77:
1379:Generated_Source\PSoC4/cy_em_eeprom.c **** 
1380:Generated_Source\PSoC4/cy_em_eeprom.c ****         /* Increment the sequence number */
1381:Generated_Source\PSoC4/cy_em_eeprom.c ****         seqNum++;
 619              		.loc 1 1381 0 discriminator 3
 620 001e 0135     		adds	r5, r5, #1
 621              	.LVL78:
1382:Generated_Source\PSoC4/cy_em_eeprom.c ****         writeRamBuffer[CY_EM_EEPROM_HEADER_SEQ_NUM_OFFSET_U32] = seqNum;
 622              		.loc 1 1382 0 discriminator 3
 623 0020 0195     		str	r5, [sp, #4]
1383:Generated_Source\PSoC4/cy_em_eeprom.c **** 
1384:Generated_Source\PSoC4/cy_em_eeprom.c ****         /* Calculate and fill the checksum to the Em_EEPROM header */
1385:Generated_Source\PSoC4/cy_em_eeprom.c ****         writeRamBuffer[CY_EM_EEPROM_HEADER_CHECKSUM_OFFSET_U32] = (uint32)
1386:Generated_Source\PSoC4/cy_em_eeprom.c ****                     CalcChecksum((uint8 *) &writeRamBuffer[CY_EM_EEPROM_EEPROM_DATA_OFFSET_U32],
 624              		.loc 1 1386 0 discriminator 3
 625 0022 4021     		movs	r1, #64
 626 0024 11A8     		add	r0, sp, #68
 627 0026 FFF7FEFF 		bl	CalcChecksum
 628              	.LVL79:
1385:Generated_Source\PSoC4/cy_em_eeprom.c ****                     CalcChecksum((uint8 *) &writeRamBuffer[CY_EM_EEPROM_EEPROM_DATA_OFFSET_U32],
 629              		.loc 1 1385 0 discriminator 3
 630 002a 1090     		str	r0, [sp, #64]
1387:Generated_Source\PSoC4/cy_em_eeprom.c ****                                               CY_EM_EEPROM_EEPROM_DATA_LEN);
1388:Generated_Source\PSoC4/cy_em_eeprom.c **** 
1389:Generated_Source\PSoC4/cy_em_eeprom.c ****         /* Write the data to the specified flash row */
1390:Generated_Source\PSoC4/cy_em_eeprom.c ****         ret = WriteRow(wrAddr, writeRamBuffer, context);
 631              		.loc 1 1390 0 discriminator 3
 632 002c 2200     		movs	r2, r4
 633 002e 01A9     		add	r1, sp, #4
 634 0030 3000     		movs	r0, r6
 635 0032 FFF7FEFF 		bl	WriteRow
 636              	.LVL80:
1391:Generated_Source\PSoC4/cy_em_eeprom.c **** 
1392:Generated_Source\PSoC4/cy_em_eeprom.c ****         /* Update the row address to point to the relevant row in the redundant 
ARM GAS  C:\Users\Larry\AppData\Local\Temp\ccxlVo0w.s 			page 37


1393:Generated_Source\PSoC4/cy_em_eeprom.c ****         * EEPROM's copy.
1394:Generated_Source\PSoC4/cy_em_eeprom.c ****         */
1395:Generated_Source\PSoC4/cy_em_eeprom.c ****         tmpRowAddr = (wrAddr - context->userFlashStartAddr) + context->wlEndAddr;
 637              		.loc 1 1395 0 discriminator 3
 638 0036 009B     		ldr	r3, [sp]
 639 0038 A269     		ldr	r2, [r4, #24]
 640 003a 981A     		subs	r0, r3, r2
 641 003c 2368     		ldr	r3, [r4]
 642 003e 9C46     		mov	ip, r3
 643 0040 6044     		add	r0, r0, ip
 644              	.LVL81:
1396:Generated_Source\PSoC4/cy_em_eeprom.c **** 
1397:Generated_Source\PSoC4/cy_em_eeprom.c ****         /* Write the data to the specified flash row */
1398:Generated_Source\PSoC4/cy_em_eeprom.c ****         ret = WriteRow(tmpRowAddr, writeRamBuffer, context);
 645              		.loc 1 1398 0 discriminator 3
 646 0042 2200     		movs	r2, r4
 647 0044 01A9     		add	r1, sp, #4
 648 0046 FFF7FEFF 		bl	WriteRow
 649              	.LVL82:
 650 004a 0600     		movs	r6, r0
 651              	.LVL83:
1399:Generated_Source\PSoC4/cy_em_eeprom.c **** 
1400:Generated_Source\PSoC4/cy_em_eeprom.c ****         /* Get the address of the next row to be written. 
1401:Generated_Source\PSoC4/cy_em_eeprom.c ****         * "rdAddr" is not used in this function but provided to prevent NULL 
1402:Generated_Source\PSoC4/cy_em_eeprom.c ****         * pointer exception in GetNextRowToWrite().
1403:Generated_Source\PSoC4/cy_em_eeprom.c ****         */
1404:Generated_Source\PSoC4/cy_em_eeprom.c ****         GetNextRowToWrite(seqNum, &wrAddr, &rdAddr, context);
 652              		.loc 1 1404 0 discriminator 3
 653 004c 2300     		movs	r3, r4
 654 004e 21AA     		add	r2, sp, #132
 655 0050 6946     		mov	r1, sp
 656 0052 2800     		movs	r0, r5
 657              	.LVL84:
 658 0054 FFF7FEFF 		bl	GetNextRowToWrite
 659              	.LVL85:
1375:Generated_Source\PSoC4/cy_em_eeprom.c ****     {
 660              		.loc 1 1375 0 discriminator 3
 661 0058 0137     		adds	r7, r7, #1
 662              	.LVL86:
 663              	.L47:
1375:Generated_Source\PSoC4/cy_em_eeprom.c ****     {
 664              		.loc 1 1375 0 is_stmt 0 discriminator 1
 665 005a 2369     		ldr	r3, [r4, #16]
 666 005c 6268     		ldr	r2, [r4, #4]
 667 005e 5343     		muls	r3, r2
 668 0060 9F42     		cmp	r7, r3
 669 0062 D6D3     		bcc	.L48
1405:Generated_Source\PSoC4/cy_em_eeprom.c ****     }
1406:Generated_Source\PSoC4/cy_em_eeprom.c ****     
1407:Generated_Source\PSoC4/cy_em_eeprom.c ****     return(ret);
1408:Generated_Source\PSoC4/cy_em_eeprom.c **** }
 670              		.loc 1 1408 0 is_stmt 1
 671 0064 3000     		movs	r0, r6
 672 0066 23B0     		add	sp, sp, #140
 673              		@ sp needed
 674              	.LVL87:
 675              	.LVL88:
ARM GAS  C:\Users\Larry\AppData\Local\Temp\ccxlVo0w.s 			page 38


 676              	.LVL89:
 677              	.LVL90:
 678 0068 F0BD     		pop	{r4, r5, r6, r7, pc}
 679              		.cfi_endproc
 680              	.LFE15:
 681              		.size	FillChecksum, .-FillChecksum
 682 006a C046     		.section	.text.CheckCrcAndCopy,"ax",%progbits
 683              		.align	2
 684              		.code	16
 685              		.thumb_func
 686              		.type	CheckCrcAndCopy, %function
 687              	CheckCrcAndCopy:
 688              	.LFB13:
1214:Generated_Source\PSoC4/cy_em_eeprom.c ****     cy_en_em_eeprom_status_t ret;
 689              		.loc 1 1214 0
 690              		.cfi_startproc
 691              		@ args = 4, pretend = 0, frame = 144
 692              		@ frame_needed = 0, uses_anonymous_args = 0
 693              	.LVL91:
 694 0000 F0B5     		push	{r4, r5, r6, r7, lr}
 695              		.cfi_def_cfa_offset 20
 696              		.cfi_offset 4, -20
 697              		.cfi_offset 5, -16
 698              		.cfi_offset 6, -12
 699              		.cfi_offset 7, -8
 700              		.cfi_offset 14, -4
 701 0002 A5B0     		sub	sp, sp, #148
 702              		.cfi_def_cfa_offset 168
 703 0004 0600     		movs	r6, r0
 704 0006 0191     		str	r1, [sp, #4]
 705 0008 0292     		str	r2, [sp, #8]
 706 000a 0393     		str	r3, [sp, #12]
 707 000c 2A9F     		ldr	r7, [sp, #168]
1219:Generated_Source\PSoC4/cy_em_eeprom.c **** 
 708              		.loc 1 1219 0
 709 000e BB69     		ldr	r3, [r7, #24]
 710              	.LVL92:
 711 0010 C41A     		subs	r4, r0, r3
 712 0012 3B68     		ldr	r3, [r7]
 713 0014 9C46     		mov	ip, r3
 714 0016 6444     		add	r4, r4, ip
 715              	.LVL93:
1222:Generated_Source\PSoC4/cy_em_eeprom.c ****         ((uint32) CalcChecksum((uint8 *)(startAddr + CY_EM_EEPROM_EEPROM_DATA_OFFSET),
 716              		.loc 1 1222 0
 717 0018 C56B     		ldr	r5, [r0, #60]
1223:Generated_Source\PSoC4/cy_em_eeprom.c ****             CY_EM_EEPROM_EEPROM_DATA_LEN)))
 718              		.loc 1 1223 0
 719 001a 4030     		adds	r0, r0, #64
 720              	.LVL94:
 721 001c 4021     		movs	r1, #64
 722              	.LVL95:
 723 001e FFF7FEFF 		bl	CalcChecksum
 724              	.LVL96:
1222:Generated_Source\PSoC4/cy_em_eeprom.c ****         ((uint32) CalcChecksum((uint8 *)(startAddr + CY_EM_EEPROM_EEPROM_DATA_OFFSET),
 725              		.loc 1 1222 0
 726 0022 8542     		cmp	r5, r0
 727 0024 07D1     		bne	.L50
ARM GAS  C:\Users\Larry\AppData\Local\Temp\ccxlVo0w.s 			page 39


1226:Generated_Source\PSoC4/cy_em_eeprom.c **** 
 728              		.loc 1 1226 0
 729 0026 029B     		ldr	r3, [sp, #8]
 730 0028 F118     		adds	r1, r6, r3
 731 002a 039A     		ldr	r2, [sp, #12]
 732 002c 0198     		ldr	r0, [sp, #4]
 733 002e FFF7FEFF 		bl	memcpy
 734              	.LVL97:
1228:Generated_Source\PSoC4/cy_em_eeprom.c ****     }
 735              		.loc 1 1228 0
 736 0032 0024     		movs	r4, #0
 737              	.LVL98:
 738 0034 1EE0     		b	.L51
 739              	.LVL99:
 740              	.L50:
1231:Generated_Source\PSoC4/cy_em_eeprom.c ****             ((uint32) CalcChecksum((uint8 *)(rcStartRowAddr + CY_EM_EEPROM_EEPROM_DATA_OFFSET),
 741              		.loc 1 1231 0
 742 0036 E56B     		ldr	r5, [r4, #60]
1232:Generated_Source\PSoC4/cy_em_eeprom.c ****                 CY_EM_EEPROM_EEPROM_DATA_LEN)))
 743              		.loc 1 1232 0
 744 0038 2000     		movs	r0, r4
 745 003a 4030     		adds	r0, r0, #64
 746 003c 4021     		movs	r1, #64
 747 003e FFF7FEFF 		bl	CalcChecksum
 748              	.LVL100:
1231:Generated_Source\PSoC4/cy_em_eeprom.c ****             ((uint32) CalcChecksum((uint8 *)(rcStartRowAddr + CY_EM_EEPROM_EEPROM_DATA_OFFSET),
 749              		.loc 1 1231 0
 750 0042 8542     		cmp	r5, r0
 751 0044 15D1     		bne	.L52
1239:Generated_Source\PSoC4/cy_em_eeprom.c **** 
 752              		.loc 1 1239 0
 753 0046 8022     		movs	r2, #128
 754 0048 2100     		movs	r1, r4
 755 004a 04A8     		add	r0, sp, #16
 756 004c FFF7FEFF 		bl	memcpy
 757              	.LVL101:
1242:Generated_Source\PSoC4/cy_em_eeprom.c **** 
 758              		.loc 1 1242 0
 759 0050 3A00     		movs	r2, r7
 760 0052 04A9     		add	r1, sp, #16
 761 0054 3000     		movs	r0, r6
 762 0056 FFF7FEFF 		bl	WriteRow
 763              	.LVL102:
 764 005a 041E     		subs	r4, r0, #0
 765              	.LVL103:
1244:Generated_Source\PSoC4/cy_em_eeprom.c ****         {
 766              		.loc 1 1244 0
 767 005c 0AD1     		bne	.L51
1246:Generated_Source\PSoC4/cy_em_eeprom.c ****         }
 768              		.loc 1 1246 0
 769 005e 029B     		ldr	r3, [sp, #8]
 770 0060 9900     		lsls	r1, r3, #2
 771 0062 04AB     		add	r3, sp, #16
 772 0064 9C46     		mov	ip, r3
 773 0066 6144     		add	r1, r1, ip
 774 0068 039A     		ldr	r2, [sp, #12]
 775 006a 0198     		ldr	r0, [sp, #4]
ARM GAS  C:\Users\Larry\AppData\Local\Temp\ccxlVo0w.s 			page 40


 776              	.LVL104:
 777 006c FFF7FEFF 		bl	memcpy
 778              	.LVL105:
 779 0070 00E0     		b	.L51
 780              	.LVL106:
 781              	.L52:
1251:Generated_Source\PSoC4/cy_em_eeprom.c ****     }
 782              		.loc 1 1251 0
 783 0072 0224     		movs	r4, #2
 784              	.LVL107:
 785              	.L51:
1255:Generated_Source\PSoC4/cy_em_eeprom.c **** 
 786              		.loc 1 1255 0
 787 0074 2000     		movs	r0, r4
 788 0076 25B0     		add	sp, sp, #148
 789              		@ sp needed
 790              	.LVL108:
 791              	.LVL109:
 792 0078 F0BD     		pop	{r4, r5, r6, r7, pc}
 793              		.cfi_endproc
 794              	.LFE13:
 795              		.size	CheckCrcAndCopy, .-CheckCrcAndCopy
 796 007a C046     		.section	.text.EraseRow,"ax",%progbits
 797              		.align	2
 798              		.code	16
 799              		.thumb_func
 800              		.type	EraseRow, %function
 801              	EraseRow:
 802              	.LFB12:
1096:Generated_Source\PSoC4/cy_em_eeprom.c ****     uint32 emEepromRowAddr = rowAddr;
 803              		.loc 1 1096 0
 804              		.cfi_startproc
 805              		@ args = 0, pretend = 0, frame = 0
 806              		@ frame_needed = 0, uses_anonymous_args = 0
 807              	.LVL110:
 808 0000 70B5     		push	{r4, r5, r6, lr}
 809              		.cfi_def_cfa_offset 16
 810              		.cfi_offset 4, -16
 811              		.cfi_offset 5, -12
 812              		.cfi_offset 6, -8
 813              		.cfi_offset 14, -4
 814 0002 0400     		movs	r4, r0
 815 0004 0D00     		movs	r5, r1
 816 0006 1600     		movs	r6, r2
 817              	.LVL111:
1155:Generated_Source\PSoC4/cy_em_eeprom.c **** 
 818              		.loc 1 1155 0
 819 0008 FFF7FEFF 		bl	WriteRow
 820              	.LVL112:
1157:Generated_Source\PSoC4/cy_em_eeprom.c ****     {
 821              		.loc 1 1157 0
 822 000c 0028     		cmp	r0, #0
 823 000e 0BD1     		bne	.L54
1157:Generated_Source\PSoC4/cy_em_eeprom.c ****     {
 824              		.loc 1 1157 0 is_stmt 0 discriminator 1
 825 0010 337D     		ldrb	r3, [r6, #20]
 826 0012 002B     		cmp	r3, #0
ARM GAS  C:\Users\Larry\AppData\Local\Temp\ccxlVo0w.s 			page 41


 827 0014 08D0     		beq	.L54
1160:Generated_Source\PSoC4/cy_em_eeprom.c ****         ret = WriteRow(emEepromRowAddr, (uint32 *)ramBuffAddr, context);
 828              		.loc 1 1160 0 is_stmt 1
 829 0016 B369     		ldr	r3, [r6, #24]
 830 0018 E01A     		subs	r0, r4, r3
 831              	.LVL113:
 832 001a 3368     		ldr	r3, [r6]
 833 001c 9C46     		mov	ip, r3
 834 001e 6044     		add	r0, r0, ip
 835              	.LVL114:
1161:Generated_Source\PSoC4/cy_em_eeprom.c ****     }
 836              		.loc 1 1161 0
 837 0020 3200     		movs	r2, r6
 838 0022 2900     		movs	r1, r5
 839 0024 FFF7FEFF 		bl	WriteRow
 840              	.LVL115:
 841              	.L54:
1164:Generated_Source\PSoC4/cy_em_eeprom.c ****     {
 842              		.loc 1 1164 0
 843 0028 0028     		cmp	r0, #0
 844 002a 00D1     		bne	.L55
1166:Generated_Source\PSoC4/cy_em_eeprom.c ****     }
 845              		.loc 1 1166 0
 846 002c B460     		str	r4, [r6, #8]
 847              	.L55:
1171:Generated_Source\PSoC4/cy_em_eeprom.c **** 
 848              		.loc 1 1171 0
 849              		@ sp needed
 850              	.LVL116:
 851              	.LVL117:
 852              	.LVL118:
 853 002e 70BD     		pop	{r4, r5, r6, pc}
 854              		.cfi_endproc
 855              	.LFE12:
 856              		.size	EraseRow, .-EraseRow
 857              		.section	.text.Cy_Em_EEPROM_Init,"ax",%progbits
 858              		.align	2
 859              		.global	Cy_Em_EEPROM_Init
 860              		.code	16
 861              		.thumb_func
 862              		.type	Cy_Em_EEPROM_Init, %function
 863              	Cy_Em_EEPROM_Init:
 864              	.LFB1:
  96:Generated_Source\PSoC4/cy_em_eeprom.c ****     cy_en_em_eeprom_status_t ret = CY_EM_EEPROM_BAD_PARAM;
 865              		.loc 1 96 0
 866              		.cfi_startproc
 867              		@ args = 0, pretend = 0, frame = 0
 868              		@ frame_needed = 0, uses_anonymous_args = 0
 869              	.LVL119:
 870 0000 F8B5     		push	{r3, r4, r5, r6, r7, lr}
 871              		.cfi_def_cfa_offset 24
 872              		.cfi_offset 3, -24
 873              		.cfi_offset 4, -20
 874              		.cfi_offset 5, -16
 875              		.cfi_offset 6, -12
 876              		.cfi_offset 7, -8
 877              		.cfi_offset 14, -4
ARM GAS  C:\Users\Larry\AppData\Local\Temp\ccxlVo0w.s 			page 42


 878 0002 0400     		movs	r4, r0
 879 0004 0D1E     		subs	r5, r1, #0
 880              	.LVL120:
  99:Generated_Source\PSoC4/cy_em_eeprom.c ****         (config->wearLevelingFactor <= CY_EM_EEPROM_MAX_WEAR_LEVELING_FACTOR) && (config->eepromSiz
 881              		.loc 1 99 0
 882 0006 3BD0     		beq	.L59
  99:Generated_Source\PSoC4/cy_em_eeprom.c ****         (config->wearLevelingFactor <= CY_EM_EEPROM_MAX_WEAR_LEVELING_FACTOR) && (config->eepromSiz
 883              		.loc 1 99 0 is_stmt 0 discriminator 1
 884 0008 0028     		cmp	r0, #0
 885 000a 3BD0     		beq	.L60
  99:Generated_Source\PSoC4/cy_em_eeprom.c ****         (config->wearLevelingFactor <= CY_EM_EEPROM_MAX_WEAR_LEVELING_FACTOR) && (config->eepromSiz
 886              		.loc 1 99 0 discriminator 2
 887 000c C368     		ldr	r3, [r0, #12]
 888 000e 002B     		cmp	r3, #0
 889 0010 3AD0     		beq	.L61
  99:Generated_Source\PSoC4/cy_em_eeprom.c ****         (config->wearLevelingFactor <= CY_EM_EEPROM_MAX_WEAR_LEVELING_FACTOR) && (config->eepromSiz
 890              		.loc 1 99 0 discriminator 3
 891 0012 4368     		ldr	r3, [r0, #4]
 892 0014 0A2B     		cmp	r3, #10
 893 0016 39D8     		bhi	.L62
 100:Generated_Source\PSoC4/cy_em_eeprom.c ****     {
 894              		.loc 1 100 0 is_stmt 1
 895 0018 0768     		ldr	r7, [r0]
 896 001a 002F     		cmp	r7, #0
 897 001c 38D0     		beq	.L63
 102:Generated_Source\PSoC4/cy_em_eeprom.c **** 
 898              		.loc 1 102 0
 899 001e FFF7FEFF 		bl	CheckRanges
 900              	.LVL121:
 901 0022 061E     		subs	r6, r0, #0
 902              	.LVL122:
 104:Generated_Source\PSoC4/cy_em_eeprom.c ****         {
 903              		.loc 1 104 0
 904 0024 35D1     		bne	.L57
 107:Generated_Source\PSoC4/cy_em_eeprom.c ****             context->wearLevelingFactor = config->wearLevelingFactor;
 905              		.loc 1 107 0
 906 0026 EF60     		str	r7, [r5, #12]
 108:Generated_Source\PSoC4/cy_em_eeprom.c ****             context->redundantCopy = config->redundantCopy;
 907              		.loc 1 108 0
 908 0028 6368     		ldr	r3, [r4, #4]
 909 002a 2B61     		str	r3, [r5, #16]
 109:Generated_Source\PSoC4/cy_em_eeprom.c ****             context->blockingWrite = config->blockingWrite;
 910              		.loc 1 109 0
 911 002c 237A     		ldrb	r3, [r4, #8]
 912 002e 2B75     		strb	r3, [r5, #20]
 110:Generated_Source\PSoC4/cy_em_eeprom.c ****             context->userFlashStartAddr = config->userFlashStartAddr;
 913              		.loc 1 110 0
 914 0030 637A     		ldrb	r3, [r4, #9]
 915 0032 6B75     		strb	r3, [r5, #21]
 111:Generated_Source\PSoC4/cy_em_eeprom.c ****             /* Store frequently used data for internal use */
 916              		.loc 1 111 0
 917 0034 E368     		ldr	r3, [r4, #12]
 918 0036 AB61     		str	r3, [r5, #24]
 113:Generated_Source\PSoC4/cy_em_eeprom.c ****             context->wlEndAddr = ((CY_EM_EEPROM_GET_EEPROM_SIZE(context->numberOfRows) * config->we
 919              		.loc 1 113 0
 920 0038 2268     		ldr	r2, [r4]
 921 003a 9109     		lsrs	r1, r2, #6
ARM GAS  C:\Users\Larry\AppData\Local\Temp\ccxlVo0w.s 			page 43


 922 003c 3F23     		movs	r3, #63
 923 003e 1340     		ands	r3, r2
 924 0040 00D0     		beq	.L58
 925 0042 0123     		movs	r3, #1
 926              	.L58:
 113:Generated_Source\PSoC4/cy_em_eeprom.c ****             context->wlEndAddr = ((CY_EM_EEPROM_GET_EEPROM_SIZE(context->numberOfRows) * config->we
 927              		.loc 1 113 0 is_stmt 0 discriminator 4
 928 0044 5B18     		adds	r3, r3, r1
 929 0046 6B60     		str	r3, [r5, #4]
 114:Generated_Source\PSoC4/cy_em_eeprom.c ****                     config->userFlashStartAddr);
 930              		.loc 1 114 0 is_stmt 1 discriminator 4
 931 0048 6268     		ldr	r2, [r4, #4]
 932 004a 5343     		muls	r3, r2
 933 004c DB01     		lsls	r3, r3, #7
 115:Generated_Source\PSoC4/cy_em_eeprom.c ****             /* Find last written EEPROM row and store it for quick access */
 934              		.loc 1 115 0 discriminator 4
 935 004e E268     		ldr	r2, [r4, #12]
 114:Generated_Source\PSoC4/cy_em_eeprom.c ****                     config->userFlashStartAddr);
 936              		.loc 1 114 0 discriminator 4
 937 0050 9B18     		adds	r3, r3, r2
 938 0052 2B60     		str	r3, [r5]
 117:Generated_Source\PSoC4/cy_em_eeprom.c **** 
 939              		.loc 1 117 0 discriminator 4
 940 0054 2C00     		movs	r4, r5
 941              	.LVL123:
 942 0056 0834     		adds	r4, r4, #8
 943 0058 2900     		movs	r1, r5
 944 005a 2000     		movs	r0, r4
 945              	.LVL124:
 946 005c FFF7FEFF 		bl	FindLastWrittenRow
 947              	.LVL125:
 119:Generated_Source\PSoC4/cy_em_eeprom.c ****             {
 948              		.loc 1 119 0 discriminator 4
 949 0060 AB68     		ldr	r3, [r5, #8]
 950 0062 1B68     		ldr	r3, [r3]
 951 0064 002B     		cmp	r3, #0
 952 0066 14D1     		bne	.L57
 119:Generated_Source\PSoC4/cy_em_eeprom.c ****             {
 953              		.loc 1 119 0 is_stmt 0 discriminator 1
 954 0068 2B7D     		ldrb	r3, [r5, #20]
 955 006a 002B     		cmp	r3, #0
 956 006c 11D0     		beq	.L57
 124:Generated_Source\PSoC4/cy_em_eeprom.c ****                 
 957              		.loc 1 124 0 is_stmt 1
 958 006e 2800     		movs	r0, r5
 959 0070 FFF7FEFF 		bl	FillChecksum
 960              	.LVL126:
 961 0074 0600     		movs	r6, r0
 962              	.LVL127:
 127:Generated_Source\PSoC4/cy_em_eeprom.c ****             }
 963              		.loc 1 127 0
 964 0076 2900     		movs	r1, r5
 965 0078 2000     		movs	r0, r4
 966              	.LVL128:
 967 007a FFF7FEFF 		bl	FindLastWrittenRow
 968              	.LVL129:
 969 007e 08E0     		b	.L57
ARM GAS  C:\Users\Larry\AppData\Local\Temp\ccxlVo0w.s 			page 44


 970              	.LVL130:
 971              	.L59:
  97:Generated_Source\PSoC4/cy_em_eeprom.c **** 
 972              		.loc 1 97 0
 973 0080 0126     		movs	r6, #1
 974 0082 06E0     		b	.L57
 975              	.L60:
 976 0084 0126     		movs	r6, #1
 977 0086 04E0     		b	.L57
 978              	.L61:
 979 0088 0126     		movs	r6, #1
 980 008a 02E0     		b	.L57
 981              	.L62:
 982 008c 0126     		movs	r6, #1
 983 008e 00E0     		b	.L57
 984              	.L63:
 985 0090 0126     		movs	r6, #1
 986              	.LVL131:
 987              	.L57:
 133:Generated_Source\PSoC4/cy_em_eeprom.c **** 
 988              		.loc 1 133 0
 989 0092 3000     		movs	r0, r6
 990              		@ sp needed
 991              	.LVL132:
 992              	.LVL133:
 993 0094 F8BD     		pop	{r3, r4, r5, r6, r7, pc}
 994              		.cfi_endproc
 995              	.LFE1:
 996              		.size	Cy_Em_EEPROM_Init, .-Cy_Em_EEPROM_Init
 997              		.global	__aeabi_uidiv
 998 0096 C046     		.section	.text.Cy_Em_EEPROM_Read,"ax",%progbits
 999              		.align	2
 1000              		.global	Cy_Em_EEPROM_Read
 1001              		.code	16
 1002              		.thumb_func
 1003              		.type	Cy_Em_EEPROM_Read, %function
 1004              	Cy_Em_EEPROM_Read:
 1005              	.LFB2:
 173:Generated_Source\PSoC4/cy_em_eeprom.c ****     cy_en_em_eeprom_status_t ret = CY_EM_EEPROM_BAD_PARAM;
 1006              		.loc 1 173 0
 1007              		.cfi_startproc
 1008              		@ args = 0, pretend = 0, frame = 32
 1009              		@ frame_needed = 0, uses_anonymous_args = 0
 1010              	.LVL134:
 1011 0000 F0B5     		push	{r4, r5, r6, r7, lr}
 1012              		.cfi_def_cfa_offset 20
 1013              		.cfi_offset 4, -20
 1014              		.cfi_offset 5, -16
 1015              		.cfi_offset 6, -12
 1016              		.cfi_offset 7, -8
 1017              		.cfi_offset 14, -4
 1018 0002 5F46     		mov	r7, fp
 1019 0004 5646     		mov	r6, r10
 1020 0006 4D46     		mov	r5, r9
 1021 0008 4446     		mov	r4, r8
 1022 000a F0B4     		push	{r4, r5, r6, r7}
 1023              		.cfi_def_cfa_offset 36
ARM GAS  C:\Users\Larry\AppData\Local\Temp\ccxlVo0w.s 			page 45


 1024              		.cfi_offset 8, -36
 1025              		.cfi_offset 9, -32
 1026              		.cfi_offset 10, -28
 1027              		.cfi_offset 11, -24
 1028 000c 8BB0     		sub	sp, sp, #44
 1029              		.cfi_def_cfa_offset 80
 1030 000e 8146     		mov	r9, r0
 1031 0010 0791     		str	r1, [sp, #28]
 1032 0012 9246     		mov	r10, r2
 1033 0014 1F00     		movs	r7, r3
 1034              	.LVL135:
 183:Generated_Source\PSoC4/cy_em_eeprom.c **** 
 1035              		.loc 1 183 0
 1036 0016 0B00     		movs	r3, r1
 1037              	.LVL136:
 1038 0018 0691     		str	r1, [sp, #24]
 1039              	.LVL137:
 186:Generated_Source\PSoC4/cy_em_eeprom.c ****     {
 1040              		.loc 1 186 0
 1041 001a 002A     		cmp	r2, #0
 1042 001c 00D1     		bne	.LCB1078
 1043 001e F6E0     		b	.L89	@long jump
 1044              	.LCB1078:
 186:Generated_Source\PSoC4/cy_em_eeprom.c ****     {
 1045              		.loc 1 186 0 is_stmt 0 discriminator 1
 1046 0020 4A44     		add	r2, r2, r9
 1047              	.LVL138:
 1048 0022 0892     		str	r2, [sp, #32]
 1049 0024 F868     		ldr	r0, [r7, #12]
 1050              	.LVL139:
 1051 0026 8242     		cmp	r2, r0
 1052 0028 00D9     		bls	.LCB1086
 1053 002a F3E0     		b	.L90	@long jump
 1054              	.LCB1086:
 186:Generated_Source\PSoC4/cy_em_eeprom.c ****     {
 1055              		.loc 1 186 0 discriminator 2
 1056 002c 002B     		cmp	r3, #0
 1057 002e 00D1     		bne	.LCB1088
 1058 0030 F3E0     		b	.L91	@long jump
 1059              	.LCB1088:
 1060              	.LVL140:
 1061              	.LBB2:
 191:Generated_Source\PSoC4/cy_em_eeprom.c ****         uint32 updateAddrFlag = 0u;
 1062              		.loc 1 191 0 is_stmt 1
 1063 0032 BC68     		ldr	r4, [r7, #8]
 1064 0034 2368     		ldr	r3, [r4]
 1065 0036 0993     		str	r3, [sp, #36]
 1066              	.LVL141:
 197:Generated_Source\PSoC4/cy_em_eeprom.c ****                               (rdAddr / CY_EM_EEPROM_EEPROM_DATA_LEN)) + 1u;
 1067              		.loc 1 197 0
 1068 0038 531E     		subs	r3, r2, #1
 1069              	.LVL142:
 1070 003a 9B09     		lsrs	r3, r3, #6
 198:Generated_Source\PSoC4/cy_em_eeprom.c **** 
 1071              		.loc 1 198 0
 1072 003c 4A46     		mov	r2, r9
 1073 003e 9209     		lsrs	r2, r2, #6
ARM GAS  C:\Users\Larry\AppData\Local\Temp\ccxlVo0w.s 			page 46


 197:Generated_Source\PSoC4/cy_em_eeprom.c ****                               (rdAddr / CY_EM_EEPROM_EEPROM_DATA_LEN)) + 1u;
 1074              		.loc 1 197 0
 1075 0040 9B1A     		subs	r3, r3, r2
 1076 0042 0133     		adds	r3, r3, #1
 1077 0044 9B46     		mov	fp, r3
 1078              	.LVL143:
 204:Generated_Source\PSoC4/cy_em_eeprom.c ****                               (CY_EM_EEPROM_FLASH_SIZEOF_ROW * context->numberOfRows)) *
 1079              		.loc 1 204 0
 1080 0046 BD69     		ldr	r5, [r7, #24]
 1081 0048 601B     		subs	r0, r4, r5
 205:Generated_Source\PSoC4/cy_em_eeprom.c ****                               (CY_EM_EEPROM_FLASH_SIZEOF_ROW * context->numberOfRows)) +
 1082              		.loc 1 205 0
 1083 004a 7E68     		ldr	r6, [r7, #4]
 1084 004c F101     		lsls	r1, r6, #7
 1085              	.LVL144:
 204:Generated_Source\PSoC4/cy_em_eeprom.c ****                               (CY_EM_EEPROM_FLASH_SIZEOF_ROW * context->numberOfRows)) *
 1086              		.loc 1 204 0
 1087 004e FFF7FEFF 		bl	__aeabi_uidiv
 1088              	.LVL145:
 205:Generated_Source\PSoC4/cy_em_eeprom.c ****                               (CY_EM_EEPROM_FLASH_SIZEOF_ROW * context->numberOfRows)) +
 1089              		.loc 1 205 0
 1090 0052 7043     		muls	r0, r6
 1091 0054 C001     		lsls	r0, r0, #7
 204:Generated_Source\PSoC4/cy_em_eeprom.c ****                               (CY_EM_EEPROM_FLASH_SIZEOF_ROW * context->numberOfRows)) *
 1092              		.loc 1 204 0
 1093 0056 2B18     		adds	r3, r5, r0
 1094 0058 0393     		str	r3, [sp, #12]
 1095              	.LVL146:
 210:Generated_Source\PSoC4/cy_em_eeprom.c ****         {
 1096              		.loc 1 210 0
 1097 005a 0025     		movs	r5, #0
 1098 005c 4A46     		mov	r2, r9
 1099 005e 0FE0     		b	.L66
 1100              	.LVL147:
 1101              	.L69:
 212:Generated_Source\PSoC4/cy_em_eeprom.c ****             {
 1102              		.loc 1 212 0
 1103 0060 AB01     		lsls	r3, r5, #6
 1104 0062 9A42     		cmp	r2, r3
 1105 0064 06D3     		bcc	.L92
 212:Generated_Source\PSoC4/cy_em_eeprom.c ****             {
 1106              		.loc 1 212 0 is_stmt 0 discriminator 1
 1107 0066 6B1C     		adds	r3, r5, #1
 1108 0068 9B01     		lsls	r3, r3, #6
 1109 006a 013B     		subs	r3, r3, #1
 1110 006c 9A42     		cmp	r2, r3
 1111 006e 03D9     		bls	.L93
 212:Generated_Source\PSoC4/cy_em_eeprom.c ****             {
 1112              		.loc 1 212 0
 1113 0070 0023     		movs	r3, #0
 1114 0072 02E0     		b	.L67
 1115              	.L92:
 1116 0074 0023     		movs	r3, #0
 1117 0076 00E0     		b	.L67
 1118              	.L93:
 1119 0078 0123     		movs	r3, #1
 1120              	.L67:
ARM GAS  C:\Users\Larry\AppData\Local\Temp\ccxlVo0w.s 			page 47


 212:Generated_Source\PSoC4/cy_em_eeprom.c ****             {
 1121              		.loc 1 212 0 discriminator 6
 1122 007a 002B     		cmp	r3, #0
 1123 007c 05D1     		bne	.L100
 210:Generated_Source\PSoC4/cy_em_eeprom.c ****         {
 1124              		.loc 1 210 0 is_stmt 1 discriminator 2
 1125 007e 0135     		adds	r5, r5, #1
 1126              	.LVL148:
 1127              	.L66:
 210:Generated_Source\PSoC4/cy_em_eeprom.c ****         {
 1128              		.loc 1 210 0 is_stmt 0 discriminator 1
 1129 0080 B542     		cmp	r5, r6
 1130 0082 EDD3     		bcc	.L69
 1131 0084 9146     		mov	r9, r2
 1132              	.LVL149:
 1133              	.LBE2:
 181:Generated_Source\PSoC4/cy_em_eeprom.c ****     uint32 dataStartEepromRowNum = 0u;
 1134              		.loc 1 181 0 is_stmt 1
 1135 0086 0025     		movs	r5, #0
 1136              	.LVL150:
 1137 0088 00E0     		b	.L68
 1138              	.LVL151:
 1139              	.L100:
 1140 008a 9146     		mov	r9, r2
 1141              	.LVL152:
 1142              	.L68:
 1143              	.LBB9:
 221:Generated_Source\PSoC4/cy_em_eeprom.c **** 
 1144              		.loc 1 221 0
 1145 008c 039B     		ldr	r3, [sp, #12]
 1146 008e E31A     		subs	r3, r4, r3
 1147 0090 DB09     		lsrs	r3, r3, #7
 1148 0092 1900     		movs	r1, r3
 1149 0094 0593     		str	r3, [sp, #20]
 1150              	.LVL153:
 224:Generated_Source\PSoC4/cy_em_eeprom.c ****         {
 1151              		.loc 1 224 0
 1152 0096 3B69     		ldr	r3, [r7, #16]
 1153 0098 012B     		cmp	r3, #1
 1154 009a 09D9     		bls	.L94
 1155              	.LBB3:
 226:Generated_Source\PSoC4/cy_em_eeprom.c **** 
 1156              		.loc 1 226 0
 1157 009c 5B46     		mov	r3, fp
 1158 009e EB18     		adds	r3, r5, r3
 1159 00a0 013B     		subs	r3, r3, #1
 1160              	.LVL154:
 229:Generated_Source\PSoC4/cy_em_eeprom.c ****                               ((dataEndEepromRowNum > actEepromRowNum) ? 1u : 0u);
 1161              		.loc 1 229 0
 1162 00a2 8D42     		cmp	r5, r1
 1163 00a4 07D8     		bhi	.L95
 229:Generated_Source\PSoC4/cy_em_eeprom.c ****                               ((dataEndEepromRowNum > actEepromRowNum) ? 1u : 0u);
 1164              		.loc 1 229 0 is_stmt 0 discriminator 1
 1165 00a6 9942     		cmp	r1, r3
 1166 00a8 08D2     		bcs	.L96
 229:Generated_Source\PSoC4/cy_em_eeprom.c ****                               ((dataEndEepromRowNum > actEepromRowNum) ? 1u : 0u);
 1167              		.loc 1 229 0
ARM GAS  C:\Users\Larry\AppData\Local\Temp\ccxlVo0w.s 			page 48


 1168 00aa 0123     		movs	r3, #1
 1169              	.LVL155:
 1170 00ac 0493     		str	r3, [sp, #16]
 1171 00ae 07E0     		b	.L70
 1172              	.LVL156:
 1173              	.L94:
 1174              	.LBE3:
 192:Generated_Source\PSoC4/cy_em_eeprom.c **** 
 1175              		.loc 1 192 0 is_stmt 1
 1176 00b0 0023     		movs	r3, #0
 1177 00b2 0493     		str	r3, [sp, #16]
 1178 00b4 04E0     		b	.L70
 1179              	.LVL157:
 1180              	.L95:
 1181              	.LBB4:
 229:Generated_Source\PSoC4/cy_em_eeprom.c ****                               ((dataEndEepromRowNum > actEepromRowNum) ? 1u : 0u);
 1182              		.loc 1 229 0
 1183 00b6 0123     		movs	r3, #1
 1184              	.LVL158:
 1185 00b8 0493     		str	r3, [sp, #16]
 1186 00ba 01E0     		b	.L70
 1187              	.LVL159:
 1188              	.L96:
 1189 00bc 0023     		movs	r3, #0
 1190              	.LVL160:
 1191 00be 0493     		str	r3, [sp, #16]
 1192              	.LVL161:
 1193              	.L70:
 1194              	.LBE4:
 188:Generated_Source\PSoC4/cy_em_eeprom.c ****         uint32 rdSize = size;
 1195              		.loc 1 188 0
 1196 00c0 C846     		mov	r8, r9
 1197              	.LBE9:
 183:Generated_Source\PSoC4/cy_em_eeprom.c **** 
 1198              		.loc 1 183 0
 1199 00c2 079B     		ldr	r3, [sp, #28]
 1200              	.LBB10:
 234:Generated_Source\PSoC4/cy_em_eeprom.c ****         {
 1201              		.loc 1 234 0
 1202 00c4 0026     		movs	r6, #0
 1203              	.LBE10:
 174:Generated_Source\PSoC4/cy_em_eeprom.c ****     uint32 i;
 1204              		.loc 1 174 0
 1205 00c6 0122     		movs	r2, #1
 1206              	.LVL162:
 1207 00c8 1000     		movs	r0, r2
 1208 00ca 4A46     		mov	r2, r9
 1209 00cc 0792     		str	r2, [sp, #28]
 1210              	.LVL163:
 1211 00ce B946     		mov	r9, r7
 1212              	.LVL164:
 1213 00d0 4746     		mov	r7, r8
 1214              	.LVL165:
 1215 00d2 9846     		mov	r8, r3
 1216              	.LBB11:
 234:Generated_Source\PSoC4/cy_em_eeprom.c ****         {
 1217              		.loc 1 234 0
ARM GAS  C:\Users\Larry\AppData\Local\Temp\ccxlVo0w.s 			page 49


 1218 00d4 3EE0     		b	.L71
 1219              	.LVL166:
 1220              	.L77:
 236:Generated_Source\PSoC4/cy_em_eeprom.c ****             curRowOffset = CY_EM_EEPROM_EEPROM_DATA_LEN + (rdAddr % CY_EM_EEPROM_EEPROM_DATA_LEN);
 1221              		.loc 1 236 0
 1222 00d6 E801     		lsls	r0, r5, #7
 1223              	.LVL167:
 1224 00d8 039B     		ldr	r3, [sp, #12]
 1225 00da 9C46     		mov	ip, r3
 1226 00dc 6044     		add	r0, r0, ip
 1227              	.LVL168:
 237:Generated_Source\PSoC4/cy_em_eeprom.c **** 
 1228              		.loc 1 237 0
 1229 00de 3F24     		movs	r4, #63
 1230 00e0 3C40     		ands	r4, r7
 1231 00e2 2200     		movs	r2, r4
 1232 00e4 4032     		adds	r2, r2, #64
 1233              	.LVL169:
 242:Generated_Source\PSoC4/cy_em_eeprom.c ****             {
 1234              		.loc 1 242 0
 1235 00e6 0136     		adds	r6, r6, #1
 1236              	.LVL170:
 1237 00e8 B345     		cmp	fp, r6
 1238 00ea 02D9     		bls	.L97
 244:Generated_Source\PSoC4/cy_em_eeprom.c ****             }
 1239              		.loc 1 244 0
 1240 00ec 4023     		movs	r3, #64
 1241 00ee 1C1B     		subs	r4, r3, r4
 1242              	.LVL171:
 1243 00f0 00E0     		b	.L72
 1244              	.LVL172:
 1245              	.L97:
 248:Generated_Source\PSoC4/cy_em_eeprom.c ****             }
 1246              		.loc 1 248 0
 1247 00f2 5446     		mov	r4, r10
 1248              	.L72:
 1249              	.LVL173:
 254:Generated_Source\PSoC4/cy_em_eeprom.c ****             {
 1250              		.loc 1 254 0
 1251 00f4 049B     		ldr	r3, [sp, #16]
 1252 00f6 002B     		cmp	r3, #0
 1253 00f8 0FD0     		beq	.L73
 254:Generated_Source\PSoC4/cy_em_eeprom.c ****             {
 1254              		.loc 1 254 0 is_stmt 0 discriminator 1
 1255 00fa 059B     		ldr	r3, [sp, #20]
 1256 00fc 9D42     		cmp	r5, r3
 1257 00fe 0CD9     		bls	.L73
 256:Generated_Source\PSoC4/cy_em_eeprom.c **** 
 1258              		.loc 1 256 0 is_stmt 1
 1259 0100 4B46     		mov	r3, r9
 1260 0102 5B68     		ldr	r3, [r3, #4]
 1261 0104 D901     		lsls	r1, r3, #7
 1262 0106 401A     		subs	r0, r0, r1
 1263              	.LVL174:
 258:Generated_Source\PSoC4/cy_em_eeprom.c ****                 {
 1264              		.loc 1 258 0
 1265 0108 4946     		mov	r1, r9
ARM GAS  C:\Users\Larry\AppData\Local\Temp\ccxlVo0w.s 			page 50


 1266 010a 8969     		ldr	r1, [r1, #24]
 1267 010c 8842     		cmp	r0, r1
 1268 010e 04D2     		bcs	.L73
 261:Generated_Source\PSoC4/cy_em_eeprom.c ****                 }
 1269              		.loc 1 261 0
 1270 0110 581B     		subs	r0, r3, r5
 1271              	.LVL175:
 1272 0112 C301     		lsls	r3, r0, #7
 1273              	.LVL176:
 260:Generated_Source\PSoC4/cy_em_eeprom.c ****                         ((context->numberOfRows - curRdEepromRowNum) * CY_EM_EEPROM_FLASH_SIZEOF_RO
 1274              		.loc 1 260 0
 1275 0114 4946     		mov	r1, r9
 1276 0116 0968     		ldr	r1, [r1]
 1277 0118 C81A     		subs	r0, r1, r3
 1278              	.LVL177:
 1279              	.L73:
 265:Generated_Source\PSoC4/cy_em_eeprom.c ****             {
 1280              		.loc 1 265 0
 1281 011a 4B46     		mov	r3, r9
 1282 011c 1B7D     		ldrb	r3, [r3, #20]
 1283 011e 002B     		cmp	r3, #0
 1284 0120 0CD0     		beq	.L74
 270:Generated_Source\PSoC4/cy_em_eeprom.c **** 
 1285              		.loc 1 270 0
 1286 0122 4B46     		mov	r3, r9
 1287 0124 0093     		str	r3, [sp]
 1288 0126 2300     		movs	r3, r4
 1289 0128 4146     		mov	r1, r8
 1290 012a FFF7FEFF 		bl	CheckCrcAndCopy
 1291              	.LVL178:
 272:Generated_Source\PSoC4/cy_em_eeprom.c ****                 {
 1292              		.loc 1 272 0
 1293 012e 0028     		cmp	r0, #0
 1294 0130 0AD0     		beq	.L76
 1295 0132 8246     		mov	r10, r0
 1296              	.LVL179:
 1297 0134 4F46     		mov	r7, r9
 1298              	.LVL180:
 1299 0136 079B     		ldr	r3, [sp, #28]
 1300 0138 9946     		mov	r9, r3
 1301              	.LVL181:
 1302 013a 11E0     		b	.L75
 1303              	.LVL182:
 1304              	.L74:
 281:Generated_Source\PSoC4/cy_em_eeprom.c ****                              numBytesToRead);
 1305              		.loc 1 281 0
 1306 013c 8118     		adds	r1, r0, r2
 280:Generated_Source\PSoC4/cy_em_eeprom.c ****                              (void *)(startRowAddr + curRowOffset),
 1307              		.loc 1 280 0
 1308 013e 2200     		movs	r2, r4
 1309              	.LVL183:
 1310 0140 4046     		mov	r0, r8
 1311              	.LVL184:
 1312 0142 FFF7FEFF 		bl	memcpy
 1313              	.LVL185:
 285:Generated_Source\PSoC4/cy_em_eeprom.c ****             }
 1314              		.loc 1 285 0
ARM GAS  C:\Users\Larry\AppData\Local\Temp\ccxlVo0w.s 			page 51


 1315 0146 0020     		movs	r0, #0
 1316              	.LVL186:
 1317              	.L76:
 289:Generated_Source\PSoC4/cy_em_eeprom.c ****             rdSize -= numBytesToRead;
 1318              		.loc 1 289 0 discriminator 2
 1319 0148 3F19     		adds	r7, r7, r4
 1320              	.LVL187:
 290:Generated_Source\PSoC4/cy_em_eeprom.c ****             eeData += numBytesToRead;
 1321              		.loc 1 290 0 discriminator 2
 1322 014a 5346     		mov	r3, r10
 1323 014c 1B1B     		subs	r3, r3, r4
 1324 014e 9A46     		mov	r10, r3
 1325              	.LVL188:
 291:Generated_Source\PSoC4/cy_em_eeprom.c ****             curRdEepromRowNum++;
 1326              		.loc 1 291 0 discriminator 2
 1327 0150 A044     		add	r8, r8, r4
 1328              	.LVL189:
 292:Generated_Source\PSoC4/cy_em_eeprom.c ****         }
 1329              		.loc 1 292 0 discriminator 2
 1330 0152 0135     		adds	r5, r5, #1
 1331              	.LVL190:
 1332              	.L71:
 234:Generated_Source\PSoC4/cy_em_eeprom.c ****         {
 1333              		.loc 1 234 0 discriminator 1
 1334 0154 5E45     		cmp	r6, fp
 1335 0156 BED3     		bcc	.L77
 1336 0158 8246     		mov	r10, r0
 1337              	.LVL191:
 1338 015a 4F46     		mov	r7, r9
 1339              	.LVL192:
 1340 015c 079B     		ldr	r3, [sp, #28]
 1341 015e 9946     		mov	r9, r3
 1342              	.LVL193:
 1343              	.L75:
 303:Generated_Source\PSoC4/cy_em_eeprom.c ****         {
 1344              		.loc 1 303 0
 1345 0160 5346     		mov	r3, r10
 1346 0162 002B     		cmp	r3, #0
 1347 0164 5BD1     		bne	.L65
 303:Generated_Source\PSoC4/cy_em_eeprom.c ****         {
 1348              		.loc 1 303 0 is_stmt 0 discriminator 1
 1349 0166 099A     		ldr	r2, [sp, #36]
 1350 0168 002A     		cmp	r2, #0
 1351 016a 58D0     		beq	.L65
 305:Generated_Source\PSoC4/cy_em_eeprom.c ****             numRowReads--;
 1352              		.loc 1 305 0 is_stmt 1
 1353 016c 7B68     		ldr	r3, [r7, #4]
 1354 016e 1400     		movs	r4, r2
 1355 0170 9A42     		cmp	r2, r3
 1356 0172 00D9     		bls	.L78
 1357 0174 1C00     		movs	r4, r3
 1358              	.L78:
 1359              	.LVL194:
 306:Generated_Source\PSoC4/cy_em_eeprom.c **** 
 1360              		.loc 1 306 0
 1361 0176 013C     		subs	r4, r4, #1
 1362              	.LVL195:
ARM GAS  C:\Users\Larry\AppData\Local\Temp\ccxlVo0w.s 			page 52


 308:Generated_Source\PSoC4/cy_em_eeprom.c ****             {
 1363              		.loc 1 308 0
 1364 0178 099B     		ldr	r3, [sp, #36]
 1365 017a 1C1B     		subs	r4, r3, r4
 1366              	.LVL196:
 1367 017c 089A     		ldr	r2, [sp, #32]
 1368 017e 9046     		mov	r8, r2
 1369              	.LVL197:
 1370 0180 1D00     		movs	r5, r3
 1371              	.LVL198:
 1372 0182 0397     		str	r7, [sp, #12]
 1373              	.LVL199:
 1374 0184 4F46     		mov	r7, r9
 1375              	.LVL200:
 1376 0186 3FE0     		b	.L79
 1377              	.L88:
 310:Generated_Source\PSoC4/cy_em_eeprom.c **** 
 1378              		.loc 1 310 0
 1379 0188 0399     		ldr	r1, [sp, #12]
 1380 018a 2000     		movs	r0, r4
 1381 018c FFF7FEFF 		bl	GetRowAddrBySeqNum
 1382              	.LVL201:
 312:Generated_Source\PSoC4/cy_em_eeprom.c ****                 {
 1383              		.loc 1 312 0
 1384 0190 0028     		cmp	r0, #0
 1385 0192 38D0     		beq	.L80
 1386              	.LBB5:
 315:Generated_Source\PSoC4/cy_em_eeprom.c ****                     uint32 endAddr    = startAddr + (*(uint32 *)(startRowAddr + CY_EM_EEPROM_HEADER
 1387              		.loc 1 315 0
 1388 0194 4668     		ldr	r6, [r0, #4]
 1389              	.LVL202:
 316:Generated_Source\PSoC4/cy_em_eeprom.c **** 
 1390              		.loc 1 316 0
 1391 0196 8368     		ldr	r3, [r0, #8]
 1392 0198 F318     		adds	r3, r6, r3
 1393              	.LVL203:
 319:Generated_Source\PSoC4/cy_em_eeprom.c ****                     {
 1394              		.loc 1 319 0
 1395 019a B742     		cmp	r7, r6
 1396 019c 03D2     		bcs	.L81
 319:Generated_Source\PSoC4/cy_em_eeprom.c ****                     {
 1397              		.loc 1 319 0 is_stmt 0 discriminator 1
 1398 019e 4645     		cmp	r6, r8
 1399 01a0 9241     		sbcs	r2, r2, r2
 1400 01a2 5242     		rsbs	r2, r2, #0
 1401 01a4 02E0     		b	.L82
 1402              	.L81:
 319:Generated_Source\PSoC4/cy_em_eeprom.c ****                     {
 1403              		.loc 1 319 0 discriminator 2
 1404 01a6 9F42     		cmp	r7, r3
 1405 01a8 9241     		sbcs	r2, r2, r2
 1406 01aa 5242     		rsbs	r2, r2, #0
 1407              	.L82:
 319:Generated_Source\PSoC4/cy_em_eeprom.c ****                     {
 1408              		.loc 1 319 0 discriminator 4
 1409 01ac 002A     		cmp	r2, #0
 1410 01ae 2AD0     		beq	.L80
ARM GAS  C:\Users\Larry\AppData\Local\Temp\ccxlVo0w.s 			page 53


 1411              	.LBB6:
 321:Generated_Source\PSoC4/cy_em_eeprom.c ****                         uint32 dstOffset = (startAddr > addr) ? (startAddr - addr): (0u);
 1412              		.loc 1 321 0 is_stmt 1
 1413 01b0 B742     		cmp	r7, r6
 1414 01b2 01D3     		bcc	.L98
 321:Generated_Source\PSoC4/cy_em_eeprom.c ****                         uint32 dstOffset = (startAddr > addr) ? (startAddr - addr): (0u);
 1415              		.loc 1 321 0 is_stmt 0 discriminator 1
 1416 01b4 BA1B     		subs	r2, r7, r6
 1417 01b6 00E0     		b	.L83
 1418              	.L98:
 321:Generated_Source\PSoC4/cy_em_eeprom.c ****                         uint32 dstOffset = (startAddr > addr) ? (startAddr - addr): (0u);
 1419              		.loc 1 321 0
 1420 01b8 0022     		movs	r2, #0
 1421              	.L83:
 1422              	.LVL204:
 322:Generated_Source\PSoC4/cy_em_eeprom.c ****                         rdAddr = (startAddr > addr) ? (startAddr) : (addr);
 1423              		.loc 1 322 0 is_stmt 1 discriminator 4
 1424 01ba B742     		cmp	r7, r6
 1425 01bc 02D2     		bcs	.L99
 322:Generated_Source\PSoC4/cy_em_eeprom.c ****                         rdAddr = (startAddr > addr) ? (startAddr) : (addr);
 1426              		.loc 1 322 0 is_stmt 0 discriminator 1
 1427 01be F11B     		subs	r1, r6, r7
 1428 01c0 8C46     		mov	ip, r1
 1429 01c2 01E0     		b	.L84
 1430              	.L99:
 322:Generated_Source\PSoC4/cy_em_eeprom.c ****                         rdAddr = (startAddr > addr) ? (startAddr) : (addr);
 1431              		.loc 1 322 0
 1432 01c4 0021     		movs	r1, #0
 1433 01c6 8C46     		mov	ip, r1
 1434              	.L84:
 1435              	.LVL205:
 323:Generated_Source\PSoC4/cy_em_eeprom.c **** 
 1436              		.loc 1 323 0 is_stmt 1 discriminator 4
 1437 01c8 3900     		movs	r1, r7
 1438 01ca B742     		cmp	r7, r6
 1439 01cc 00D2     		bcs	.L85
 1440 01ce 3100     		movs	r1, r6
 1441              	.L85:
 1442              	.LVL206:
 325:Generated_Source\PSoC4/cy_em_eeprom.c **** 
 1443              		.loc 1 325 0 discriminator 4
 1444 01d0 0C32     		adds	r2, r2, #12
 1445              	.LVL207:
 328:Generated_Source\PSoC4/cy_em_eeprom.c **** 
 1446              		.loc 1 328 0 discriminator 4
 1447 01d2 4646     		mov	r6, r8
 1448              	.LVL208:
 1449 01d4 9845     		cmp	r8, r3
 1450 01d6 00D9     		bls	.L86
 1451 01d8 1E00     		movs	r6, r3
 1452              	.L86:
 1453 01da 731A     		subs	r3, r6, r1
 1454              	.LVL209:
 331:Generated_Source\PSoC4/cy_em_eeprom.c **** 
 1455              		.loc 1 331 0 discriminator 4
 1456 01dc 0699     		ldr	r1, [sp, #24]
 1457              	.LVL210:
ARM GAS  C:\Users\Larry\AppData\Local\Temp\ccxlVo0w.s 			page 54


 1458 01de 6144     		add	r1, r1, ip
 1459 01e0 0E00     		movs	r6, r1
 1460              	.LVL211:
 338:Generated_Source\PSoC4/cy_em_eeprom.c ****                         {
 1461              		.loc 1 338 0 discriminator 4
 1462 01e2 0399     		ldr	r1, [sp, #12]
 1463              	.LVL212:
 1464 01e4 097D     		ldrb	r1, [r1, #20]
 1465 01e6 0029     		cmp	r1, #0
 1466 01e8 08D0     		beq	.L87
 340:Generated_Source\PSoC4/cy_em_eeprom.c **** 
 1467              		.loc 1 340 0
 1468 01ea 0399     		ldr	r1, [sp, #12]
 1469 01ec 0091     		str	r1, [sp]
 1470              	.LVL213:
 1471 01ee 3100     		movs	r1, r6
 1472 01f0 FFF7FEFF 		bl	CheckCrcAndCopy
 1473              	.LVL214:
 1474 01f4 8246     		mov	r10, r0
 1475              	.LVL215:
 342:Generated_Source\PSoC4/cy_em_eeprom.c ****                             {
 1476              		.loc 1 342 0
 1477 01f6 0028     		cmp	r0, #0
 1478 01f8 05D0     		beq	.L80
 1479              	.LBE6:
 1480              	.LBE5:
 1481 01fa 10E0     		b	.L65
 1482              	.LVL216:
 1483              	.L87:
 1484              	.LBB8:
 1485              	.LBB7:
 349:Generated_Source\PSoC4/cy_em_eeprom.c ****                         }
 1486              		.loc 1 349 0
 1487 01fc 8118     		adds	r1, r0, r2
 1488 01fe 1A00     		movs	r2, r3
 1489              	.LVL217:
 1490 0200 3000     		movs	r0, r6
 1491              	.LVL218:
 1492 0202 FFF7FEFF 		bl	memcpy
 1493              	.LVL219:
 1494              	.L80:
 1495              	.LBE7:
 1496              	.LBE8:
 308:Generated_Source\PSoC4/cy_em_eeprom.c ****             {
 1497              		.loc 1 308 0 discriminator 2
 1498 0206 0134     		adds	r4, r4, #1
 1499              	.LVL220:
 1500              	.L79:
 308:Generated_Source\PSoC4/cy_em_eeprom.c ****             {
 1501              		.loc 1 308 0 is_stmt 0 discriminator 1
 1502 0208 AC42     		cmp	r4, r5
 1503 020a BDD9     		bls	.L88
 1504 020c 07E0     		b	.L65
 1505              	.LVL221:
 1506              	.L89:
 1507              	.LBE11:
 174:Generated_Source\PSoC4/cy_em_eeprom.c ****     uint32 i;
ARM GAS  C:\Users\Larry\AppData\Local\Temp\ccxlVo0w.s 			page 55


 1508              		.loc 1 174 0 is_stmt 1
 1509 020e 0123     		movs	r3, #1
 1510 0210 9A46     		mov	r10, r3
 1511 0212 04E0     		b	.L65
 1512              	.LVL222:
 1513              	.L90:
 1514 0214 0123     		movs	r3, #1
 1515 0216 9A46     		mov	r10, r3
 1516              	.LVL223:
 1517 0218 01E0     		b	.L65
 1518              	.LVL224:
 1519              	.L91:
 1520 021a 0123     		movs	r3, #1
 1521 021c 9A46     		mov	r10, r3
 1522              	.LVL225:
 1523              	.L65:
 358:Generated_Source\PSoC4/cy_em_eeprom.c **** 
 1524              		.loc 1 358 0
 1525 021e 5046     		mov	r0, r10
 1526 0220 0BB0     		add	sp, sp, #44
 1527              		@ sp needed
 1528              	.LVL226:
 1529 0222 3CBC     		pop	{r2, r3, r4, r5}
 1530 0224 9046     		mov	r8, r2
 1531 0226 9946     		mov	r9, r3
 1532 0228 A246     		mov	r10, r4
 1533 022a AB46     		mov	fp, r5
 1534 022c F0BD     		pop	{r4, r5, r6, r7, pc}
 1535              		.cfi_endproc
 1536              	.LFE2:
 1537              		.size	Cy_Em_EEPROM_Read, .-Cy_Em_EEPROM_Read
 1538              		.global	__aeabi_uidivmod
 1539 022e C046     		.section	.text.Cy_Em_EEPROM_Write,"ax",%progbits
 1540              		.align	2
 1541              		.global	Cy_Em_EEPROM_Write
 1542              		.code	16
 1543              		.thumb_func
 1544              		.type	Cy_Em_EEPROM_Write, %function
 1545              	Cy_Em_EEPROM_Write:
 1546              	.LFB3:
 415:Generated_Source\PSoC4/cy_em_eeprom.c ****     cy_en_em_eeprom_status_t ret = CY_EM_EEPROM_BAD_PARAM;
 1547              		.loc 1 415 0
 1548              		.cfi_startproc
 1549              		@ args = 0, pretend = 0, frame = 168
 1550              		@ frame_needed = 0, uses_anonymous_args = 0
 1551              	.LVL227:
 1552 0000 F0B5     		push	{r4, r5, r6, r7, lr}
 1553              		.cfi_def_cfa_offset 20
 1554              		.cfi_offset 4, -20
 1555              		.cfi_offset 5, -16
 1556              		.cfi_offset 6, -12
 1557              		.cfi_offset 7, -8
 1558              		.cfi_offset 14, -4
 1559 0002 5F46     		mov	r7, fp
 1560 0004 5646     		mov	r6, r10
 1561 0006 4D46     		mov	r5, r9
 1562 0008 4446     		mov	r4, r8
ARM GAS  C:\Users\Larry\AppData\Local\Temp\ccxlVo0w.s 			page 56


 1563 000a F0B4     		push	{r4, r5, r6, r7}
 1564              		.cfi_def_cfa_offset 36
 1565              		.cfi_offset 8, -36
 1566              		.cfi_offset 9, -32
 1567              		.cfi_offset 10, -28
 1568              		.cfi_offset 11, -24
 1569 000c ADB0     		sub	sp, sp, #180
 1570              		.cfi_def_cfa_offset 216
 1571 000e 8246     		mov	r10, r0
 1572 0010 9346     		mov	fp, r2
 1573 0012 1D00     		movs	r5, r3
 1574              	.LVL228:
 421:Generated_Source\PSoC4/cy_em_eeprom.c ****     uint32 endAddr = 0u;
 1575              		.loc 1 421 0
 1576 0014 0023     		movs	r3, #0
 1577              	.LVL229:
 1578 0016 0B93     		str	r3, [sp, #44]
 422:Generated_Source\PSoC4/cy_em_eeprom.c ****     uint32 tmpRowAddr;
 1579              		.loc 1 422 0
 1580 0018 0A93     		str	r3, [sp, #40]
 424:Generated_Source\PSoC4/cy_em_eeprom.c ****     uint32 emEepromRowRdAddr;
 1581              		.loc 1 424 0
 1582 001a AB68     		ldr	r3, [r5, #8]
 1583 001c 0993     		str	r3, [sp, #36]
 427:Generated_Source\PSoC4/cy_em_eeprom.c **** 
 1584              		.loc 1 427 0
 1585 001e 0391     		str	r1, [sp, #12]
 1586              	.LVL230:
 430:Generated_Source\PSoC4/cy_em_eeprom.c ****     {
 1587              		.loc 1 430 0
 1588 0020 131E     		subs	r3, r2, #0
 1589 0022 00D1     		bne	.LCB1770
 1590 0024 A7E0     		b	.L119	@long jump
 1591              	.LCB1770:
 430:Generated_Source\PSoC4/cy_em_eeprom.c ****     {
 1592              		.loc 1 430 0 is_stmt 0 discriminator 1
 1593 0026 5344     		add	r3, r3, r10
 1594 0028 EA68     		ldr	r2, [r5, #12]
 1595              	.LVL231:
 1596 002a 9342     		cmp	r3, r2
 1597 002c 00D9     		bls	.LCB1776
 1598 002e A4E0     		b	.L120	@long jump
 1599              	.LCB1776:
 430:Generated_Source\PSoC4/cy_em_eeprom.c ****     {
 1600              		.loc 1 430 0 discriminator 2
 1601 0030 0029     		cmp	r1, #0
 1602 0032 00D1     		bne	.LCB1778
 1603 0034 A3E0     		b	.L121	@long jump
 1604              	.LCB1778:
 1605              	.LBB12:
 432:Generated_Source\PSoC4/cy_em_eeprom.c ****         uint32 eeHeaderDataOffset = 0u;
 1606              		.loc 1 432 0 is_stmt 1
 1607 0036 5B46     		mov	r3, fp
 1608 0038 581E     		subs	r0, r3, #1
 1609              	.LVL232:
 1610 003a 3021     		movs	r1, #48
 1611              	.LVL233:
ARM GAS  C:\Users\Larry\AppData\Local\Temp\ccxlVo0w.s 			page 57


 1612 003c FFF7FEFF 		bl	__aeabi_uidiv
 1613              	.LVL234:
 1614 0040 0300     		movs	r3, r0
 1615 0042 0590     		str	r0, [sp, #20]
 1616 0044 0133     		adds	r3, r3, #1
 1617 0046 0493     		str	r3, [sp, #16]
 1618              	.LVL235:
 433:Generated_Source\PSoC4/cy_em_eeprom.c **** 
 1619              		.loc 1 433 0
 1620 0048 0023     		movs	r3, #0
 1621              	.LVL236:
 1622 004a 0793     		str	r3, [sp, #28]
 1623              	.LVL237:
 435:Generated_Source\PSoC4/cy_em_eeprom.c ****         {
 1624              		.loc 1 435 0
 1625 004c 9946     		mov	r9, r3
 1626              	.LBE12:
 416:Generated_Source\PSoC4/cy_em_eeprom.c ****     uint32 i;
 1627              		.loc 1 416 0
 1628 004e 0120     		movs	r0, #1
 1629              	.LBB15:
 435:Generated_Source\PSoC4/cy_em_eeprom.c ****         {
 1630              		.loc 1 435 0
 1631 0050 8CE0     		b	.L103
 1632              	.LVL238:
 1633              	.L118:
 1634              	.LBB13:
 439:Generated_Source\PSoC4/cy_em_eeprom.c **** 
 1635              		.loc 1 439 0
 1636 0052 099B     		ldr	r3, [sp, #36]
 1637 0054 1C68     		ldr	r4, [r3]
 1638              	.LVL239:
 446:Generated_Source\PSoC4/cy_em_eeprom.c **** 
 1639              		.loc 1 446 0
 1640 0056 2B00     		movs	r3, r5
 1641 0058 08AA     		add	r2, sp, #32
 1642 005a 09A9     		add	r1, sp, #36
 1643 005c 2000     		movs	r0, r4
 1644              	.LVL240:
 1645 005e FFF7FEFF 		bl	GetNextRowToWrite
 1646              	.LVL241:
 449:Generated_Source\PSoC4/cy_em_eeprom.c **** 
 1647              		.loc 1 449 0
 1648 0062 8022     		movs	r2, #128
 1649 0064 0021     		movs	r1, #0
 1650 0066 0CA8     		add	r0, sp, #48
 1651 0068 FFF7FEFF 		bl	memset
 1652              	.LVL242:
 452:Generated_Source\PSoC4/cy_em_eeprom.c ****             writeRamBuffer[CY_EM_EEPROM_HEADER_SEQ_NUM_OFFSET_U32] = seqNum;
 1653              		.loc 1 452 0
 1654 006c 631C     		adds	r3, r4, #1
 1655 006e 9846     		mov	r8, r3
 1656              	.LVL243:
 453:Generated_Source\PSoC4/cy_em_eeprom.c ****             writeRamBuffer[CY_EM_EEPROM_HEADER_ADDR_OFFSET_U32] = addr;
 1657              		.loc 1 453 0
 1658 0070 0C93     		str	r3, [sp, #48]
 454:Generated_Source\PSoC4/cy_em_eeprom.c ****             tmpData = (void *) eeData;
ARM GAS  C:\Users\Larry\AppData\Local\Temp\ccxlVo0w.s 			page 58


 1659              		.loc 1 454 0
 1660 0072 5346     		mov	r3, r10
 1661              	.LVL244:
 1662 0074 0D93     		str	r3, [sp, #52]
 455:Generated_Source\PSoC4/cy_em_eeprom.c **** 
 1663              		.loc 1 455 0
 1664 0076 0399     		ldr	r1, [sp, #12]
 1665              	.LVL245:
 458:Generated_Source\PSoC4/cy_em_eeprom.c ****             {
 1666              		.loc 1 458 0
 1667 0078 059B     		ldr	r3, [sp, #20]
 1668 007a 9945     		cmp	r9, r3
 1669 007c 02D1     		bne	.L104
 461:Generated_Source\PSoC4/cy_em_eeprom.c ****             }
 1670              		.loc 1 461 0
 1671 007e 5B46     		mov	r3, fp
 1672 0080 0E93     		str	r3, [sp, #56]
 1673 0082 0AE0     		b	.L105
 1674              	.L104:
 469:Generated_Source\PSoC4/cy_em_eeprom.c ****                 size -= CY_EM_EEPROM_HEADER_DATA_LEN;
 1675              		.loc 1 469 0
 1676 0084 3023     		movs	r3, #48
 1677 0086 0E93     		str	r3, [sp, #56]
 470:Generated_Source\PSoC4/cy_em_eeprom.c ****                 addr += CY_EM_EEPROM_HEADER_DATA_LEN;
 1678              		.loc 1 470 0
 1679 0088 603B     		subs	r3, r3, #96
 1680 008a 9C46     		mov	ip, r3
 1681 008c E344     		add	fp, fp, ip
 1682              	.LVL246:
 471:Generated_Source\PSoC4/cy_em_eeprom.c ****                 eeData += CY_EM_EEPROM_HEADER_DATA_LEN;
 1683              		.loc 1 471 0
 1684 008e 6033     		adds	r3, r3, #96
 1685 0090 9C46     		mov	ip, r3
 1686 0092 E244     		add	r10, r10, ip
 1687              	.LVL247:
 472:Generated_Source\PSoC4/cy_em_eeprom.c ****             }
 1688              		.loc 1 472 0
 1689 0094 039B     		ldr	r3, [sp, #12]
 1690 0096 3033     		adds	r3, r3, #48
 1691 0098 0393     		str	r3, [sp, #12]
 1692              	.LVL248:
 1693              	.L105:
 476:Generated_Source\PSoC4/cy_em_eeprom.c ****                          tmpData,
 1694              		.loc 1 476 0
 1695 009a 0E9A     		ldr	r2, [sp, #56]
 1696 009c 0FA8     		add	r0, sp, #60
 1697 009e FFF7FEFF 		bl	memcpy
 1698              	.LVL249:
 480:Generated_Source\PSoC4/cy_em_eeprom.c ****             {
 1699              		.loc 1 480 0
 1700 00a2 0899     		ldr	r1, [sp, #32]
 1701 00a4 0029     		cmp	r1, #0
 1702 00a6 04D0     		beq	.L106
 484:Generated_Source\PSoC4/cy_em_eeprom.c ****                              CY_EM_EEPROM_EEPROM_DATA_LEN);
 1703              		.loc 1 484 0
 1704 00a8 4031     		adds	r1, r1, #64
 483:Generated_Source\PSoC4/cy_em_eeprom.c ****                              (void *)(emEepromRowRdAddr + CY_EM_EEPROM_EEPROM_DATA_LEN),
ARM GAS  C:\Users\Larry\AppData\Local\Temp\ccxlVo0w.s 			page 59


 1705              		.loc 1 483 0
 1706 00aa 4022     		movs	r2, #64
 1707 00ac 1CA8     		add	r0, sp, #112
 1708 00ae FFF7FEFF 		bl	memcpy
 1709              	.LVL250:
 1710              	.L106:
 492:Generated_Source\PSoC4/cy_em_eeprom.c **** 
 1711              		.loc 1 492 0
 1712 00b2 6C68     		ldr	r4, [r5, #4]
 1713 00b4 A045     		cmp	r8, r4
 1714 00b6 03D9     		bls	.L122
 492:Generated_Source\PSoC4/cy_em_eeprom.c **** 
 1715              		.loc 1 492 0 is_stmt 0 discriminator 1
 1716 00b8 4346     		mov	r3, r8
 1717 00ba 1C1B     		subs	r4, r3, r4
 1718 00bc 0134     		adds	r4, r4, #1
 1719 00be 00E0     		b	.L107
 1720              	.L122:
 492:Generated_Source\PSoC4/cy_em_eeprom.c **** 
 1721              		.loc 1 492 0
 1722 00c0 0124     		movs	r4, #1
 1723              	.L107:
 492:Generated_Source\PSoC4/cy_em_eeprom.c **** 
 1724              		.loc 1 492 0 discriminator 1
 1725 00c2 0027     		movs	r7, #0
 1726 00c4 35E0     		b	.L108
 1727              	.LVL251:
 1728              	.L115:
 496:Generated_Source\PSoC4/cy_em_eeprom.c ****                 {
 1729              		.loc 1 496 0 is_stmt 1
 1730 00c6 4445     		cmp	r4, r8
 1731 00c8 01D1     		bne	.L109
 502:Generated_Source\PSoC4/cy_em_eeprom.c ****                 }
 1732              		.loc 1 502 0
 1733 00ca 0CAE     		add	r6, sp, #48
 1734              	.LVL252:
 1735 00cc 04E0     		b	.L110
 1736              	.LVL253:
 1737              	.L109:
 509:Generated_Source\PSoC4/cy_em_eeprom.c ****                 }
 1738              		.loc 1 509 0
 1739 00ce 2900     		movs	r1, r5
 1740 00d0 2000     		movs	r0, r4
 1741 00d2 FFF7FEFF 		bl	GetRowAddrBySeqNum
 1742              	.LVL254:
 1743 00d6 0600     		movs	r6, r0
 1744              	.LVL255:
 1745              	.L110:
 512:Generated_Source\PSoC4/cy_em_eeprom.c ****                                                                            context->numberOfRows,
 1746              		.loc 1 512 0
 1747 00d8 099B     		ldr	r3, [sp, #36]
 1748 00da AA69     		ldr	r2, [r5, #24]
 1749 00dc 981A     		subs	r0, r3, r2
 1750 00de C009     		lsrs	r0, r0, #7
 1751 00e0 6968     		ldr	r1, [r5, #4]
 1752 00e2 FFF7FEFF 		bl	__aeabi_uidivmod
 1753              	.LVL256:
ARM GAS  C:\Users\Larry\AppData\Local\Temp\ccxlVo0w.s 			page 60


 515:Generated_Source\PSoC4/cy_em_eeprom.c ****                 {
 1754              		.loc 1 515 0
 1755 00e6 002E     		cmp	r6, #0
 1756 00e8 0BD0     		beq	.L111
 518:Generated_Source\PSoC4/cy_em_eeprom.c ****                                               &startAddr,
 1757              		.loc 1 518 0
 1758 00ea 7368     		ldr	r3, [r6, #4]
 1759 00ec B268     		ldr	r2, [r6, #8]
 1760 00ee 0192     		str	r2, [sp, #4]
 1761 00f0 0093     		str	r3, [sp]
 1762 00f2 0B00     		movs	r3, r1
 1763 00f4 07AA     		add	r2, sp, #28
 1764 00f6 0AA9     		add	r1, sp, #40
 1765              	.LVL257:
 1766 00f8 0BA8     		add	r0, sp, #44
 1767 00fa FFF7FEFF 		bl	GetAddresses
 1768              	.LVL258:
 1769 00fe 0700     		movs	r7, r0
 1770              	.LVL259:
 1771 0100 00E0     		b	.L112
 1772              	.LVL260:
 1773              	.L111:
 529:Generated_Source\PSoC4/cy_em_eeprom.c ****                 }
 1774              		.loc 1 529 0
 1775 0102 0137     		adds	r7, r7, #1
 1776              	.LVL261:
 1777              	.L112:
 533:Generated_Source\PSoC4/cy_em_eeprom.c ****                 {
 1778              		.loc 1 533 0
 1779 0104 002F     		cmp	r7, #0
 1780 0106 0BD1     		bne	.L113
 1781              	.LBB14:
 535:Generated_Source\PSoC4/cy_em_eeprom.c **** 
 1782              		.loc 1 535 0
 1783 0108 0B9A     		ldr	r2, [sp, #44]
 1784 010a 0CAB     		add	r3, sp, #48
 1785 010c 9818     		adds	r0, r3, r2
 1786              	.LVL262:
 540:Generated_Source\PSoC4/cy_em_eeprom.c ****                     (void)memcpy((void *)(dataAddr), (void *)(tmpRowAddr), endAddr - startAddr);
 1787              		.loc 1 540 0
 1788 010e 079B     		ldr	r3, [sp, #28]
 1789 0110 9C46     		mov	ip, r3
 1790 0112 6644     		add	r6, r6, ip
 1791              	.LVL263:
 1792 0114 3100     		movs	r1, r6
 1793 0116 0C31     		adds	r1, r1, #12
 1794              	.LVL264:
 541:Generated_Source\PSoC4/cy_em_eeprom.c ****                 }
 1795              		.loc 1 541 0
 1796 0118 0A9B     		ldr	r3, [sp, #40]
 1797 011a 9A1A     		subs	r2, r3, r2
 1798 011c FFF7FEFF 		bl	memcpy
 1799              	.LVL265:
 1800              	.L113:
 1801              	.LBE14:
 545:Generated_Source\PSoC4/cy_em_eeprom.c ****                 {
 1802              		.loc 1 545 0
ARM GAS  C:\Users\Larry\AppData\Local\Temp\ccxlVo0w.s 			page 61


 1803 0120 2B7D     		ldrb	r3, [r5, #20]
 1804 0122 002B     		cmp	r3, #0
 1805 0124 04D0     		beq	.L114
 548:Generated_Source\PSoC4/cy_em_eeprom.c ****                                                   CY_EM_EEPROM_EEPROM_DATA_LEN);
 1806              		.loc 1 548 0
 1807 0126 4021     		movs	r1, #64
 1808 0128 1CA8     		add	r0, sp, #112
 1809 012a FFF7FEFF 		bl	CalcChecksum
 1810              	.LVL266:
 547:Generated_Source\PSoC4/cy_em_eeprom.c ****                         CalcChecksum((uint8 *) &writeRamBuffer[CY_EM_EEPROM_EEPROM_DATA_OFFSET_U32]
 1811              		.loc 1 547 0
 1812 012e 1B90     		str	r0, [sp, #108]
 1813              	.L114:
 494:Generated_Source\PSoC4/cy_em_eeprom.c ****             {
 1814              		.loc 1 494 0
 1815 0130 0134     		adds	r4, r4, #1
 1816              	.LVL267:
 1817              	.L108:
 494:Generated_Source\PSoC4/cy_em_eeprom.c ****             {
 1818              		.loc 1 494 0 is_stmt 0 discriminator 1
 1819 0132 4445     		cmp	r4, r8
 1820 0134 C7D9     		bls	.L115
 554:Generated_Source\PSoC4/cy_em_eeprom.c ****             tmpRowAddr = emEepromRowAddr;
 1821              		.loc 1 554 0 is_stmt 1
 1822 0136 2A00     		movs	r2, r5
 1823 0138 0CA9     		add	r1, sp, #48
 1824 013a 0998     		ldr	r0, [sp, #36]
 1825 013c FFF7FEFF 		bl	WriteRow
 1826              	.LVL268:
 558:Generated_Source\PSoC4/cy_em_eeprom.c ****             {
 1827              		.loc 1 558 0
 1828 0140 2B7D     		ldrb	r3, [r5, #20]
 1829 0142 002B     		cmp	r3, #0
 1830 0144 0BD0     		beq	.L116
 558:Generated_Source\PSoC4/cy_em_eeprom.c ****             {
 1831              		.loc 1 558 0 is_stmt 0 discriminator 1
 1832 0146 0028     		cmp	r0, #0
 1833 0148 09D1     		bne	.L116
 561:Generated_Source\PSoC4/cy_em_eeprom.c **** 
 1834              		.loc 1 561 0 is_stmt 1
 1835 014a 099B     		ldr	r3, [sp, #36]
 1836 014c AA69     		ldr	r2, [r5, #24]
 1837 014e 981A     		subs	r0, r3, r2
 1838              	.LVL269:
 1839 0150 2B68     		ldr	r3, [r5]
 1840 0152 9C46     		mov	ip, r3
 1841 0154 6044     		add	r0, r0, ip
 1842              	.LVL270:
 564:Generated_Source\PSoC4/cy_em_eeprom.c ****             }
 1843              		.loc 1 564 0
 1844 0156 2A00     		movs	r2, r5
 1845 0158 0CA9     		add	r1, sp, #48
 1846 015a FFF7FEFF 		bl	WriteRow
 1847              	.LVL271:
 1848              	.L116:
 567:Generated_Source\PSoC4/cy_em_eeprom.c ****             {
 1849              		.loc 1 567 0
ARM GAS  C:\Users\Larry\AppData\Local\Temp\ccxlVo0w.s 			page 62


 1850 015e 0028     		cmp	r0, #0
 1851 0160 0ED1     		bne	.L102
 572:Generated_Source\PSoC4/cy_em_eeprom.c ****             }
 1852              		.loc 1 572 0 discriminator 2
 1853 0162 099B     		ldr	r3, [sp, #36]
 1854 0164 AB60     		str	r3, [r5, #8]
 1855              	.LBE13:
 435:Generated_Source\PSoC4/cy_em_eeprom.c ****         {
 1856              		.loc 1 435 0 discriminator 2
 1857 0166 0123     		movs	r3, #1
 1858 0168 9C46     		mov	ip, r3
 1859 016a E144     		add	r9, r9, ip
 1860              	.LVL272:
 1861              	.L103:
 435:Generated_Source\PSoC4/cy_em_eeprom.c ****         {
 1862              		.loc 1 435 0 is_stmt 0 discriminator 1
 1863 016c 049B     		ldr	r3, [sp, #16]
 1864 016e 9945     		cmp	r9, r3
 1865 0170 00D2     		bcs	.LCB2097
 1866 0172 6EE7     		b	.L118	@long jump
 1867              	.LCB2097:
 1868 0174 04E0     		b	.L102
 1869              	.LVL273:
 1870              	.L119:
 1871              	.LBE15:
 416:Generated_Source\PSoC4/cy_em_eeprom.c ****     uint32 i;
 1872              		.loc 1 416 0 is_stmt 1
 1873 0176 0120     		movs	r0, #1
 1874              	.LVL274:
 1875 0178 02E0     		b	.L102
 1876              	.LVL275:
 1877              	.L120:
 1878 017a 0120     		movs	r0, #1
 1879              	.LVL276:
 1880 017c 00E0     		b	.L102
 1881              	.LVL277:
 1882              	.L121:
 1883 017e 0120     		movs	r0, #1
 1884              	.LVL278:
 1885              	.L102:
 581:Generated_Source\PSoC4/cy_em_eeprom.c **** 
 1886              		.loc 1 581 0
 1887 0180 2DB0     		add	sp, sp, #180
 1888              		@ sp needed
 1889              	.LVL279:
 1890              	.LVL280:
 1891              	.LVL281:
 1892 0182 3CBC     		pop	{r2, r3, r4, r5}
 1893 0184 9046     		mov	r8, r2
 1894 0186 9946     		mov	r9, r3
 1895 0188 A246     		mov	r10, r4
 1896 018a AB46     		mov	fp, r5
 1897 018c F0BD     		pop	{r4, r5, r6, r7, pc}
 1898              		.cfi_endproc
 1899              	.LFE3:
 1900              		.size	Cy_Em_EEPROM_Write, .-Cy_Em_EEPROM_Write
 1901 018e C046     		.section	.text.Cy_Em_EEPROM_Erase,"ax",%progbits
ARM GAS  C:\Users\Larry\AppData\Local\Temp\ccxlVo0w.s 			page 63


 1902              		.align	2
 1903              		.global	Cy_Em_EEPROM_Erase
 1904              		.code	16
 1905              		.thumb_func
 1906              		.type	Cy_Em_EEPROM_Erase, %function
 1907              	Cy_Em_EEPROM_Erase:
 1908              	.LFB4:
 630:Generated_Source\PSoC4/cy_em_eeprom.c ****     uint32 i;
 1909              		.loc 1 630 0
 1910              		.cfi_startproc
 1911              		@ args = 0, pretend = 0, frame = 136
 1912              		@ frame_needed = 0, uses_anonymous_args = 0
 1913              	.LVL282:
 1914 0000 F0B5     		push	{r4, r5, r6, r7, lr}
 1915              		.cfi_def_cfa_offset 20
 1916              		.cfi_offset 4, -20
 1917              		.cfi_offset 5, -16
 1918              		.cfi_offset 6, -12
 1919              		.cfi_offset 7, -8
 1920              		.cfi_offset 14, -4
 1921 0002 A3B0     		sub	sp, sp, #140
 1922              		.cfi_def_cfa_offset 160
 1923 0004 0600     		movs	r6, r0
 633:Generated_Source\PSoC4/cy_em_eeprom.c ****     uint32 emEepromRowRdAddr;
 1924              		.loc 1 633 0
 1925 0006 8468     		ldr	r4, [r0, #8]
 1926 0008 2194     		str	r4, [sp, #132]
 1927              	.LVL283:
 636:Generated_Source\PSoC4/cy_em_eeprom.c **** #if (CY_PSOC6)
 1928              		.loc 1 636 0
 1929 000a 8022     		movs	r2, #128
 1930 000c 0021     		movs	r1, #0
 1931 000e 6846     		mov	r0, sp
 1932              	.LVL284:
 1933 0010 FFF7FEFF 		bl	memset
 1934              	.LVL285:
 643:Generated_Source\PSoC4/cy_em_eeprom.c **** 
 1935              		.loc 1 643 0
 1936 0014 2368     		ldr	r3, [r4]
 1937              	.LVL286:
 646:Generated_Source\PSoC4/cy_em_eeprom.c ****     {
 1938              		.loc 1 646 0
 1939 0016 002B     		cmp	r3, #0
 1940 0018 20D0     		beq	.L129
 1941              	.LBB16:
 649:Generated_Source\PSoC4/cy_em_eeprom.c **** 
 1942              		.loc 1 649 0
 1943 001a 3769     		ldr	r7, [r6, #16]
 1944 001c 7368     		ldr	r3, [r6, #4]
 1945              	.LVL287:
 1946 001e 5F43     		muls	r7, r3
 1947              	.LVL288:
 656:Generated_Source\PSoC4/cy_em_eeprom.c ****         {
 1948              		.loc 1 656 0
 1949 0020 337D     		ldrb	r3, [r6, #20]
 1950 0022 002B     		cmp	r3, #0
 1951 0024 04D0     		beq	.L126
ARM GAS  C:\Users\Larry\AppData\Local\Temp\ccxlVo0w.s 			page 64


 659:Generated_Source\PSoC4/cy_em_eeprom.c ****                                                   CY_EM_EEPROM_EEPROM_DATA_LEN);
 1952              		.loc 1 659 0
 1953 0026 4021     		movs	r1, #64
 1954 0028 10A8     		add	r0, sp, #64
 1955 002a FFF7FEFF 		bl	CalcChecksum
 1956              	.LVL289:
 658:Generated_Source\PSoC4/cy_em_eeprom.c ****                         CalcChecksum((uint8 *) &writeRamBuffer[CY_EM_EEPROM_EEPROM_DATA_OFFSET_U32]
 1957              		.loc 1 658 0
 1958 002e 0F90     		str	r0, [sp, #60]
 1959              	.L126:
 1960              	.LBE16:
 630:Generated_Source\PSoC4/cy_em_eeprom.c ****     uint32 i;
 1961              		.loc 1 630 0 discriminator 1
 1962 0030 0420     		movs	r0, #4
 1963 0032 0025     		movs	r5, #0
 1964 0034 0FE0     		b	.L127
 1965              	.LVL290:
 1966              	.L128:
 1967              	.LBB17:
 685:Generated_Source\PSoC4/cy_em_eeprom.c ****             /* Get the address of the row to be erased. "emEepromRowAddr" may be updated
 1968              		.loc 1 685 0 discriminator 3
 1969 0036 219B     		ldr	r3, [sp, #132]
 1970 0038 1C68     		ldr	r4, [r3]
 1971              	.LVL291:
 689:Generated_Source\PSoC4/cy_em_eeprom.c ****             seqNum++;
 1972              		.loc 1 689 0 discriminator 3
 1973 003a 3300     		movs	r3, r6
 1974 003c 20AA     		add	r2, sp, #128
 1975 003e 21A9     		add	r1, sp, #132
 1976 0040 2000     		movs	r0, r4
 1977              	.LVL292:
 1978 0042 FFF7FEFF 		bl	GetNextRowToWrite
 1979              	.LVL293:
 690:Generated_Source\PSoC4/cy_em_eeprom.c ****             writeRamBuffer[0u] = seqNum;
 1980              		.loc 1 690 0 discriminator 3
 1981 0046 0134     		adds	r4, r4, #1
 1982              	.LVL294:
 691:Generated_Source\PSoC4/cy_em_eeprom.c ****             ret = EraseRow(emEepromRowAddr, (uint32)writeRamBuffer, context);
 1983              		.loc 1 691 0 discriminator 3
 1984 0048 0094     		str	r4, [sp]
 692:Generated_Source\PSoC4/cy_em_eeprom.c ****         #endif /* (CY_PSOC6) */
 1985              		.loc 1 692 0 discriminator 3
 1986 004a 3200     		movs	r2, r6
 1987 004c 6946     		mov	r1, sp
 1988 004e 2198     		ldr	r0, [sp, #132]
 1989 0050 FFF7FEFF 		bl	EraseRow
 1990              	.LVL295:
 663:Generated_Source\PSoC4/cy_em_eeprom.c ****         {
 1991              		.loc 1 663 0 discriminator 3
 1992 0054 0135     		adds	r5, r5, #1
 1993              	.LVL296:
 1994              	.L127:
 663:Generated_Source\PSoC4/cy_em_eeprom.c ****         {
 1995              		.loc 1 663 0 is_stmt 0 discriminator 1
 1996 0056 BD42     		cmp	r5, r7
 1997 0058 EDD3     		bcc	.L128
 1998 005a 00E0     		b	.L125
ARM GAS  C:\Users\Larry\AppData\Local\Temp\ccxlVo0w.s 			page 65


 1999              	.LVL297:
 2000              	.L129:
 2001              	.LBE17:
 635:Generated_Source\PSoC4/cy_em_eeprom.c ****     uint32 writeRamBuffer[CY_EM_EEPROM_FLASH_SIZEOF_ROW / CY_EM_EEPROM_U32_DIV] = {0u};
 2002              		.loc 1 635 0 is_stmt 1
 2003 005c 0420     		movs	r0, #4
 2004              	.LVL298:
 2005              	.L125:
 716:Generated_Source\PSoC4/cy_em_eeprom.c **** 
 2006              		.loc 1 716 0
 2007 005e 23B0     		add	sp, sp, #140
 2008              		@ sp needed
 2009              	.LVL299:
 2010 0060 F0BD     		pop	{r4, r5, r6, r7, pc}
 2011              		.cfi_endproc
 2012              	.LFE4:
 2013              		.size	Cy_Em_EEPROM_Erase, .-Cy_Em_EEPROM_Erase
 2014 0062 C046     		.section	.text.Cy_Em_EEPROM_NumWrites,"ax",%progbits
 2015              		.align	2
 2016              		.global	Cy_Em_EEPROM_NumWrites
 2017              		.code	16
 2018              		.thumb_func
 2019              		.type	Cy_Em_EEPROM_NumWrites, %function
 2020              	Cy_Em_EEPROM_NumWrites:
 2021              	.LFB5:
 733:Generated_Source\PSoC4/cy_em_eeprom.c ****     return(CY_EM_EEPROM_GET_SEQ_NUM(context->lastWrRowAddr));
 2022              		.loc 1 733 0
 2023              		.cfi_startproc
 2024              		@ args = 0, pretend = 0, frame = 0
 2025              		@ frame_needed = 0, uses_anonymous_args = 0
 2026              		@ link register save eliminated.
 2027              	.LVL300:
 734:Generated_Source\PSoC4/cy_em_eeprom.c **** }
 2028              		.loc 1 734 0
 2029 0000 8368     		ldr	r3, [r0, #8]
 2030 0002 1868     		ldr	r0, [r3]
 2031              	.LVL301:
 735:Generated_Source\PSoC4/cy_em_eeprom.c **** 
 2032              		.loc 1 735 0
 2033              		@ sp needed
 2034 0004 7047     		bx	lr
 2035              		.cfi_endproc
 2036              	.LFE5:
 2037              		.size	Cy_Em_EEPROM_NumWrites, .-Cy_Em_EEPROM_NumWrites
 2038 0006 C046     		.text
 2039              	.Letext0:
 2040              		.file 2 "Generated_Source\\PSoC4\\cytypes.h"
 2041              		.file 3 "Generated_Source\\PSoC4\\cy_em_eeprom.h"
 2042              		.file 4 "Generated_Source\\PSoC4\\CyFlash.h"