ARM GAS  C:\Users\Larry\AppData\Local\Temp\ccxlVo0w.s 			page 1


   1              		.syntax unified
   2              		.cpu cortex-m0
   3              		.fpu softvfp
   4              		.eabi_attribute 20, 1
   5              		.eabi_attribute 21, 1
   6              		.eabi_attribute 23, 3
   7              		.eabi_attribute 24, 1
   8              		.eabi_attribute 25, 1
   9              		.eabi_attribute 26, 1
  10              		.eabi_attribute 30, 1
  11              		.eabi_attribute 34, 0
  12              		.eabi_attribute 18, 4
  13              		.thumb
  14              		.syntax unified
  15              		.file	"cy_em_eeprom.c"
  16              		.text
  17              	.Ltext0:
  18              		.cfi_sections	.debug_frame
  19              		.section	.text.FindLastWrittenRow,"ax",%progbits
  20              		.align	2
  21              		.code	16
  22              		.thumb_func
  23              		.type	FindLastWrittenRow, %function
  24              	FindLastWrittenRow:
  25              	.LFB6:
  26              		.file 1 "Generated_Source\\PSoC4\\cy_em_eeprom.c"
   1:Generated_Source\PSoC4/cy_em_eeprom.c **** /***************************************************************************//**
   2:Generated_Source\PSoC4/cy_em_eeprom.c **** * \file cy_em_eeprom.c
   3:Generated_Source\PSoC4/cy_em_eeprom.c **** * \version 2.10
   4:Generated_Source\PSoC4/cy_em_eeprom.c **** *
   5:Generated_Source\PSoC4/cy_em_eeprom.c **** * \brief
   6:Generated_Source\PSoC4/cy_em_eeprom.c **** *  This file provides source code of the API for the Emulated EEPROM library.
   7:Generated_Source\PSoC4/cy_em_eeprom.c **** *  The Emulated EEPROM API allows creating of an emulated EEPROM in flash that
   8:Generated_Source\PSoC4/cy_em_eeprom.c **** *  has the ability to do wear leveling and restore corrupted data from a
   9:Generated_Source\PSoC4/cy_em_eeprom.c **** *  redundant copy.
  10:Generated_Source\PSoC4/cy_em_eeprom.c **** *
  11:Generated_Source\PSoC4/cy_em_eeprom.c **** ********************************************************************************
  12:Generated_Source\PSoC4/cy_em_eeprom.c **** * \copyright
  13:Generated_Source\PSoC4/cy_em_eeprom.c **** * Copyright 2017, Cypress Semiconductor Corporation.  All rights reserved.
  14:Generated_Source\PSoC4/cy_em_eeprom.c **** * You may use this file only in accordance with the license, terms, conditions,
  15:Generated_Source\PSoC4/cy_em_eeprom.c **** * disclaimers, and limitations in the end user license agreement accompanying
  16:Generated_Source\PSoC4/cy_em_eeprom.c **** * the software package with which this file was provided.
  17:Generated_Source\PSoC4/cy_em_eeprom.c **** *******************************************************************************/
  18:Generated_Source\PSoC4/cy_em_eeprom.c **** 
  19:Generated_Source\PSoC4/cy_em_eeprom.c **** 
  20:Generated_Source\PSoC4/cy_em_eeprom.c **** #include "cytypes.h"
  21:Generated_Source\PSoC4/cy_em_eeprom.c **** #include <string.h>
  22:Generated_Source\PSoC4/cy_em_eeprom.c **** 
  23:Generated_Source\PSoC4/cy_em_eeprom.c **** #if (CYDEV_CHIP_FAMILY_USED == CYDEV_CHIP_FAMILY_PSOC6)
  24:Generated_Source\PSoC4/cy_em_eeprom.c ****     #include "em_eeprom/cy_em_eeprom.h"
  25:Generated_Source\PSoC4/cy_em_eeprom.c **** #else
  26:Generated_Source\PSoC4/cy_em_eeprom.c ****     #include "cy_em_eeprom.h"
  27:Generated_Source\PSoC4/cy_em_eeprom.c **** #endif /* (CYDEV_CHIP_FAMILY_USED == CYDEV_CHIP_FAMILY_PSOC6) */
  28:Generated_Source\PSoC4/cy_em_eeprom.c **** 
  29:Generated_Source\PSoC4/cy_em_eeprom.c **** 
  30:Generated_Source\PSoC4/cy_em_eeprom.c **** #if defined(__cplusplus)
  31:Generated_Source\PSoC4/cy_em_eeprom.c **** extern "C" {
ARM GAS  C:\Users\Larry\AppData\Local\Temp\ccxlVo0w.s 			page 2


  32:Generated_Source\PSoC4/cy_em_eeprom.c **** #endif
  33:Generated_Source\PSoC4/cy_em_eeprom.c **** 
  34:Generated_Source\PSoC4/cy_em_eeprom.c **** 
  35:Generated_Source\PSoC4/cy_em_eeprom.c **** /***************************************
  36:Generated_Source\PSoC4/cy_em_eeprom.c **** * Private Function Prototypes
  37:Generated_Source\PSoC4/cy_em_eeprom.c **** ***************************************/
  38:Generated_Source\PSoC4/cy_em_eeprom.c **** static void FindLastWrittenRow(uint32 * lastWrRowPtr, cy_stc_eeprom_context_t * context);
  39:Generated_Source\PSoC4/cy_em_eeprom.c **** static uint32 GetRowAddrBySeqNum(uint32 seqNum, cy_stc_eeprom_context_t * context);
  40:Generated_Source\PSoC4/cy_em_eeprom.c **** static uint8 CalcChecksum(uint8 rowData[], uint32 len);
  41:Generated_Source\PSoC4/cy_em_eeprom.c **** static void GetNextRowToWrite(uint32 seqNum,
  42:Generated_Source\PSoC4/cy_em_eeprom.c ****                             uint32 * rowToWrPtr,
  43:Generated_Source\PSoC4/cy_em_eeprom.c ****                             uint32 * rowToRdPtr,
  44:Generated_Source\PSoC4/cy_em_eeprom.c ****                             cy_stc_eeprom_context_t * context);
  45:Generated_Source\PSoC4/cy_em_eeprom.c **** static cy_en_em_eeprom_status_t CheckRanges(cy_stc_eeprom_config_t* config);
  46:Generated_Source\PSoC4/cy_em_eeprom.c **** static cy_en_em_eeprom_status_t WriteRow(uint32 rowAddr, uint32 *rowData, cy_stc_eeprom_context_t *
  47:Generated_Source\PSoC4/cy_em_eeprom.c **** static cy_en_em_eeprom_status_t EraseRow(uint32 rowAddr, uint32 ramBuffAddr, cy_stc_eeprom_context_
  48:Generated_Source\PSoC4/cy_em_eeprom.c **** static cy_en_em_eeprom_status_t CheckCrcAndCopy(uint32 startAddr,
  49:Generated_Source\PSoC4/cy_em_eeprom.c ****                                                 uint32 dstAddr,
  50:Generated_Source\PSoC4/cy_em_eeprom.c ****                                                 uint32 rowOffset,
  51:Generated_Source\PSoC4/cy_em_eeprom.c ****                                                 uint32 numBytes,
  52:Generated_Source\PSoC4/cy_em_eeprom.c ****                                                 cy_stc_eeprom_context_t * context);
  53:Generated_Source\PSoC4/cy_em_eeprom.c **** static uint32 GetAddresses(uint32 *startAddr, uint32 *endAddr, uint32 *offset, uint32 rowNum, uint3
  54:Generated_Source\PSoC4/cy_em_eeprom.c **** static cy_en_em_eeprom_status_t FillChecksum(cy_stc_eeprom_context_t * context);
  55:Generated_Source\PSoC4/cy_em_eeprom.c **** 
  56:Generated_Source\PSoC4/cy_em_eeprom.c **** /**
  57:Generated_Source\PSoC4/cy_em_eeprom.c **** * \addtogroup group_em_eeprom_functions
  58:Generated_Source\PSoC4/cy_em_eeprom.c **** * \{
  59:Generated_Source\PSoC4/cy_em_eeprom.c **** */
  60:Generated_Source\PSoC4/cy_em_eeprom.c **** 
  61:Generated_Source\PSoC4/cy_em_eeprom.c **** /*******************************************************************************
  62:Generated_Source\PSoC4/cy_em_eeprom.c **** * Function Name: Cy_Em_EEPROM_Init
  63:Generated_Source\PSoC4/cy_em_eeprom.c **** ****************************************************************************//**
  64:Generated_Source\PSoC4/cy_em_eeprom.c **** *
  65:Generated_Source\PSoC4/cy_em_eeprom.c **** * Initializes the Emulated EEPROM library by filling the context structure. 
  66:Generated_Source\PSoC4/cy_em_eeprom.c **** *
  67:Generated_Source\PSoC4/cy_em_eeprom.c **** * \param config
  68:Generated_Source\PSoC4/cy_em_eeprom.c **** * The pointer to a configuration structure. See \ref cy_stc_eeprom_config_t.
  69:Generated_Source\PSoC4/cy_em_eeprom.c **** *
  70:Generated_Source\PSoC4/cy_em_eeprom.c **** * \param context
  71:Generated_Source\PSoC4/cy_em_eeprom.c **** * The pointer to the EEPROM context structure to be filled by the function.
  72:Generated_Source\PSoC4/cy_em_eeprom.c **** * \ref cy_stc_eeprom_context_t.
  73:Generated_Source\PSoC4/cy_em_eeprom.c **** *
  74:Generated_Source\PSoC4/cy_em_eeprom.c **** * \return
  75:Generated_Source\PSoC4/cy_em_eeprom.c **** * error / status code. See \ref cy_en_em_eeprom_status_t.
  76:Generated_Source\PSoC4/cy_em_eeprom.c **** *
  77:Generated_Source\PSoC4/cy_em_eeprom.c **** * \note
  78:Generated_Source\PSoC4/cy_em_eeprom.c **** * The context structure should not be modified by the user after it is filled
  79:Generated_Source\PSoC4/cy_em_eeprom.c **** * with this function. Modification of context structure may cause the 
  80:Generated_Source\PSoC4/cy_em_eeprom.c **** * unexpected behavior of the Cy_Em_EEPROM API functions which rely on it.
  81:Generated_Source\PSoC4/cy_em_eeprom.c **** *
  82:Generated_Source\PSoC4/cy_em_eeprom.c **** * \note
  83:Generated_Source\PSoC4/cy_em_eeprom.c **** * This function uses a buffer of the flash row size to perform read
  84:Generated_Source\PSoC4/cy_em_eeprom.c **** * operation. For the size of the row refer to the specific PSoC device
  85:Generated_Source\PSoC4/cy_em_eeprom.c **** * datasheet.
  86:Generated_Source\PSoC4/cy_em_eeprom.c **** *
  87:Generated_Source\PSoC4/cy_em_eeprom.c **** * \sideeffect 
  88:Generated_Source\PSoC4/cy_em_eeprom.c **** * If the "Redundant Copy" option is used, the function performs a number of 
ARM GAS  C:\Users\Larry\AppData\Local\Temp\ccxlVo0w.s 			page 3


  89:Generated_Source\PSoC4/cy_em_eeprom.c **** * write operations to the EEPROM to initialize flash rows checksums. Therefore,
  90:Generated_Source\PSoC4/cy_em_eeprom.c **** * Cy_Em_EEPROM_NumWrites(), when it is called right after Cy_Em_EEPROM_Init(), 
  91:Generated_Source\PSoC4/cy_em_eeprom.c **** * will return a non-zero value that identifies the number of writes performed 
  92:Generated_Source\PSoC4/cy_em_eeprom.c **** * by Cy_Em_EEPROM_Init().
  93:Generated_Source\PSoC4/cy_em_eeprom.c **** *
  94:Generated_Source\PSoC4/cy_em_eeprom.c **** *******************************************************************************/
  95:Generated_Source\PSoC4/cy_em_eeprom.c **** cy_en_em_eeprom_status_t Cy_Em_EEPROM_Init(cy_stc_eeprom_config_t* config, cy_stc_eeprom_context_t 
  96:Generated_Source\PSoC4/cy_em_eeprom.c **** {
  97:Generated_Source\PSoC4/cy_em_eeprom.c ****     cy_en_em_eeprom_status_t ret = CY_EM_EEPROM_BAD_PARAM;
  98:Generated_Source\PSoC4/cy_em_eeprom.c **** 
  99:Generated_Source\PSoC4/cy_em_eeprom.c ****     if((NULL != context) && (NULL != config) && (NULL != ((uint32 *)config->userFlashStartAddr)) &&
 100:Generated_Source\PSoC4/cy_em_eeprom.c ****         (config->wearLevelingFactor <= CY_EM_EEPROM_MAX_WEAR_LEVELING_FACTOR) && (config->eepromSiz
 101:Generated_Source\PSoC4/cy_em_eeprom.c ****     {
 102:Generated_Source\PSoC4/cy_em_eeprom.c ****         ret = CheckRanges(config);
 103:Generated_Source\PSoC4/cy_em_eeprom.c **** 
 104:Generated_Source\PSoC4/cy_em_eeprom.c ****         if(CY_EM_EEPROM_SUCCESS == ret)
 105:Generated_Source\PSoC4/cy_em_eeprom.c ****         {
 106:Generated_Source\PSoC4/cy_em_eeprom.c ****             /* Copy the user config structure fields into context */
 107:Generated_Source\PSoC4/cy_em_eeprom.c ****             context->eepromSize = config->eepromSize;
 108:Generated_Source\PSoC4/cy_em_eeprom.c ****             context->wearLevelingFactor = config->wearLevelingFactor;
 109:Generated_Source\PSoC4/cy_em_eeprom.c ****             context->redundantCopy = config->redundantCopy;
 110:Generated_Source\PSoC4/cy_em_eeprom.c ****             context->blockingWrite = config->blockingWrite;
 111:Generated_Source\PSoC4/cy_em_eeprom.c ****             context->userFlashStartAddr = config->userFlashStartAddr;
 112:Generated_Source\PSoC4/cy_em_eeprom.c ****             /* Store frequently used data for internal use */
 113:Generated_Source\PSoC4/cy_em_eeprom.c ****             context->numberOfRows = CY_EM_EEPROM_GET_NUM_ROWS_IN_EEPROM(config->eepromSize);
 114:Generated_Source\PSoC4/cy_em_eeprom.c ****             context->wlEndAddr = ((CY_EM_EEPROM_GET_EEPROM_SIZE(context->numberOfRows) * config->we
 115:Generated_Source\PSoC4/cy_em_eeprom.c ****                     config->userFlashStartAddr);
 116:Generated_Source\PSoC4/cy_em_eeprom.c ****             /* Find last written EEPROM row and store it for quick access */
 117:Generated_Source\PSoC4/cy_em_eeprom.c ****             FindLastWrittenRow(&context->lastWrRowAddr, context);
 118:Generated_Source\PSoC4/cy_em_eeprom.c **** 
 119:Generated_Source\PSoC4/cy_em_eeprom.c ****             if((0u == CY_EM_EEPROM_GET_SEQ_NUM(context->lastWrRowAddr)) && (0u != context->redundan
 120:Generated_Source\PSoC4/cy_em_eeprom.c ****             {
 121:Generated_Source\PSoC4/cy_em_eeprom.c ****                 /* Call the function only after device reprogramming in case
 122:Generated_Source\PSoC4/cy_em_eeprom.c ****                 * if redundant copy is enabled.
 123:Generated_Source\PSoC4/cy_em_eeprom.c ****                 */
 124:Generated_Source\PSoC4/cy_em_eeprom.c ****                 ret = FillChecksum(context);
 125:Generated_Source\PSoC4/cy_em_eeprom.c ****                 
 126:Generated_Source\PSoC4/cy_em_eeprom.c ****                 /* Update the last written EEPROM row for Cy_Em_EEPROM_NumWrites() */
 127:Generated_Source\PSoC4/cy_em_eeprom.c ****                 FindLastWrittenRow(&context->lastWrRowAddr, context);
 128:Generated_Source\PSoC4/cy_em_eeprom.c ****             }
 129:Generated_Source\PSoC4/cy_em_eeprom.c ****         }
 130:Generated_Source\PSoC4/cy_em_eeprom.c ****     }
 131:Generated_Source\PSoC4/cy_em_eeprom.c **** 
 132:Generated_Source\PSoC4/cy_em_eeprom.c ****     return(ret);
 133:Generated_Source\PSoC4/cy_em_eeprom.c **** }
 134:Generated_Source\PSoC4/cy_em_eeprom.c **** 
 135:Generated_Source\PSoC4/cy_em_eeprom.c **** 
 136:Generated_Source\PSoC4/cy_em_eeprom.c **** /*******************************************************************************
 137:Generated_Source\PSoC4/cy_em_eeprom.c **** * Function Name: Cy_Em_EEPROM_Read
 138:Generated_Source\PSoC4/cy_em_eeprom.c **** ****************************************************************************//**
 139:Generated_Source\PSoC4/cy_em_eeprom.c **** *
 140:Generated_Source\PSoC4/cy_em_eeprom.c **** * This function takes the logical EEPROM address, converts it to the actual
 141:Generated_Source\PSoC4/cy_em_eeprom.c **** * physical address where the data is stored and returns the data to the user.
 142:Generated_Source\PSoC4/cy_em_eeprom.c **** *
 143:Generated_Source\PSoC4/cy_em_eeprom.c **** * \param addr
 144:Generated_Source\PSoC4/cy_em_eeprom.c **** * The logical start address in EEPROM to start reading data from.
 145:Generated_Source\PSoC4/cy_em_eeprom.c **** *
ARM GAS  C:\Users\Larry\AppData\Local\Temp\ccxlVo0w.s 			page 4


 146:Generated_Source\PSoC4/cy_em_eeprom.c **** * \param eepromData
 147:Generated_Source\PSoC4/cy_em_eeprom.c **** * The pointer to a user array to write data to.
 148:Generated_Source\PSoC4/cy_em_eeprom.c **** *
 149:Generated_Source\PSoC4/cy_em_eeprom.c **** * \param size
 150:Generated_Source\PSoC4/cy_em_eeprom.c **** * The amount of data to read.
 151:Generated_Source\PSoC4/cy_em_eeprom.c **** *
 152:Generated_Source\PSoC4/cy_em_eeprom.c **** * \param context
 153:Generated_Source\PSoC4/cy_em_eeprom.c **** * The pointer to the EEPROM context structure \ref cy_stc_eeprom_context_t.
 154:Generated_Source\PSoC4/cy_em_eeprom.c **** *
 155:Generated_Source\PSoC4/cy_em_eeprom.c **** * \return
 156:Generated_Source\PSoC4/cy_em_eeprom.c **** * This function returns \ref cy_en_em_eeprom_status_t.
 157:Generated_Source\PSoC4/cy_em_eeprom.c **** *
 158:Generated_Source\PSoC4/cy_em_eeprom.c **** * \note
 159:Generated_Source\PSoC4/cy_em_eeprom.c **** * This function uses a buffer of the flash row size to perform read
 160:Generated_Source\PSoC4/cy_em_eeprom.c **** * operation. For the size of the row refer to the specific PSoC device
 161:Generated_Source\PSoC4/cy_em_eeprom.c **** * datasheet.
 162:Generated_Source\PSoC4/cy_em_eeprom.c **** *
 163:Generated_Source\PSoC4/cy_em_eeprom.c **** * \note
 164:Generated_Source\PSoC4/cy_em_eeprom.c **** * In case if redundant copy option is enabled the function may perform writes
 165:Generated_Source\PSoC4/cy_em_eeprom.c **** * to EEPROM. This is done in case if the data in the EEPPROM is corrupted and
 166:Generated_Source\PSoC4/cy_em_eeprom.c **** * the data in redundant copy is valid based on CRC-8 data integrity check.
 167:Generated_Source\PSoC4/cy_em_eeprom.c **** *
 168:Generated_Source\PSoC4/cy_em_eeprom.c **** *******************************************************************************/
 169:Generated_Source\PSoC4/cy_em_eeprom.c **** cy_en_em_eeprom_status_t Cy_Em_EEPROM_Read(uint32 addr, 
 170:Generated_Source\PSoC4/cy_em_eeprom.c ****                                         void * eepromData, 
 171:Generated_Source\PSoC4/cy_em_eeprom.c ****                                         uint32 size,
 172:Generated_Source\PSoC4/cy_em_eeprom.c ****                                         cy_stc_eeprom_context_t * context)
 173:Generated_Source\PSoC4/cy_em_eeprom.c **** {
 174:Generated_Source\PSoC4/cy_em_eeprom.c ****     cy_en_em_eeprom_status_t ret = CY_EM_EEPROM_BAD_PARAM;
 175:Generated_Source\PSoC4/cy_em_eeprom.c ****     uint32 i;
 176:Generated_Source\PSoC4/cy_em_eeprom.c ****     uint32 numBytesToRead;
 177:Generated_Source\PSoC4/cy_em_eeprom.c ****     uint32 curEepromBaseAddr;
 178:Generated_Source\PSoC4/cy_em_eeprom.c ****     uint32 curRowOffset;
 179:Generated_Source\PSoC4/cy_em_eeprom.c ****     uint32 startRowAddr;
 180:Generated_Source\PSoC4/cy_em_eeprom.c ****     uint32 actEepromRowNum;
 181:Generated_Source\PSoC4/cy_em_eeprom.c ****     uint32 curRdEepromRowNum = 0u;
 182:Generated_Source\PSoC4/cy_em_eeprom.c ****     uint32 dataStartEepromRowNum = 0u;
 183:Generated_Source\PSoC4/cy_em_eeprom.c ****     uint32 eeData = (uint32) eepromData; /* To avoid the pointer arithmetic with void */
 184:Generated_Source\PSoC4/cy_em_eeprom.c **** 
 185:Generated_Source\PSoC4/cy_em_eeprom.c ****     /* Validate input parameters */
 186:Generated_Source\PSoC4/cy_em_eeprom.c ****     if((0u != size) && ((addr + size) <= (context->eepromSize)) && (NULL != eepromData))
 187:Generated_Source\PSoC4/cy_em_eeprom.c ****     {
 188:Generated_Source\PSoC4/cy_em_eeprom.c ****         uint32 rdAddr = addr;
 189:Generated_Source\PSoC4/cy_em_eeprom.c ****         uint32 rdSize = size;
 190:Generated_Source\PSoC4/cy_em_eeprom.c ****         /* Get the sequence number of the last written row */
 191:Generated_Source\PSoC4/cy_em_eeprom.c ****         uint32 seqNum = CY_EM_EEPROM_GET_SEQ_NUM(context->lastWrRowAddr);
 192:Generated_Source\PSoC4/cy_em_eeprom.c ****         uint32 updateAddrFlag = 0u;
 193:Generated_Source\PSoC4/cy_em_eeprom.c **** 
 194:Generated_Source\PSoC4/cy_em_eeprom.c ****         /* Calculate the number of the row read operations. Currently this only concerns
 195:Generated_Source\PSoC4/cy_em_eeprom.c ****         * the reads from the EEPROM data locations.
 196:Generated_Source\PSoC4/cy_em_eeprom.c ****         */
 197:Generated_Source\PSoC4/cy_em_eeprom.c ****         uint32 numRowReads = ((((rdAddr + rdSize) - 1u) / CY_EM_EEPROM_EEPROM_DATA_LEN) -
 198:Generated_Source\PSoC4/cy_em_eeprom.c ****                               (rdAddr / CY_EM_EEPROM_EEPROM_DATA_LEN)) + 1u;
 199:Generated_Source\PSoC4/cy_em_eeprom.c **** 
 200:Generated_Source\PSoC4/cy_em_eeprom.c ****         /* Get the address of the first row of the currently active EEPROM sector. If
 201:Generated_Source\PSoC4/cy_em_eeprom.c ****         * no wear leveling is used - the EEPROM has only one sector, so use the base
 202:Generated_Source\PSoC4/cy_em_eeprom.c ****         * addr stored in "context->userFlashStartAddr".
ARM GAS  C:\Users\Larry\AppData\Local\Temp\ccxlVo0w.s 			page 5


 203:Generated_Source\PSoC4/cy_em_eeprom.c ****         */
 204:Generated_Source\PSoC4/cy_em_eeprom.c ****         curEepromBaseAddr = (((context->lastWrRowAddr - context->userFlashStartAddr) /
 205:Generated_Source\PSoC4/cy_em_eeprom.c ****                               (CY_EM_EEPROM_FLASH_SIZEOF_ROW * context->numberOfRows)) *
 206:Generated_Source\PSoC4/cy_em_eeprom.c ****                               (CY_EM_EEPROM_FLASH_SIZEOF_ROW * context->numberOfRows)) +
 207:Generated_Source\PSoC4/cy_em_eeprom.c ****                                context->userFlashStartAddr;
 208:Generated_Source\PSoC4/cy_em_eeprom.c **** 
 209:Generated_Source\PSoC4/cy_em_eeprom.c ****         /* Find the number of the row that contains the start address of the data */
 210:Generated_Source\PSoC4/cy_em_eeprom.c ****         for(i = 0u; i < context->numberOfRows; i++)
 211:Generated_Source\PSoC4/cy_em_eeprom.c ****         {
 212:Generated_Source\PSoC4/cy_em_eeprom.c ****             if(0u != CY_EM_EEPROM_IS_ADDR_IN_ROW_RANGE(rdAddr, i))
 213:Generated_Source\PSoC4/cy_em_eeprom.c ****             {
 214:Generated_Source\PSoC4/cy_em_eeprom.c ****                 dataStartEepromRowNum = i;
 215:Generated_Source\PSoC4/cy_em_eeprom.c ****                 curRdEepromRowNum = dataStartEepromRowNum;
 216:Generated_Source\PSoC4/cy_em_eeprom.c ****                 break;
 217:Generated_Source\PSoC4/cy_em_eeprom.c ****             }
 218:Generated_Source\PSoC4/cy_em_eeprom.c ****         }
 219:Generated_Source\PSoC4/cy_em_eeprom.c **** 
 220:Generated_Source\PSoC4/cy_em_eeprom.c ****         /* Find the row number of the last written row */
 221:Generated_Source\PSoC4/cy_em_eeprom.c ****         actEepromRowNum = (context->lastWrRowAddr - curEepromBaseAddr) / CY_EM_EEPROM_FLASH_SIZEOF_
 222:Generated_Source\PSoC4/cy_em_eeprom.c **** 
 223:Generated_Source\PSoC4/cy_em_eeprom.c ****         /* Check if wear leveling is used */
 224:Generated_Source\PSoC4/cy_em_eeprom.c ****         if(context->wearLevelingFactor > 1u)
 225:Generated_Source\PSoC4/cy_em_eeprom.c ****         {
 226:Generated_Source\PSoC4/cy_em_eeprom.c ****             uint32 dataEndEepromRowNum = dataStartEepromRowNum + (numRowReads - 1u);
 227:Generated_Source\PSoC4/cy_em_eeprom.c **** 
 228:Generated_Source\PSoC4/cy_em_eeprom.c ****             /* Check if the future validation of the read address is required. */
 229:Generated_Source\PSoC4/cy_em_eeprom.c ****             updateAddrFlag = (dataStartEepromRowNum > actEepromRowNum) ? 1u :
 230:Generated_Source\PSoC4/cy_em_eeprom.c ****                               ((dataEndEepromRowNum > actEepromRowNum) ? 1u : 0u);
 231:Generated_Source\PSoC4/cy_em_eeprom.c ****         }
 232:Generated_Source\PSoC4/cy_em_eeprom.c **** 
 233:Generated_Source\PSoC4/cy_em_eeprom.c ****         /* Copy data from the EEPROM data locations to the user buffer */
 234:Generated_Source\PSoC4/cy_em_eeprom.c ****         for(i = 0u; i < numRowReads; i++)
 235:Generated_Source\PSoC4/cy_em_eeprom.c ****         {
 236:Generated_Source\PSoC4/cy_em_eeprom.c ****             startRowAddr = curEepromBaseAddr + (curRdEepromRowNum * CY_EM_EEPROM_FLASH_SIZEOF_ROW);
 237:Generated_Source\PSoC4/cy_em_eeprom.c ****             curRowOffset = CY_EM_EEPROM_EEPROM_DATA_LEN + (rdAddr % CY_EM_EEPROM_EEPROM_DATA_LEN);
 238:Generated_Source\PSoC4/cy_em_eeprom.c **** 
 239:Generated_Source\PSoC4/cy_em_eeprom.c ****             /* Check if there are more reads pending and update the number of the
 240:Generated_Source\PSoC4/cy_em_eeprom.c ****             * remaining bytes to read respectively.
 241:Generated_Source\PSoC4/cy_em_eeprom.c ****             */
 242:Generated_Source\PSoC4/cy_em_eeprom.c ****             if((i + 1u) < numRowReads)
 243:Generated_Source\PSoC4/cy_em_eeprom.c ****             {
 244:Generated_Source\PSoC4/cy_em_eeprom.c ****                 numBytesToRead = CY_EM_EEPROM_EEPROM_DATA_LEN - (rdAddr % CY_EM_EEPROM_EEPROM_DATA_
 245:Generated_Source\PSoC4/cy_em_eeprom.c ****             }
 246:Generated_Source\PSoC4/cy_em_eeprom.c ****             else
 247:Generated_Source\PSoC4/cy_em_eeprom.c ****             {
 248:Generated_Source\PSoC4/cy_em_eeprom.c ****                 numBytesToRead = rdSize;
 249:Generated_Source\PSoC4/cy_em_eeprom.c ****             }
 250:Generated_Source\PSoC4/cy_em_eeprom.c **** 
 251:Generated_Source\PSoC4/cy_em_eeprom.c ****             /* Check if the read address needs to be updated to point to the correct
 252:Generated_Source\PSoC4/cy_em_eeprom.c ****             * EEPROM sector.
 253:Generated_Source\PSoC4/cy_em_eeprom.c ****             */
 254:Generated_Source\PSoC4/cy_em_eeprom.c ****             if((0u != updateAddrFlag) && (curRdEepromRowNum > actEepromRowNum))
 255:Generated_Source\PSoC4/cy_em_eeprom.c ****             {
 256:Generated_Source\PSoC4/cy_em_eeprom.c ****                 startRowAddr -= context->numberOfRows * CY_EM_EEPROM_FLASH_SIZEOF_ROW;
 257:Generated_Source\PSoC4/cy_em_eeprom.c **** 
 258:Generated_Source\PSoC4/cy_em_eeprom.c ****                 if(startRowAddr < context->userFlashStartAddr)
 259:Generated_Source\PSoC4/cy_em_eeprom.c ****                 {
ARM GAS  C:\Users\Larry\AppData\Local\Temp\ccxlVo0w.s 			page 6


 260:Generated_Source\PSoC4/cy_em_eeprom.c ****                     startRowAddr = context->wlEndAddr -
 261:Generated_Source\PSoC4/cy_em_eeprom.c ****                         ((context->numberOfRows - curRdEepromRowNum) * CY_EM_EEPROM_FLASH_SIZEOF_RO
 262:Generated_Source\PSoC4/cy_em_eeprom.c ****                 }
 263:Generated_Source\PSoC4/cy_em_eeprom.c ****             }
 264:Generated_Source\PSoC4/cy_em_eeprom.c **** 
 265:Generated_Source\PSoC4/cy_em_eeprom.c ****             if(0u != context->redundantCopy)
 266:Generated_Source\PSoC4/cy_em_eeprom.c ****             {
 267:Generated_Source\PSoC4/cy_em_eeprom.c ****                 /* Check a checksum of the EEPROM row and if it is bad, check a checksum in
 268:Generated_Source\PSoC4/cy_em_eeprom.c ****                 * the corresponding row in redundant copy, otherwise return failure.
 269:Generated_Source\PSoC4/cy_em_eeprom.c ****                 */
 270:Generated_Source\PSoC4/cy_em_eeprom.c ****                 ret = CheckCrcAndCopy(startRowAddr, eeData, curRowOffset, numBytesToRead, context);
 271:Generated_Source\PSoC4/cy_em_eeprom.c **** 
 272:Generated_Source\PSoC4/cy_em_eeprom.c ****                 if(CY_EM_EEPROM_SUCCESS != ret)
 273:Generated_Source\PSoC4/cy_em_eeprom.c ****                 {
 274:Generated_Source\PSoC4/cy_em_eeprom.c ****                     break;
 275:Generated_Source\PSoC4/cy_em_eeprom.c ****                 }
 276:Generated_Source\PSoC4/cy_em_eeprom.c ****             }
 277:Generated_Source\PSoC4/cy_em_eeprom.c ****             else
 278:Generated_Source\PSoC4/cy_em_eeprom.c ****             {
 279:Generated_Source\PSoC4/cy_em_eeprom.c ****                 /* Copy the data to the user buffer */
 280:Generated_Source\PSoC4/cy_em_eeprom.c ****                 (void)memcpy((void *)(eeData),
 281:Generated_Source\PSoC4/cy_em_eeprom.c ****                              (void *)(startRowAddr + curRowOffset),
 282:Generated_Source\PSoC4/cy_em_eeprom.c ****                              numBytesToRead);
 283:Generated_Source\PSoC4/cy_em_eeprom.c **** 
 284:Generated_Source\PSoC4/cy_em_eeprom.c ****                 /* Indicate success to be able to execute next code block */
 285:Generated_Source\PSoC4/cy_em_eeprom.c ****                 ret = CY_EM_EEPROM_SUCCESS;
 286:Generated_Source\PSoC4/cy_em_eeprom.c ****             }
 287:Generated_Source\PSoC4/cy_em_eeprom.c **** 
 288:Generated_Source\PSoC4/cy_em_eeprom.c ****             /* Update variables anticipated in the read operation */
 289:Generated_Source\PSoC4/cy_em_eeprom.c ****             rdAddr += numBytesToRead;
 290:Generated_Source\PSoC4/cy_em_eeprom.c ****             rdSize -= numBytesToRead;
 291:Generated_Source\PSoC4/cy_em_eeprom.c ****             eeData += numBytesToRead;
 292:Generated_Source\PSoC4/cy_em_eeprom.c ****             curRdEepromRowNum++;
 293:Generated_Source\PSoC4/cy_em_eeprom.c ****         }
 294:Generated_Source\PSoC4/cy_em_eeprom.c **** 
 295:Generated_Source\PSoC4/cy_em_eeprom.c ****         /* This code block will copy the latest data from the EEPROM headers into the
 296:Generated_Source\PSoC4/cy_em_eeprom.c ****         * user buffer. The data previously copied into the user buffer may be updated
 297:Generated_Source\PSoC4/cy_em_eeprom.c ****         * as the EEPROM headers contain more recent data. 
 298:Generated_Source\PSoC4/cy_em_eeprom.c ****         * The code block is executed when two following conditions are true:
 299:Generated_Source\PSoC4/cy_em_eeprom.c ****         *  1) The reads from "historic" data locations were successful;
 300:Generated_Source\PSoC4/cy_em_eeprom.c ****         *  2) The user performed at least one write operation to Em_EEPROM (0u !=
 301:Generated_Source\PSoC4/cy_em_eeprom.c ****         *     seqNum).        
 302:Generated_Source\PSoC4/cy_em_eeprom.c ****         */
 303:Generated_Source\PSoC4/cy_em_eeprom.c ****         if((CY_EM_EEPROM_SUCCESS == ret) && (0u != seqNum))
 304:Generated_Source\PSoC4/cy_em_eeprom.c ****         {
 305:Generated_Source\PSoC4/cy_em_eeprom.c ****             numRowReads = (context->numberOfRows <= seqNum) ? (context->numberOfRows) : (seqNum);
 306:Generated_Source\PSoC4/cy_em_eeprom.c ****             numRowReads--;
 307:Generated_Source\PSoC4/cy_em_eeprom.c **** 
 308:Generated_Source\PSoC4/cy_em_eeprom.c ****             for(i = (seqNum - numRowReads); i <= seqNum; i++)
 309:Generated_Source\PSoC4/cy_em_eeprom.c ****             {
 310:Generated_Source\PSoC4/cy_em_eeprom.c ****                 startRowAddr = GetRowAddrBySeqNum(i, context);
 311:Generated_Source\PSoC4/cy_em_eeprom.c **** 
 312:Generated_Source\PSoC4/cy_em_eeprom.c ****                 if (0u != startRowAddr)
 313:Generated_Source\PSoC4/cy_em_eeprom.c ****                 {
 314:Generated_Source\PSoC4/cy_em_eeprom.c ****                     /* The following variables are introduced to increase code readability. */
 315:Generated_Source\PSoC4/cy_em_eeprom.c ****                     uint32 startAddr  = *(uint32 *)(startRowAddr + CY_EM_EEPROM_HEADER_ADDR_OFFSET)
 316:Generated_Source\PSoC4/cy_em_eeprom.c ****                     uint32 endAddr    = startAddr + (*(uint32 *)(startRowAddr + CY_EM_EEPROM_HEADER
ARM GAS  C:\Users\Larry\AppData\Local\Temp\ccxlVo0w.s 			page 7


 317:Generated_Source\PSoC4/cy_em_eeprom.c **** 
 318:Generated_Source\PSoC4/cy_em_eeprom.c ****                     /* Check if the current row EEPROM header contains the data requested for read 
 319:Generated_Source\PSoC4/cy_em_eeprom.c ****                     if(0u != CY_EM_EEPROM_IS_ADDRESES_CROSSING(startAddr, endAddr, addr, addr + siz
 320:Generated_Source\PSoC4/cy_em_eeprom.c ****                     {
 321:Generated_Source\PSoC4/cy_em_eeprom.c ****                         uint32 srcOffset = (startAddr > addr) ? (0u) : (addr - startAddr);
 322:Generated_Source\PSoC4/cy_em_eeprom.c ****                         uint32 dstOffset = (startAddr > addr) ? (startAddr - addr): (0u);
 323:Generated_Source\PSoC4/cy_em_eeprom.c ****                         rdAddr = (startAddr > addr) ? (startAddr) : (addr);
 324:Generated_Source\PSoC4/cy_em_eeprom.c **** 
 325:Generated_Source\PSoC4/cy_em_eeprom.c ****                         srcOffset += CY_EM_EEPROM_HEADER_DATA_OFFSET;
 326:Generated_Source\PSoC4/cy_em_eeprom.c **** 
 327:Generated_Source\PSoC4/cy_em_eeprom.c ****                         /* Calculate the number of bytes to be read from the current row's EEPROM h
 328:Generated_Source\PSoC4/cy_em_eeprom.c ****                         numBytesToRead = ((endAddr < (addr + size)) ? endAddr : (addr + size)) - rd
 329:Generated_Source\PSoC4/cy_em_eeprom.c **** 
 330:Generated_Source\PSoC4/cy_em_eeprom.c ****                         /* Calculate the offset in the user buffer from which the data will be upda
 331:Generated_Source\PSoC4/cy_em_eeprom.c ****                         eeData = ((uint32)eepromData) + dstOffset;
 332:Generated_Source\PSoC4/cy_em_eeprom.c **** 
 333:Generated_Source\PSoC4/cy_em_eeprom.c ****                         /* Check a checksum of the EEPROM row and if it is bad, check a checksum in
 334:Generated_Source\PSoC4/cy_em_eeprom.c ****                         * corresponding row in redundant copy, otherwise return failure. Copy the d
 335:Generated_Source\PSoC4/cy_em_eeprom.c ****                         * from the recent EEPROM headers to the user buffer. This will overwrite th
 336:Generated_Source\PSoC4/cy_em_eeprom.c ****                         * data copied form EEPROM data locations as the data in EEPROM headers is n
 337:Generated_Source\PSoC4/cy_em_eeprom.c ****                         */
 338:Generated_Source\PSoC4/cy_em_eeprom.c ****                         if(0u != context->redundantCopy)
 339:Generated_Source\PSoC4/cy_em_eeprom.c ****                         {
 340:Generated_Source\PSoC4/cy_em_eeprom.c ****                             ret = CheckCrcAndCopy(startRowAddr, eeData, srcOffset, numBytesToRead, 
 341:Generated_Source\PSoC4/cy_em_eeprom.c **** 
 342:Generated_Source\PSoC4/cy_em_eeprom.c ****                             if(CY_EM_EEPROM_SUCCESS != ret)
 343:Generated_Source\PSoC4/cy_em_eeprom.c ****                             {
 344:Generated_Source\PSoC4/cy_em_eeprom.c ****                                 break;
 345:Generated_Source\PSoC4/cy_em_eeprom.c ****                             }
 346:Generated_Source\PSoC4/cy_em_eeprom.c ****                         }
 347:Generated_Source\PSoC4/cy_em_eeprom.c ****                         else
 348:Generated_Source\PSoC4/cy_em_eeprom.c ****                         {
 349:Generated_Source\PSoC4/cy_em_eeprom.c ****                             (void)memcpy((void *)(eeData), (void *)(startRowAddr + srcOffset), numB
 350:Generated_Source\PSoC4/cy_em_eeprom.c ****                         }
 351:Generated_Source\PSoC4/cy_em_eeprom.c ****                     }
 352:Generated_Source\PSoC4/cy_em_eeprom.c ****                 }
 353:Generated_Source\PSoC4/cy_em_eeprom.c ****             }
 354:Generated_Source\PSoC4/cy_em_eeprom.c ****         }
 355:Generated_Source\PSoC4/cy_em_eeprom.c ****     }
 356:Generated_Source\PSoC4/cy_em_eeprom.c **** 
 357:Generated_Source\PSoC4/cy_em_eeprom.c ****     return(ret);
 358:Generated_Source\PSoC4/cy_em_eeprom.c **** }
 359:Generated_Source\PSoC4/cy_em_eeprom.c **** 
 360:Generated_Source\PSoC4/cy_em_eeprom.c **** 
 361:Generated_Source\PSoC4/cy_em_eeprom.c **** /*******************************************************************************
 362:Generated_Source\PSoC4/cy_em_eeprom.c **** * Function Name: Cy_Em_EEPROM_Write
 363:Generated_Source\PSoC4/cy_em_eeprom.c **** ****************************************************************************//**
 364:Generated_Source\PSoC4/cy_em_eeprom.c **** *
 365:Generated_Source\PSoC4/cy_em_eeprom.c **** * This function takes the logical EEPROM address and converts it to the actual
 366:Generated_Source\PSoC4/cy_em_eeprom.c **** * physical address and writes data there. If wear leveling is implemented, the
 367:Generated_Source\PSoC4/cy_em_eeprom.c **** * writing process will use the wear leveling techniques. This is a blocking
 368:Generated_Source\PSoC4/cy_em_eeprom.c **** * function and it does not return until the write operation is completed. The
 369:Generated_Source\PSoC4/cy_em_eeprom.c **** * user firmware should not enter Hibernate mode until write is completed. The
 370:Generated_Source\PSoC4/cy_em_eeprom.c **** * write operation is allowed in Sleep and Deep-Sleep modes. During the flash
 371:Generated_Source\PSoC4/cy_em_eeprom.c **** * operation, the device should not be reset, including the XRES pin, a software
 372:Generated_Source\PSoC4/cy_em_eeprom.c **** * reset, and watchdog reset sources. Also, low-voltage detect circuits should
 373:Generated_Source\PSoC4/cy_em_eeprom.c **** * be configured to generate an interrupt instead of a reset. Otherwise, portions
ARM GAS  C:\Users\Larry\AppData\Local\Temp\ccxlVo0w.s 			page 8


 374:Generated_Source\PSoC4/cy_em_eeprom.c **** * of flash may undergo unexpected changes.
 375:Generated_Source\PSoC4/cy_em_eeprom.c **** *
 376:Generated_Source\PSoC4/cy_em_eeprom.c **** * \param addr
 377:Generated_Source\PSoC4/cy_em_eeprom.c **** * The logical start address in EEPROM to start writing data from.
 378:Generated_Source\PSoC4/cy_em_eeprom.c **** *
 379:Generated_Source\PSoC4/cy_em_eeprom.c **** * \param eepromData
 380:Generated_Source\PSoC4/cy_em_eeprom.c **** * Data to write to EEPROM.
 381:Generated_Source\PSoC4/cy_em_eeprom.c **** *
 382:Generated_Source\PSoC4/cy_em_eeprom.c **** * \param size
 383:Generated_Source\PSoC4/cy_em_eeprom.c **** * The amount of data to write to EEPROM.
 384:Generated_Source\PSoC4/cy_em_eeprom.c **** *
 385:Generated_Source\PSoC4/cy_em_eeprom.c **** * \param context
 386:Generated_Source\PSoC4/cy_em_eeprom.c **** * The pointer to the EEPROM context structure \ref cy_stc_eeprom_context_t.
 387:Generated_Source\PSoC4/cy_em_eeprom.c **** *
 388:Generated_Source\PSoC4/cy_em_eeprom.c **** * \return
 389:Generated_Source\PSoC4/cy_em_eeprom.c **** * This function returns \ref cy_en_em_eeprom_status_t.
 390:Generated_Source\PSoC4/cy_em_eeprom.c **** *
 391:Generated_Source\PSoC4/cy_em_eeprom.c **** * \note
 392:Generated_Source\PSoC4/cy_em_eeprom.c **** * This function uses a buffer of the flash row size to perform write
 393:Generated_Source\PSoC4/cy_em_eeprom.c **** * operation. For the size of the row refer to the specific PSoC device
 394:Generated_Source\PSoC4/cy_em_eeprom.c **** * datasheet.
 395:Generated_Source\PSoC4/cy_em_eeprom.c **** *
 396:Generated_Source\PSoC4/cy_em_eeprom.c **** * \sideeffect
 397:Generated_Source\PSoC4/cy_em_eeprom.c **** * In case when blocking write option is used, if this function is called by
 398:Generated_Source\PSoC4/cy_em_eeprom.c **** * the CM4 the user code on CM0P and the user code on CM4 are blocked until erase
 399:Generated_Source\PSoC4/cy_em_eeprom.c **** * flash row operation is finished. If this function is called by the CM0P the
 400:Generated_Source\PSoC4/cy_em_eeprom.c **** * user code on CM4 is not blocked and the user code on CM0P is blocked until
 401:Generated_Source\PSoC4/cy_em_eeprom.c **** * erase flash row operation is finished. Plan your task allocation accordingly.
 402:Generated_Source\PSoC4/cy_em_eeprom.c **** *
 403:Generated_Source\PSoC4/cy_em_eeprom.c **** * \sideeffect
 404:Generated_Source\PSoC4/cy_em_eeprom.c **** * In case if non-blocking write option is used and when user flash is used as
 405:Generated_Source\PSoC4/cy_em_eeprom.c **** * an EEPROM storage care should be taken to prevent the read while write (RWW)
 406:Generated_Source\PSoC4/cy_em_eeprom.c **** * exception. To prevent the RWW exception the user flash macro that includes
 407:Generated_Source\PSoC4/cy_em_eeprom.c **** * the EEPROM storage should not be read while the EEPROM write is not completed.
 408:Generated_Source\PSoC4/cy_em_eeprom.c **** * The read also means the user code execution from the respective flash macro.
 409:Generated_Source\PSoC4/cy_em_eeprom.c **** *
 410:Generated_Source\PSoC4/cy_em_eeprom.c **** *******************************************************************************/
 411:Generated_Source\PSoC4/cy_em_eeprom.c **** cy_en_em_eeprom_status_t Cy_Em_EEPROM_Write(uint32 addr,
 412:Generated_Source\PSoC4/cy_em_eeprom.c ****                                             void * eepromData,
 413:Generated_Source\PSoC4/cy_em_eeprom.c ****                                             uint32 size,
 414:Generated_Source\PSoC4/cy_em_eeprom.c ****                                             cy_stc_eeprom_context_t * context)
 415:Generated_Source\PSoC4/cy_em_eeprom.c **** {
 416:Generated_Source\PSoC4/cy_em_eeprom.c ****     cy_en_em_eeprom_status_t ret = CY_EM_EEPROM_BAD_PARAM;
 417:Generated_Source\PSoC4/cy_em_eeprom.c ****     uint32 i;
 418:Generated_Source\PSoC4/cy_em_eeprom.c ****     uint32 wrCnt;
 419:Generated_Source\PSoC4/cy_em_eeprom.c ****     uint32 actEmEepromRowNum;
 420:Generated_Source\PSoC4/cy_em_eeprom.c ****     uint32 writeRamBuffer[CY_EM_EEPROM_FLASH_SIZEOF_ROW / CY_EM_EEPROM_U32_DIV];
 421:Generated_Source\PSoC4/cy_em_eeprom.c ****     uint32 startAddr = 0u;
 422:Generated_Source\PSoC4/cy_em_eeprom.c ****     uint32 endAddr = 0u;
 423:Generated_Source\PSoC4/cy_em_eeprom.c ****     uint32 tmpRowAddr;
 424:Generated_Source\PSoC4/cy_em_eeprom.c ****     uint32 emEepromRowAddr = context->lastWrRowAddr;
 425:Generated_Source\PSoC4/cy_em_eeprom.c ****     uint32 emEepromRowRdAddr;
 426:Generated_Source\PSoC4/cy_em_eeprom.c ****     void * tmpData;
 427:Generated_Source\PSoC4/cy_em_eeprom.c ****     uint32 eeData = (uint32) eepromData; /* To avoid the pointer arithmetic with void */
 428:Generated_Source\PSoC4/cy_em_eeprom.c **** 
 429:Generated_Source\PSoC4/cy_em_eeprom.c ****     /* Check if the EEPROM data does not exceed the EEPROM capacity */
 430:Generated_Source\PSoC4/cy_em_eeprom.c ****     if((0u != size) && ((addr + size) <= (context->eepromSize)) && (NULL != eepromData))
ARM GAS  C:\Users\Larry\AppData\Local\Temp\ccxlVo0w.s 			page 9


 431:Generated_Source\PSoC4/cy_em_eeprom.c ****     {
 432:Generated_Source\PSoC4/cy_em_eeprom.c ****         uint32 numWrites = ((size - 1u) / CY_EM_EEPROM_HEADER_DATA_LEN) + 1u;
 433:Generated_Source\PSoC4/cy_em_eeprom.c ****         uint32 eeHeaderDataOffset = 0u;
 434:Generated_Source\PSoC4/cy_em_eeprom.c **** 
 435:Generated_Source\PSoC4/cy_em_eeprom.c ****         for(wrCnt = 0u; wrCnt < numWrites; wrCnt++)
 436:Generated_Source\PSoC4/cy_em_eeprom.c ****         {
 437:Generated_Source\PSoC4/cy_em_eeprom.c ****             uint32 skipOperation = 0u;
 438:Generated_Source\PSoC4/cy_em_eeprom.c ****             /* Get the sequence number of the last written row */
 439:Generated_Source\PSoC4/cy_em_eeprom.c ****             uint32 seqNum = CY_EM_EEPROM_GET_SEQ_NUM(emEepromRowAddr);
 440:Generated_Source\PSoC4/cy_em_eeprom.c **** 
 441:Generated_Source\PSoC4/cy_em_eeprom.c ****             /* Get the address of the row to be written. The "emEepromRowAddr" may be
 442:Generated_Source\PSoC4/cy_em_eeprom.c ****             * updated with the proper address (if wear leveling is used). The
 443:Generated_Source\PSoC4/cy_em_eeprom.c ****             * "emEepromRowRdAddr" will point to the row address from which the historic
 444:Generated_Source\PSoC4/cy_em_eeprom.c ****             * data will be read into the RAM buffer.
 445:Generated_Source\PSoC4/cy_em_eeprom.c ****             */
 446:Generated_Source\PSoC4/cy_em_eeprom.c ****             GetNextRowToWrite(seqNum, &emEepromRowAddr, &emEepromRowRdAddr, context);
 447:Generated_Source\PSoC4/cy_em_eeprom.c **** 
 448:Generated_Source\PSoC4/cy_em_eeprom.c ****             /* Clear the RAM buffer so to not put junk into flash */
 449:Generated_Source\PSoC4/cy_em_eeprom.c ****             (void)memset(writeRamBuffer, 0, CY_EM_EEPROM_FLASH_SIZEOF_ROW);
 450:Generated_Source\PSoC4/cy_em_eeprom.c **** 
 451:Generated_Source\PSoC4/cy_em_eeprom.c ****             /* Fill the EM_EEPROM header info for the row in the RAM buffer */
 452:Generated_Source\PSoC4/cy_em_eeprom.c ****             seqNum++;
 453:Generated_Source\PSoC4/cy_em_eeprom.c ****             writeRamBuffer[CY_EM_EEPROM_HEADER_SEQ_NUM_OFFSET_U32] = seqNum;
 454:Generated_Source\PSoC4/cy_em_eeprom.c ****             writeRamBuffer[CY_EM_EEPROM_HEADER_ADDR_OFFSET_U32] = addr;
 455:Generated_Source\PSoC4/cy_em_eeprom.c ****             tmpData = (void *) eeData;
 456:Generated_Source\PSoC4/cy_em_eeprom.c **** 
 457:Generated_Source\PSoC4/cy_em_eeprom.c ****             /* Check if this is the last row to write */
 458:Generated_Source\PSoC4/cy_em_eeprom.c ****             if(wrCnt == (numWrites - 1u))
 459:Generated_Source\PSoC4/cy_em_eeprom.c ****             {
 460:Generated_Source\PSoC4/cy_em_eeprom.c ****                 /* Fill in the remaining size value to the EEPROM header. */
 461:Generated_Source\PSoC4/cy_em_eeprom.c ****                 writeRamBuffer[CY_EM_EEPROM_HEADER_LEN_OFFSET_U32] = size;
 462:Generated_Source\PSoC4/cy_em_eeprom.c ****             }
 463:Generated_Source\PSoC4/cy_em_eeprom.c ****             else
 464:Generated_Source\PSoC4/cy_em_eeprom.c ****             {
 465:Generated_Source\PSoC4/cy_em_eeprom.c ****                 /* This is not the last row to write in the current EEPROM write operation.
 466:Generated_Source\PSoC4/cy_em_eeprom.c ****                 * Write the maximum possible data size to the EEPROM header. Update the
 467:Generated_Source\PSoC4/cy_em_eeprom.c ****                 * size, eeData and addr respectively.
 468:Generated_Source\PSoC4/cy_em_eeprom.c ****                 */
 469:Generated_Source\PSoC4/cy_em_eeprom.c ****                 writeRamBuffer[CY_EM_EEPROM_HEADER_LEN_OFFSET_U32] = CY_EM_EEPROM_HEADER_DATA_LEN;
 470:Generated_Source\PSoC4/cy_em_eeprom.c ****                 size -= CY_EM_EEPROM_HEADER_DATA_LEN;
 471:Generated_Source\PSoC4/cy_em_eeprom.c ****                 addr += CY_EM_EEPROM_HEADER_DATA_LEN;
 472:Generated_Source\PSoC4/cy_em_eeprom.c ****                 eeData += CY_EM_EEPROM_HEADER_DATA_LEN;
 473:Generated_Source\PSoC4/cy_em_eeprom.c ****             }
 474:Generated_Source\PSoC4/cy_em_eeprom.c **** 
 475:Generated_Source\PSoC4/cy_em_eeprom.c ****             /* Write the data to the EEPROM header */
 476:Generated_Source\PSoC4/cy_em_eeprom.c ****             (void)memcpy((void *)&writeRamBuffer[CY_EM_EEPROM_HEADER_DATA_OFFSET_U32],
 477:Generated_Source\PSoC4/cy_em_eeprom.c ****                          tmpData,
 478:Generated_Source\PSoC4/cy_em_eeprom.c ****                          writeRamBuffer[CY_EM_EEPROM_HEADER_LEN_OFFSET_U32]);
 479:Generated_Source\PSoC4/cy_em_eeprom.c **** 
 480:Generated_Source\PSoC4/cy_em_eeprom.c ****             if(emEepromRowRdAddr != 0UL)
 481:Generated_Source\PSoC4/cy_em_eeprom.c ****             {
 482:Generated_Source\PSoC4/cy_em_eeprom.c ****                 /* Copy the EEPROM historic data for this row from flash to RAM */
 483:Generated_Source\PSoC4/cy_em_eeprom.c ****                 (void)memcpy((void *)&writeRamBuffer[CY_EM_EEPROM_EEPROM_DATA_OFFSET_U32],
 484:Generated_Source\PSoC4/cy_em_eeprom.c ****                              (void *)(emEepromRowRdAddr + CY_EM_EEPROM_EEPROM_DATA_LEN),
 485:Generated_Source\PSoC4/cy_em_eeprom.c ****                              CY_EM_EEPROM_EEPROM_DATA_LEN);
 486:Generated_Source\PSoC4/cy_em_eeprom.c ****             }
 487:Generated_Source\PSoC4/cy_em_eeprom.c **** 
ARM GAS  C:\Users\Larry\AppData\Local\Temp\ccxlVo0w.s 			page 10


 488:Generated_Source\PSoC4/cy_em_eeprom.c ****             /* Check if there is data for this location in other EEPROM headers:
 489:Generated_Source\PSoC4/cy_em_eeprom.c ****             * find out the row with the lowest possible sequence number which
 490:Generated_Source\PSoC4/cy_em_eeprom.c ****             * may contain the data for the current row.
 491:Generated_Source\PSoC4/cy_em_eeprom.c ****             */
 492:Generated_Source\PSoC4/cy_em_eeprom.c ****             i = (seqNum > context->numberOfRows) ? ((seqNum - (context->numberOfRows)) + 1u) : 1u;
 493:Generated_Source\PSoC4/cy_em_eeprom.c **** 
 494:Generated_Source\PSoC4/cy_em_eeprom.c ****             for(; i <= seqNum; i++)
 495:Generated_Source\PSoC4/cy_em_eeprom.c ****             {
 496:Generated_Source\PSoC4/cy_em_eeprom.c ****                 if(i == seqNum)
 497:Generated_Source\PSoC4/cy_em_eeprom.c ****                 {
 498:Generated_Source\PSoC4/cy_em_eeprom.c ****                     /* The code reached the row that is about to be written. Analyze the recently
 499:Generated_Source\PSoC4/cy_em_eeprom.c ****                     * created EEPROM header (stored in the RAM buffer currently): if it contains
 500:Generated_Source\PSoC4/cy_em_eeprom.c ****                     * the data for EEPROM data locations in the row that is about to be written.
 501:Generated_Source\PSoC4/cy_em_eeprom.c ****                     */
 502:Generated_Source\PSoC4/cy_em_eeprom.c ****                     tmpRowAddr = (uint32) writeRamBuffer;
 503:Generated_Source\PSoC4/cy_em_eeprom.c ****                 }
 504:Generated_Source\PSoC4/cy_em_eeprom.c ****                 else
 505:Generated_Source\PSoC4/cy_em_eeprom.c ****                 {
 506:Generated_Source\PSoC4/cy_em_eeprom.c ****                     /* Retrieve the address of the previously written row by its sequence number.
 507:Generated_Source\PSoC4/cy_em_eeprom.c ****                     * The pointer will be used to get data from the respective EEPROM header.
 508:Generated_Source\PSoC4/cy_em_eeprom.c ****                     */
 509:Generated_Source\PSoC4/cy_em_eeprom.c ****                     tmpRowAddr = GetRowAddrBySeqNum(i, context);
 510:Generated_Source\PSoC4/cy_em_eeprom.c ****                 }
 511:Generated_Source\PSoC4/cy_em_eeprom.c **** 
 512:Generated_Source\PSoC4/cy_em_eeprom.c ****                 actEmEepromRowNum = CY_EM_EEPROM_GET_ACT_ROW_NUM_FROM_ADDR(emEepromRowAddr,
 513:Generated_Source\PSoC4/cy_em_eeprom.c ****                                                                            context->numberOfRows,
 514:Generated_Source\PSoC4/cy_em_eeprom.c ****                                                                            context->userFlashStartA
 515:Generated_Source\PSoC4/cy_em_eeprom.c ****                 if(0UL != tmpRowAddr)
 516:Generated_Source\PSoC4/cy_em_eeprom.c ****                 {
 517:Generated_Source\PSoC4/cy_em_eeprom.c ****                     /* Calculate the required addressed for the later EEPROM historic data update *
 518:Generated_Source\PSoC4/cy_em_eeprom.c ****                     skipOperation = GetAddresses(
 519:Generated_Source\PSoC4/cy_em_eeprom.c ****                                               &startAddr,
 520:Generated_Source\PSoC4/cy_em_eeprom.c ****                                               &endAddr,
 521:Generated_Source\PSoC4/cy_em_eeprom.c ****                                               &eeHeaderDataOffset,
 522:Generated_Source\PSoC4/cy_em_eeprom.c ****                                               actEmEepromRowNum,
 523:Generated_Source\PSoC4/cy_em_eeprom.c ****                                               *(uint32 *)(tmpRowAddr + CY_EM_EEPROM_HEADER_ADDR_OFF
 524:Generated_Source\PSoC4/cy_em_eeprom.c ****                                               *(uint32 *)(tmpRowAddr + CY_EM_EEPROM_HEADER_LEN_OFFS
 525:Generated_Source\PSoC4/cy_em_eeprom.c ****                 }
 526:Generated_Source\PSoC4/cy_em_eeprom.c ****                 else
 527:Generated_Source\PSoC4/cy_em_eeprom.c ****                 {
 528:Generated_Source\PSoC4/cy_em_eeprom.c ****                     /* Skip writes to the RAM buffer */
 529:Generated_Source\PSoC4/cy_em_eeprom.c ****                     skipOperation++;
 530:Generated_Source\PSoC4/cy_em_eeprom.c ****                 }
 531:Generated_Source\PSoC4/cy_em_eeprom.c **** 
 532:Generated_Source\PSoC4/cy_em_eeprom.c ****                 /* Write data to the RAM buffer */
 533:Generated_Source\PSoC4/cy_em_eeprom.c ****                 if(0u == skipOperation)
 534:Generated_Source\PSoC4/cy_em_eeprom.c ****                 {
 535:Generated_Source\PSoC4/cy_em_eeprom.c ****                     uint32 dataAddr = ((uint32)((uint8 *)&writeRamBuffer)) + startAddr;
 536:Generated_Source\PSoC4/cy_em_eeprom.c **** 
 537:Generated_Source\PSoC4/cy_em_eeprom.c ****                     /* Update the address to point to the EEPROM header data and not to
 538:Generated_Source\PSoC4/cy_em_eeprom.c ****                     * the start of the row.
 539:Generated_Source\PSoC4/cy_em_eeprom.c ****                     */
 540:Generated_Source\PSoC4/cy_em_eeprom.c ****                     tmpRowAddr = tmpRowAddr + CY_EM_EEPROM_HEADER_DATA_OFFSET + eeHeaderDataOffset;
 541:Generated_Source\PSoC4/cy_em_eeprom.c ****                     (void)memcpy((void *)(dataAddr), (void *)(tmpRowAddr), endAddr - startAddr);
 542:Generated_Source\PSoC4/cy_em_eeprom.c ****                 }
 543:Generated_Source\PSoC4/cy_em_eeprom.c **** 
 544:Generated_Source\PSoC4/cy_em_eeprom.c ****                 /* Calculate the checksum if redundant copy is enabled */
ARM GAS  C:\Users\Larry\AppData\Local\Temp\ccxlVo0w.s 			page 11


 545:Generated_Source\PSoC4/cy_em_eeprom.c ****                 if(0u != context->redundantCopy)
 546:Generated_Source\PSoC4/cy_em_eeprom.c ****                 {
 547:Generated_Source\PSoC4/cy_em_eeprom.c ****                     writeRamBuffer[CY_EM_EEPROM_HEADER_CHECKSUM_OFFSET_U32] = (uint32)
 548:Generated_Source\PSoC4/cy_em_eeprom.c ****                         CalcChecksum((uint8 *) &writeRamBuffer[CY_EM_EEPROM_EEPROM_DATA_OFFSET_U32]
 549:Generated_Source\PSoC4/cy_em_eeprom.c ****                                                   CY_EM_EEPROM_EEPROM_DATA_LEN);
 550:Generated_Source\PSoC4/cy_em_eeprom.c ****                 }
 551:Generated_Source\PSoC4/cy_em_eeprom.c ****             }
 552:Generated_Source\PSoC4/cy_em_eeprom.c **** 
 553:Generated_Source\PSoC4/cy_em_eeprom.c ****             /* Write the data to the specified flash row */
 554:Generated_Source\PSoC4/cy_em_eeprom.c ****             ret = WriteRow(emEepromRowAddr, writeRamBuffer, context);
 555:Generated_Source\PSoC4/cy_em_eeprom.c ****             tmpRowAddr = emEepromRowAddr;
 556:Generated_Source\PSoC4/cy_em_eeprom.c **** 
 557:Generated_Source\PSoC4/cy_em_eeprom.c ****             /* Check if redundant copy is used */
 558:Generated_Source\PSoC4/cy_em_eeprom.c ****             if((0u != context->redundantCopy) && (CY_EM_EEPROM_SUCCESS == ret))
 559:Generated_Source\PSoC4/cy_em_eeprom.c ****             {
 560:Generated_Source\PSoC4/cy_em_eeprom.c ****                 /* Update the row address to point to the row in the redundant EEPROM's copy */
 561:Generated_Source\PSoC4/cy_em_eeprom.c ****                 tmpRowAddr = (emEepromRowAddr - context->userFlashStartAddr) + context->wlEndAddr;
 562:Generated_Source\PSoC4/cy_em_eeprom.c **** 
 563:Generated_Source\PSoC4/cy_em_eeprom.c ****                 /* Write the data to the specified flash row */
 564:Generated_Source\PSoC4/cy_em_eeprom.c ****                 ret = WriteRow(tmpRowAddr, writeRamBuffer, context);
 565:Generated_Source\PSoC4/cy_em_eeprom.c ****             }
 566:Generated_Source\PSoC4/cy_em_eeprom.c **** 
 567:Generated_Source\PSoC4/cy_em_eeprom.c ****             if(CY_EM_EEPROM_SUCCESS == ret)
 568:Generated_Source\PSoC4/cy_em_eeprom.c ****             {
 569:Generated_Source\PSoC4/cy_em_eeprom.c ****                 /* Store last written row address only when EEPROM and redundant
 570:Generated_Source\PSoC4/cy_em_eeprom.c ****                 * copy writes were successful.
 571:Generated_Source\PSoC4/cy_em_eeprom.c ****                 */
 572:Generated_Source\PSoC4/cy_em_eeprom.c ****                 context->lastWrRowAddr = emEepromRowAddr;
 573:Generated_Source\PSoC4/cy_em_eeprom.c ****             }
 574:Generated_Source\PSoC4/cy_em_eeprom.c ****             else
 575:Generated_Source\PSoC4/cy_em_eeprom.c ****             {
 576:Generated_Source\PSoC4/cy_em_eeprom.c ****                 break;
 577:Generated_Source\PSoC4/cy_em_eeprom.c ****             }
 578:Generated_Source\PSoC4/cy_em_eeprom.c ****         }
 579:Generated_Source\PSoC4/cy_em_eeprom.c ****     }
 580:Generated_Source\PSoC4/cy_em_eeprom.c ****     return(ret);
 581:Generated_Source\PSoC4/cy_em_eeprom.c **** }
 582:Generated_Source\PSoC4/cy_em_eeprom.c **** 
 583:Generated_Source\PSoC4/cy_em_eeprom.c **** 
 584:Generated_Source\PSoC4/cy_em_eeprom.c **** /*******************************************************************************
 585:Generated_Source\PSoC4/cy_em_eeprom.c **** * Function Name: Cy_Em_EEPROM_Erase
 586:Generated_Source\PSoC4/cy_em_eeprom.c **** ****************************************************************************//**
 587:Generated_Source\PSoC4/cy_em_eeprom.c **** *
 588:Generated_Source\PSoC4/cy_em_eeprom.c **** * This function erases the entire contents of the EEPROM. Erased values are all
 589:Generated_Source\PSoC4/cy_em_eeprom.c **** * zeros. This is a blocking function and it does not return until the write
 590:Generated_Source\PSoC4/cy_em_eeprom.c **** * operation is completed. The user firmware should not enter Hibernate mode until
 591:Generated_Source\PSoC4/cy_em_eeprom.c **** * erase is completed. The erase operation is allowed in Sleep and Deep-Sleep modes.
 592:Generated_Source\PSoC4/cy_em_eeprom.c **** * During the flash operation, the device should not be reset, including the
 593:Generated_Source\PSoC4/cy_em_eeprom.c **** * XRES pin, a software reset, and watchdog reset sources. Also, low-voltage
 594:Generated_Source\PSoC4/cy_em_eeprom.c **** * detect circuits should be configured to generate an interrupt instead of a
 595:Generated_Source\PSoC4/cy_em_eeprom.c **** * reset. Otherwise, portions of flash may undergo unexpected changes.
 596:Generated_Source\PSoC4/cy_em_eeprom.c **** *
 597:Generated_Source\PSoC4/cy_em_eeprom.c **** * \param context
 598:Generated_Source\PSoC4/cy_em_eeprom.c **** * The pointer to the EEPROM context structure \ref cy_stc_eeprom_context_t.
 599:Generated_Source\PSoC4/cy_em_eeprom.c **** *
 600:Generated_Source\PSoC4/cy_em_eeprom.c **** * \return
 601:Generated_Source\PSoC4/cy_em_eeprom.c **** * This function returns \ref cy_en_em_eeprom_status_t.
ARM GAS  C:\Users\Larry\AppData\Local\Temp\ccxlVo0w.s 			page 12


 602:Generated_Source\PSoC4/cy_em_eeprom.c **** *
 603:Generated_Source\PSoC4/cy_em_eeprom.c **** * \note
 604:Generated_Source\PSoC4/cy_em_eeprom.c **** * For all non PSoC 6 devices the erase operation is performed by clearing
 605:Generated_Source\PSoC4/cy_em_eeprom.c **** * the EEPROM data using flash write. This affects the flash durability.
 606:Generated_Source\PSoC4/cy_em_eeprom.c **** * So it is recommended to use this function in utmost case to prolongate
 607:Generated_Source\PSoC4/cy_em_eeprom.c **** * flash life.
 608:Generated_Source\PSoC4/cy_em_eeprom.c **** *
 609:Generated_Source\PSoC4/cy_em_eeprom.c **** * \note
 610:Generated_Source\PSoC4/cy_em_eeprom.c **** * This function uses a buffer of the flash row size to perform erase
 611:Generated_Source\PSoC4/cy_em_eeprom.c **** * operation. For the size of the row refer to the specific PSoC device
 612:Generated_Source\PSoC4/cy_em_eeprom.c **** * datasheet.
 613:Generated_Source\PSoC4/cy_em_eeprom.c **** *
 614:Generated_Source\PSoC4/cy_em_eeprom.c **** * \sideeffect
 615:Generated_Source\PSoC4/cy_em_eeprom.c **** * In case when blocking write option is used, if this function is called by
 616:Generated_Source\PSoC4/cy_em_eeprom.c **** * the CM4 the user code on CM0P and the user code on CM4 are blocked until erase
 617:Generated_Source\PSoC4/cy_em_eeprom.c **** * flash row operation is finished. If this function is called by the CM0P the
 618:Generated_Source\PSoC4/cy_em_eeprom.c **** * user code on CM4 is not blocked and the user code on CM0P is blocked until
 619:Generated_Source\PSoC4/cy_em_eeprom.c **** * erase flash row operation is finished. Plan your task allocation accordingly.
 620:Generated_Source\PSoC4/cy_em_eeprom.c **** *
 621:Generated_Source\PSoC4/cy_em_eeprom.c **** * \sideeffect
 622:Generated_Source\PSoC4/cy_em_eeprom.c **** * In case if non-blocking write option is used and when user flash is used as
 623:Generated_Source\PSoC4/cy_em_eeprom.c **** * an EEPROM storage care should be taken to prevent the read while write (RWW)
 624:Generated_Source\PSoC4/cy_em_eeprom.c **** * exception. To prevent the RWW exception the user flash macro that includes
 625:Generated_Source\PSoC4/cy_em_eeprom.c **** * the EEPROM storage should not be read while the EEPROM erase is not completed.
 626:Generated_Source\PSoC4/cy_em_eeprom.c **** * The read also means the user code execution from the respective flash macro.
 627:Generated_Source\PSoC4/cy_em_eeprom.c **** *
 628:Generated_Source\PSoC4/cy_em_eeprom.c **** *******************************************************************************/
 629:Generated_Source\PSoC4/cy_em_eeprom.c **** cy_en_em_eeprom_status_t Cy_Em_EEPROM_Erase(cy_stc_eeprom_context_t * context)
 630:Generated_Source\PSoC4/cy_em_eeprom.c **** {
 631:Generated_Source\PSoC4/cy_em_eeprom.c ****     uint32 i;
 632:Generated_Source\PSoC4/cy_em_eeprom.c ****     uint32 seqNum;
 633:Generated_Source\PSoC4/cy_em_eeprom.c ****     uint32 emEepromRowAddr = context->lastWrRowAddr;
 634:Generated_Source\PSoC4/cy_em_eeprom.c ****     uint32 emEepromRowRdAddr;
 635:Generated_Source\PSoC4/cy_em_eeprom.c ****     cy_en_em_eeprom_status_t ret = CY_EM_EEPROM_WRITE_FAIL;
 636:Generated_Source\PSoC4/cy_em_eeprom.c ****     uint32 writeRamBuffer[CY_EM_EEPROM_FLASH_SIZEOF_ROW / CY_EM_EEPROM_U32_DIV] = {0u};
 637:Generated_Source\PSoC4/cy_em_eeprom.c **** #if (CY_PSOC6)
 638:Generated_Source\PSoC4/cy_em_eeprom.c ****     uint32 emEepromStoredRowAddr = context->lastWrRowAddr;
 639:Generated_Source\PSoC4/cy_em_eeprom.c ****     uint32 storedSeqNum;
 640:Generated_Source\PSoC4/cy_em_eeprom.c **** #endif /* (!CY_PSOC6) */
 641:Generated_Source\PSoC4/cy_em_eeprom.c **** 
 642:Generated_Source\PSoC4/cy_em_eeprom.c ****     /* Get the sequence number of the last written row */
 643:Generated_Source\PSoC4/cy_em_eeprom.c ****     seqNum = CY_EM_EEPROM_GET_SEQ_NUM(emEepromRowAddr);
 644:Generated_Source\PSoC4/cy_em_eeprom.c **** 
 645:Generated_Source\PSoC4/cy_em_eeprom.c ****     /* If there were no writes to EEPROM - nothing to erase */
 646:Generated_Source\PSoC4/cy_em_eeprom.c ****     if(0u != seqNum)
 647:Generated_Source\PSoC4/cy_em_eeprom.c ****     {
 648:Generated_Source\PSoC4/cy_em_eeprom.c ****         /* Calculate the number of row erase operations required */
 649:Generated_Source\PSoC4/cy_em_eeprom.c ****         uint32 numWrites = context->numberOfRows * context->wearLevelingFactor;
 650:Generated_Source\PSoC4/cy_em_eeprom.c **** 
 651:Generated_Source\PSoC4/cy_em_eeprom.c ****     #if (CY_PSOC6)
 652:Generated_Source\PSoC4/cy_em_eeprom.c ****         GetNextRowToWrite(seqNum, &emEepromStoredRowAddr, &emEepromRowRdAddr, context);
 653:Generated_Source\PSoC4/cy_em_eeprom.c ****         storedSeqNum = seqNum + 1u;
 654:Generated_Source\PSoC4/cy_em_eeprom.c ****     #endif /* (CY_PSOC6) */
 655:Generated_Source\PSoC4/cy_em_eeprom.c **** 
 656:Generated_Source\PSoC4/cy_em_eeprom.c ****         if(0u != context->redundantCopy)
 657:Generated_Source\PSoC4/cy_em_eeprom.c ****         {
 658:Generated_Source\PSoC4/cy_em_eeprom.c ****             writeRamBuffer[CY_EM_EEPROM_HEADER_CHECKSUM_OFFSET_U32] = (uint32)
ARM GAS  C:\Users\Larry\AppData\Local\Temp\ccxlVo0w.s 			page 13


 659:Generated_Source\PSoC4/cy_em_eeprom.c ****                         CalcChecksum((uint8 *) &writeRamBuffer[CY_EM_EEPROM_EEPROM_DATA_OFFSET_U32]
 660:Generated_Source\PSoC4/cy_em_eeprom.c ****                                                   CY_EM_EEPROM_EEPROM_DATA_LEN);
 661:Generated_Source\PSoC4/cy_em_eeprom.c ****         }
 662:Generated_Source\PSoC4/cy_em_eeprom.c **** 
 663:Generated_Source\PSoC4/cy_em_eeprom.c ****         for(i = 0u; i < numWrites; i++)
 664:Generated_Source\PSoC4/cy_em_eeprom.c ****         {
 665:Generated_Source\PSoC4/cy_em_eeprom.c ****         #if (CY_PSOC6)
 666:Generated_Source\PSoC4/cy_em_eeprom.c ****             /* For PSoC 6 the erase operation moves backwards. From last written row
 667:Generated_Source\PSoC4/cy_em_eeprom.c ****             * identified by "seqNum" down to "seqNum" - "numWrites". If "emEepromRowAddr"
 668:Generated_Source\PSoC4/cy_em_eeprom.c ****             * is zero this means that the row identified by "seqNum" was previously 
 669:Generated_Source\PSoC4/cy_em_eeprom.c ****             * erased.
 670:Generated_Source\PSoC4/cy_em_eeprom.c ****             */
 671:Generated_Source\PSoC4/cy_em_eeprom.c ****             if(0u != emEepromRowAddr)
 672:Generated_Source\PSoC4/cy_em_eeprom.c ****             {
 673:Generated_Source\PSoC4/cy_em_eeprom.c ****                 ret = EraseRow(emEepromRowAddr, (uint32)writeRamBuffer, context);
 674:Generated_Source\PSoC4/cy_em_eeprom.c ****             }
 675:Generated_Source\PSoC4/cy_em_eeprom.c **** 
 676:Generated_Source\PSoC4/cy_em_eeprom.c ****             seqNum--;
 677:Generated_Source\PSoC4/cy_em_eeprom.c **** 
 678:Generated_Source\PSoC4/cy_em_eeprom.c ****             if(0u == seqNum)
 679:Generated_Source\PSoC4/cy_em_eeprom.c ****             {
 680:Generated_Source\PSoC4/cy_em_eeprom.c ****                 /* Exit the loop as there is no more row is EEPROM to be erased */
 681:Generated_Source\PSoC4/cy_em_eeprom.c ****                 break;
 682:Generated_Source\PSoC4/cy_em_eeprom.c ****             }
 683:Generated_Source\PSoC4/cy_em_eeprom.c ****             emEepromRowAddr = GetRowAddrBySeqNum(seqNum, context);
 684:Generated_Source\PSoC4/cy_em_eeprom.c ****         #else
 685:Generated_Source\PSoC4/cy_em_eeprom.c ****             seqNum = CY_EM_EEPROM_GET_SEQ_NUM(emEepromRowAddr);
 686:Generated_Source\PSoC4/cy_em_eeprom.c ****             /* Get the address of the row to be erased. "emEepromRowAddr" may be updated
 687:Generated_Source\PSoC4/cy_em_eeprom.c ****             * with the proper address (if wear leveling is used).
 688:Generated_Source\PSoC4/cy_em_eeprom.c ****             */
 689:Generated_Source\PSoC4/cy_em_eeprom.c ****             GetNextRowToWrite(seqNum, &emEepromRowAddr, &emEepromRowRdAddr, context);
 690:Generated_Source\PSoC4/cy_em_eeprom.c ****             seqNum++;
 691:Generated_Source\PSoC4/cy_em_eeprom.c ****             writeRamBuffer[0u] = seqNum;
 692:Generated_Source\PSoC4/cy_em_eeprom.c ****             ret = EraseRow(emEepromRowAddr, (uint32)writeRamBuffer, context);
 693:Generated_Source\PSoC4/cy_em_eeprom.c ****         #endif /* (CY_PSOC6) */
 694:Generated_Source\PSoC4/cy_em_eeprom.c ****         }
 695:Generated_Source\PSoC4/cy_em_eeprom.c **** 
 696:Generated_Source\PSoC4/cy_em_eeprom.c ****     #if (CY_PSOC6)
 697:Generated_Source\PSoC4/cy_em_eeprom.c ****         if(CY_EM_EEPROM_SUCCESS == ret)
 698:Generated_Source\PSoC4/cy_em_eeprom.c ****         {
 699:Generated_Source\PSoC4/cy_em_eeprom.c ****             writeRamBuffer[0u] = storedSeqNum;
 700:Generated_Source\PSoC4/cy_em_eeprom.c **** 
 701:Generated_Source\PSoC4/cy_em_eeprom.c ****             /* Write the previously stored sequence number to the flash row which would be
 702:Generated_Source\PSoC4/cy_em_eeprom.c ****             * written next if the erase wouldn't happen. In this case the write to
 703:Generated_Source\PSoC4/cy_em_eeprom.c ****             * redundant copy can be skipped as it does not add any value.
 704:Generated_Source\PSoC4/cy_em_eeprom.c ****             */
 705:Generated_Source\PSoC4/cy_em_eeprom.c ****             ret = WriteRow(emEepromStoredRowAddr, writeRamBuffer, context);
 706:Generated_Source\PSoC4/cy_em_eeprom.c **** 
 707:Generated_Source\PSoC4/cy_em_eeprom.c ****             if(CY_EM_EEPROM_SUCCESS == ret)
 708:Generated_Source\PSoC4/cy_em_eeprom.c ****             {
 709:Generated_Source\PSoC4/cy_em_eeprom.c ****                 context->lastWrRowAddr = emEepromStoredRowAddr;
 710:Generated_Source\PSoC4/cy_em_eeprom.c ****             }
 711:Generated_Source\PSoC4/cy_em_eeprom.c ****         }
 712:Generated_Source\PSoC4/cy_em_eeprom.c ****     #endif /* (CY_PSOC6) */
 713:Generated_Source\PSoC4/cy_em_eeprom.c **** 
 714:Generated_Source\PSoC4/cy_em_eeprom.c ****     }
 715:Generated_Source\PSoC4/cy_em_eeprom.c ****     return(ret);
ARM GAS  C:\Users\Larry\AppData\Local\Temp\ccxlVo0w.s 			page 14


 716:Generated_Source\PSoC4/cy_em_eeprom.c **** }
 717:Generated_Source\PSoC4/cy_em_eeprom.c **** 
 718:Generated_Source\PSoC4/cy_em_eeprom.c **** 
 719:Generated_Source\PSoC4/cy_em_eeprom.c **** /*******************************************************************************
 720:Generated_Source\PSoC4/cy_em_eeprom.c **** * Function Name: Cy_Em_EEPROM_NumWrites
 721:Generated_Source\PSoC4/cy_em_eeprom.c **** ****************************************************************************//**
 722:Generated_Source\PSoC4/cy_em_eeprom.c **** *
 723:Generated_Source\PSoC4/cy_em_eeprom.c **** * Returns the number of the EEPROM writes completed so far.
 724:Generated_Source\PSoC4/cy_em_eeprom.c **** *
 725:Generated_Source\PSoC4/cy_em_eeprom.c **** * \param context
 726:Generated_Source\PSoC4/cy_em_eeprom.c **** * The pointer to the EEPROM context structure \ref cy_stc_eeprom_context_t.
 727:Generated_Source\PSoC4/cy_em_eeprom.c **** *
 728:Generated_Source\PSoC4/cy_em_eeprom.c **** * \return
 729:Generated_Source\PSoC4/cy_em_eeprom.c **** * The number of writes performed to the EEPROM.
 730:Generated_Source\PSoC4/cy_em_eeprom.c **** *
 731:Generated_Source\PSoC4/cy_em_eeprom.c **** *******************************************************************************/
 732:Generated_Source\PSoC4/cy_em_eeprom.c **** uint32 Cy_Em_EEPROM_NumWrites(cy_stc_eeprom_context_t * context)
 733:Generated_Source\PSoC4/cy_em_eeprom.c **** {
 734:Generated_Source\PSoC4/cy_em_eeprom.c ****     return(CY_EM_EEPROM_GET_SEQ_NUM(context->lastWrRowAddr));
 735:Generated_Source\PSoC4/cy_em_eeprom.c **** }
 736:Generated_Source\PSoC4/cy_em_eeprom.c **** 
 737:Generated_Source\PSoC4/cy_em_eeprom.c **** /** \} */
 738:Generated_Source\PSoC4/cy_em_eeprom.c **** 
 739:Generated_Source\PSoC4/cy_em_eeprom.c **** /** \cond INTERNAL */
 740:Generated_Source\PSoC4/cy_em_eeprom.c **** 
 741:Generated_Source\PSoC4/cy_em_eeprom.c **** 
 742:Generated_Source\PSoC4/cy_em_eeprom.c **** /*******************************************************************************
 743:Generated_Source\PSoC4/cy_em_eeprom.c **** * Function Name: FindLastWrittenRow
 744:Generated_Source\PSoC4/cy_em_eeprom.c **** ****************************************************************************//**
 745:Generated_Source\PSoC4/cy_em_eeprom.c **** *
 746:Generated_Source\PSoC4/cy_em_eeprom.c **** * Performs a search of the last written row address of the EEPROM associated
 747:Generated_Source\PSoC4/cy_em_eeprom.c **** * with the context structure. If there were no writes to the EEPROM the
 748:Generated_Source\PSoC4/cy_em_eeprom.c **** * function returns the start address of the EEPROM. The row address is returned
 749:Generated_Source\PSoC4/cy_em_eeprom.c **** * in the input parameter.
 750:Generated_Source\PSoC4/cy_em_eeprom.c **** *
 751:Generated_Source\PSoC4/cy_em_eeprom.c **** * \param lastWrRowPtr
 752:Generated_Source\PSoC4/cy_em_eeprom.c **** * The pointer to a memory where the last written row will be returned.
 753:Generated_Source\PSoC4/cy_em_eeprom.c **** *
 754:Generated_Source\PSoC4/cy_em_eeprom.c **** * \param context
 755:Generated_Source\PSoC4/cy_em_eeprom.c **** * The pointer to the EEPROM context structure \ref cy_stc_eeprom_context_t.
 756:Generated_Source\PSoC4/cy_em_eeprom.c **** *
 757:Generated_Source\PSoC4/cy_em_eeprom.c **** *******************************************************************************/
 758:Generated_Source\PSoC4/cy_em_eeprom.c **** static void FindLastWrittenRow(uint32 * lastWrRowPtr, cy_stc_eeprom_context_t * context)
 759:Generated_Source\PSoC4/cy_em_eeprom.c **** {
  27              		.loc 1 759 0
  28              		.cfi_startproc
  29              		@ args = 0, pretend = 0, frame = 0
  30              		@ frame_needed = 0, uses_anonymous_args = 0
  31              	.LVL0:
  32 0000 70B5     		push	{r4, r5, r6, lr}
  33              		.cfi_def_cfa_offset 16
  34              		.cfi_offset 4, -16
  35              		.cfi_offset 5, -12
  36              		.cfi_offset 6, -8
  37              		.cfi_offset 14, -4
  38              	.LVL1:
 760:Generated_Source\PSoC4/cy_em_eeprom.c ****     uint32 seqNum = 0u;
ARM GAS  C:\Users\Larry\AppData\Local\Temp\ccxlVo0w.s 			page 15


 761:Generated_Source\PSoC4/cy_em_eeprom.c ****     uint32 prevSeqNum = 0u;
 762:Generated_Source\PSoC4/cy_em_eeprom.c ****     uint32 numRows;
 763:Generated_Source\PSoC4/cy_em_eeprom.c ****     uint32 emEepromAddr = context->userFlashStartAddr;
  39              		.loc 1 763 0
  40 0002 8A69     		ldr	r2, [r1, #24]
  41              	.LVL2:
 764:Generated_Source\PSoC4/cy_em_eeprom.c **** 
 765:Generated_Source\PSoC4/cy_em_eeprom.c ****     *lastWrRowPtr = emEepromAddr;
  42              		.loc 1 765 0
  43 0004 0260     		str	r2, [r0]
  44              	.LVL3:
 766:Generated_Source\PSoC4/cy_em_eeprom.c **** 
 767:Generated_Source\PSoC4/cy_em_eeprom.c ****     for(numRows = 0u; numRows < (context->numberOfRows * context->wearLevelingFactor); numRows++)
  45              		.loc 1 767 0
  46 0006 0024     		movs	r4, #0
 761:Generated_Source\PSoC4/cy_em_eeprom.c ****     uint32 numRows;
  47              		.loc 1 761 0
  48 0008 0025     		movs	r5, #0
  49              		.loc 1 767 0
  50 000a 08E0     		b	.L2
  51              	.LVL4:
  52              	.L4:
 768:Generated_Source\PSoC4/cy_em_eeprom.c ****     {
 769:Generated_Source\PSoC4/cy_em_eeprom.c ****         seqNum = CY_EM_EEPROM_GET_SEQ_NUM(emEepromAddr);
  53              		.loc 1 769 0
  54 000c 1368     		ldr	r3, [r2]
  55              	.LVL5:
 770:Generated_Source\PSoC4/cy_em_eeprom.c ****         if((0u != seqNum) && (seqNum > prevSeqNum))
  56              		.loc 1 770 0
  57 000e 002B     		cmp	r3, #0
  58 0010 03D0     		beq	.L3
  59              		.loc 1 770 0 is_stmt 0 discriminator 1
  60 0012 9D42     		cmp	r5, r3
  61 0014 01D2     		bcs	.L3
  62              	.LVL6:
 771:Generated_Source\PSoC4/cy_em_eeprom.c ****         {
 772:Generated_Source\PSoC4/cy_em_eeprom.c ****             /* Some record in EEPROM was found. Store found sequence
 773:Generated_Source\PSoC4/cy_em_eeprom.c ****             * number and row address.
 774:Generated_Source\PSoC4/cy_em_eeprom.c ****             */
 775:Generated_Source\PSoC4/cy_em_eeprom.c ****             prevSeqNum = seqNum;
 776:Generated_Source\PSoC4/cy_em_eeprom.c ****             *lastWrRowPtr = emEepromAddr;
  63              		.loc 1 776 0 is_stmt 1
  64 0016 0260     		str	r2, [r0]
 775:Generated_Source\PSoC4/cy_em_eeprom.c ****             *lastWrRowPtr = emEepromAddr;
  65              		.loc 1 775 0
  66 0018 1D00     		movs	r5, r3
  67              	.LVL7:
  68              	.L3:
 777:Generated_Source\PSoC4/cy_em_eeprom.c ****         }
 778:Generated_Source\PSoC4/cy_em_eeprom.c **** 
 779:Generated_Source\PSoC4/cy_em_eeprom.c ****         /* Switch to the next row */
 780:Generated_Source\PSoC4/cy_em_eeprom.c ****         emEepromAddr = emEepromAddr + CY_EM_EEPROM_FLASH_SIZEOF_ROW;
  69              		.loc 1 780 0 discriminator 2
  70 001a 8032     		adds	r2, r2, #128
  71              	.LVL8:
 767:Generated_Source\PSoC4/cy_em_eeprom.c ****     {
  72              		.loc 1 767 0 discriminator 2
ARM GAS  C:\Users\Larry\AppData\Local\Temp\ccxlVo0w.s 			page 16


  73 001c 0134     		adds	r4, r4, #1
  74              	.LVL9:
  75              	.L2:
 767:Generated_Source\PSoC4/cy_em_eeprom.c ****     {
  76              		.loc 1 767 0 is_stmt 0 discriminator 1
  77 001e 0B69     		ldr	r3, [r1, #16]
  78 0020 4E68     		ldr	r6, [r1, #4]
  79 0022 7343     		muls	r3, r6
  80 0024 9C42     		cmp	r4, r3
  81 0026 F1D3     		bcc	.L4
 781:Generated_Source\PSoC4/cy_em_eeprom.c ****     }
 782:Generated_Source\PSoC4/cy_em_eeprom.c **** }
  82              		.loc 1 782 0 is_stmt 1
  83              		@ sp needed
  84              	.LVL10:
  85              	.LVL11:
  86 0028 70BD     		pop	{r4, r5, r6, pc}
  87              		.cfi_endproc
  88              	.LFE6:
  89              		.size	FindLastWrittenRow, .-FindLastWrittenRow
  90 002a C046     		.section	.text.GetRowAddrBySeqNum,"ax",%progbits
  91              		.align	2
  92              		.code	16
  93              		.thumb_func
  94              		.type	GetRowAddrBySeqNum, %function
  95              	GetRowAddrBySeqNum:
  96              	.LFB7:
 783:Generated_Source\PSoC4/cy_em_eeprom.c **** 
 784:Generated_Source\PSoC4/cy_em_eeprom.c **** 
 785:Generated_Source\PSoC4/cy_em_eeprom.c **** /*******************************************************************************
 786:Generated_Source\PSoC4/cy_em_eeprom.c **** * Function Name: GetRowAddrBySeqNum
 787:Generated_Source\PSoC4/cy_em_eeprom.c **** ****************************************************************************//**
 788:Generated_Source\PSoC4/cy_em_eeprom.c **** *
 789:Generated_Source\PSoC4/cy_em_eeprom.c **** * Returns the address of the row in EEPROM using its sequence number.
 790:Generated_Source\PSoC4/cy_em_eeprom.c **** *
 791:Generated_Source\PSoC4/cy_em_eeprom.c **** * \param seqNum
 792:Generated_Source\PSoC4/cy_em_eeprom.c **** * The sequence number of the row.
 793:Generated_Source\PSoC4/cy_em_eeprom.c **** *
 794:Generated_Source\PSoC4/cy_em_eeprom.c **** * \param context
 795:Generated_Source\PSoC4/cy_em_eeprom.c **** * The pointer to the EEPROM context structure.
 796:Generated_Source\PSoC4/cy_em_eeprom.c **** *
 797:Generated_Source\PSoC4/cy_em_eeprom.c **** * \return
 798:Generated_Source\PSoC4/cy_em_eeprom.c **** * The address of the row or zero if the row with the sequence number was not
 799:Generated_Source\PSoC4/cy_em_eeprom.c **** * found.
 800:Generated_Source\PSoC4/cy_em_eeprom.c **** *
 801:Generated_Source\PSoC4/cy_em_eeprom.c **** *******************************************************************************/
 802:Generated_Source\PSoC4/cy_em_eeprom.c **** static uint32 GetRowAddrBySeqNum(uint32 seqNum, cy_stc_eeprom_context_t * context)
 803:Generated_Source\PSoC4/cy_em_eeprom.c **** {
  97              		.loc 1 803 0
  98              		.cfi_startproc
  99              		@ args = 0, pretend = 0, frame = 0
 100              		@ frame_needed = 0, uses_anonymous_args = 0
 101              		@ link register save eliminated.
 102              	.LVL12:
 804:Generated_Source\PSoC4/cy_em_eeprom.c ****     uint32 emEepromAddr = context->userFlashStartAddr;
 103              		.loc 1 804 0
 104 0000 8B69     		ldr	r3, [r1, #24]
ARM GAS  C:\Users\Larry\AppData\Local\Temp\ccxlVo0w.s 			page 17


 105              	.LVL13:
 805:Generated_Source\PSoC4/cy_em_eeprom.c **** 
 806:Generated_Source\PSoC4/cy_em_eeprom.c ****     while(CY_EM_EEPROM_GET_SEQ_NUM(emEepromAddr) != seqNum)
 106              		.loc 1 806 0
 107 0002 03E0     		b	.L6
 108              	.L8:
 807:Generated_Source\PSoC4/cy_em_eeprom.c ****     {
 808:Generated_Source\PSoC4/cy_em_eeprom.c ****         /* Switch to the next row */
 809:Generated_Source\PSoC4/cy_em_eeprom.c ****         emEepromAddr = emEepromAddr + CY_EM_EEPROM_FLASH_SIZEOF_ROW;
 109              		.loc 1 809 0
 110 0004 8033     		adds	r3, r3, #128
 111              	.LVL14:
 810:Generated_Source\PSoC4/cy_em_eeprom.c **** 
 811:Generated_Source\PSoC4/cy_em_eeprom.c ****         if (CY_EM_EEPROM_ADDR_IN_RANGE !=
 112              		.loc 1 811 0
 113 0006 0A68     		ldr	r2, [r1]
 114 0008 9342     		cmp	r3, r2
 115 000a 03D2     		bcs	.L9
 116              	.L6:
 806:Generated_Source\PSoC4/cy_em_eeprom.c ****     {
 117              		.loc 1 806 0
 118 000c 1A68     		ldr	r2, [r3]
 119 000e 8242     		cmp	r2, r0
 120 0010 F8D1     		bne	.L8
 121 0012 00E0     		b	.L7
 122              	.L9:
 812:Generated_Source\PSoC4/cy_em_eeprom.c ****             CY_EM_EEPROM_IS_ADDR_EXCEED_RANGE(emEepromAddr, context->wlEndAddr))
 813:Generated_Source\PSoC4/cy_em_eeprom.c ****         {
 814:Generated_Source\PSoC4/cy_em_eeprom.c ****             emEepromAddr = 0u;
 123              		.loc 1 814 0
 124 0014 0023     		movs	r3, #0
 125              	.LVL15:
 126              	.L7:
 815:Generated_Source\PSoC4/cy_em_eeprom.c ****             /* Exit the loop as we reached the end of EEPROM */
 816:Generated_Source\PSoC4/cy_em_eeprom.c ****             break;
 817:Generated_Source\PSoC4/cy_em_eeprom.c ****         }
 818:Generated_Source\PSoC4/cy_em_eeprom.c ****     }
 819:Generated_Source\PSoC4/cy_em_eeprom.c **** 
 820:Generated_Source\PSoC4/cy_em_eeprom.c ****     return (emEepromAddr);
 821:Generated_Source\PSoC4/cy_em_eeprom.c **** }
 127              		.loc 1 821 0
 128 0016 1800     		movs	r0, r3
 129              	.LVL16:
 130              		@ sp needed
 131 0018 7047     		bx	lr
 132              		.cfi_endproc
 133              	.LFE7:
 134              		.size	GetRowAddrBySeqNum, .-GetRowAddrBySeqNum
 135 001a C046     		.section	.text.GetNextRowToWrite,"ax",%progbits
 136              		.align	2
 137              		.code	16
 138              		.thumb_func
 139              		.type	GetNextRowToWrite, %function
 140              	GetNextRowToWrite:
 141              	.LFB8:
 822:Generated_Source\PSoC4/cy_em_eeprom.c **** 
 823:Generated_Source\PSoC4/cy_em_eeprom.c **** 
ARM GAS  C:\Users\Larry\AppData\Local\Temp\ccxlVo0w.s 			page 18


 824:Generated_Source\PSoC4/cy_em_eeprom.c **** /*******************************************************************************
 825:Generated_Source\PSoC4/cy_em_eeprom.c **** * Function Name: GetNextRowToWrite
 826:Generated_Source\PSoC4/cy_em_eeprom.c **** ****************************************************************************//**
 827:Generated_Source\PSoC4/cy_em_eeprom.c **** *
 828:Generated_Source\PSoC4/cy_em_eeprom.c **** * Performs a range check of the row that should be written and updates the
 829:Generated_Source\PSoC4/cy_em_eeprom.c **** * address to the row respectively. The similar actions are done for the read
 830:Generated_Source\PSoC4/cy_em_eeprom.c **** * address.
 831:Generated_Source\PSoC4/cy_em_eeprom.c **** *
 832:Generated_Source\PSoC4/cy_em_eeprom.c **** * \param seqNum
 833:Generated_Source\PSoC4/cy_em_eeprom.c **** * The sequence number of the last written row.
 834:Generated_Source\PSoC4/cy_em_eeprom.c **** *
 835:Generated_Source\PSoC4/cy_em_eeprom.c **** * \param rowToWrPtr
 836:Generated_Source\PSoC4/cy_em_eeprom.c **** * The address of the last written row (input). The address of the row to be 
 837:Generated_Source\PSoC4/cy_em_eeprom.c **** * written (output).
 838:Generated_Source\PSoC4/cy_em_eeprom.c **** *
 839:Generated_Source\PSoC4/cy_em_eeprom.c **** * \param rowToRdPtr
 840:Generated_Source\PSoC4/cy_em_eeprom.c **** * The address of the row from which the data should be read into the RAM buffer
 841:Generated_Source\PSoC4/cy_em_eeprom.c **** * in a later write operation. Out parameter.
 842:Generated_Source\PSoC4/cy_em_eeprom.c **** *
 843:Generated_Source\PSoC4/cy_em_eeprom.c **** * \param context
 844:Generated_Source\PSoC4/cy_em_eeprom.c **** * The pointer to the EEPROM context structure \ref cy_stc_eeprom_context_t.
 845:Generated_Source\PSoC4/cy_em_eeprom.c **** *
 846:Generated_Source\PSoC4/cy_em_eeprom.c **** *******************************************************************************/
 847:Generated_Source\PSoC4/cy_em_eeprom.c **** static void GetNextRowToWrite(uint32 seqNum,
 848:Generated_Source\PSoC4/cy_em_eeprom.c ****                             uint32 * rowToWrPtr,
 849:Generated_Source\PSoC4/cy_em_eeprom.c ****                             uint32 * rowToRdPtr,
 850:Generated_Source\PSoC4/cy_em_eeprom.c ****                             cy_stc_eeprom_context_t * context)
 851:Generated_Source\PSoC4/cy_em_eeprom.c **** {
 142              		.loc 1 851 0
 143              		.cfi_startproc
 144              		@ args = 0, pretend = 0, frame = 0
 145              		@ frame_needed = 0, uses_anonymous_args = 0
 146              	.LVL17:
 147 0000 30B5     		push	{r4, r5, lr}
 148              		.cfi_def_cfa_offset 12
 149              		.cfi_offset 4, -12
 150              		.cfi_offset 5, -8
 151              		.cfi_offset 14, -4
 852:Generated_Source\PSoC4/cy_em_eeprom.c ****     /* Switch to the next row to be written if the current sequence number is
 853:Generated_Source\PSoC4/cy_em_eeprom.c ****     * not zero.
 854:Generated_Source\PSoC4/cy_em_eeprom.c ****     */
 855:Generated_Source\PSoC4/cy_em_eeprom.c ****     if(0u != seqNum)
 152              		.loc 1 855 0
 153 0002 0028     		cmp	r0, #0
 154 0004 02D0     		beq	.L11
 856:Generated_Source\PSoC4/cy_em_eeprom.c ****     {
 857:Generated_Source\PSoC4/cy_em_eeprom.c ****         *rowToWrPtr = (*rowToWrPtr + CY_EM_EEPROM_FLASH_SIZEOF_ROW);
 155              		.loc 1 857 0
 156 0006 0C68     		ldr	r4, [r1]
 157 0008 8034     		adds	r4, r4, #128
 158 000a 0C60     		str	r4, [r1]
 159              	.L11:
 858:Generated_Source\PSoC4/cy_em_eeprom.c ****     }
 859:Generated_Source\PSoC4/cy_em_eeprom.c **** 
 860:Generated_Source\PSoC4/cy_em_eeprom.c ****     /* If the resulting row address is out of EEPROM, then switch to the base
 861:Generated_Source\PSoC4/cy_em_eeprom.c ****     * EEPROM address (Row#0).
 862:Generated_Source\PSoC4/cy_em_eeprom.c ****     */
ARM GAS  C:\Users\Larry\AppData\Local\Temp\ccxlVo0w.s 			page 19


 863:Generated_Source\PSoC4/cy_em_eeprom.c ****     if(CY_EM_EEPROM_ADDR_IN_RANGE !=
 160              		.loc 1 863 0
 161 000c 0C68     		ldr	r4, [r1]
 162 000e 1D68     		ldr	r5, [r3]
 163 0010 AC42     		cmp	r4, r5
 164 0012 01D3     		bcc	.L12
 864:Generated_Source\PSoC4/cy_em_eeprom.c ****             CY_EM_EEPROM_IS_ADDR_EXCEED_RANGE(*rowToWrPtr, context->wlEndAddr))
 865:Generated_Source\PSoC4/cy_em_eeprom.c ****     {
 866:Generated_Source\PSoC4/cy_em_eeprom.c ****         *rowToWrPtr = context->userFlashStartAddr;
 165              		.loc 1 866 0
 166 0014 9C69     		ldr	r4, [r3, #24]
 167 0016 0C60     		str	r4, [r1]
 168              	.L12:
 867:Generated_Source\PSoC4/cy_em_eeprom.c ****     }
 868:Generated_Source\PSoC4/cy_em_eeprom.c **** 
 869:Generated_Source\PSoC4/cy_em_eeprom.c ****     *rowToRdPtr = 0u;
 169              		.loc 1 869 0
 170 0018 0024     		movs	r4, #0
 171 001a 1460     		str	r4, [r2]
 870:Generated_Source\PSoC4/cy_em_eeprom.c **** 
 871:Generated_Source\PSoC4/cy_em_eeprom.c ****     /* Check if the sequence number is larger than the number of rows in the EEPROM.
 872:Generated_Source\PSoC4/cy_em_eeprom.c ****     * If not, do not update the row read address because there is no historic
 873:Generated_Source\PSoC4/cy_em_eeprom.c ****     * data to be read.
 874:Generated_Source\PSoC4/cy_em_eeprom.c ****     */
 875:Generated_Source\PSoC4/cy_em_eeprom.c ****     if(context->numberOfRows <= seqNum)
 172              		.loc 1 875 0
 173 001c 5C68     		ldr	r4, [r3, #4]
 174 001e A042     		cmp	r0, r4
 175 0020 16D3     		bcc	.L10
 876:Generated_Source\PSoC4/cy_em_eeprom.c ****     {
 877:Generated_Source\PSoC4/cy_em_eeprom.c ****         /* Check if wear leveling is used in EEPROM */
 878:Generated_Source\PSoC4/cy_em_eeprom.c ****         if(context->wearLevelingFactor > 1u)
 176              		.loc 1 878 0
 177 0022 1D69     		ldr	r5, [r3, #16]
 178 0024 012D     		cmp	r5, #1
 179 0026 11D9     		bls	.L14
 879:Generated_Source\PSoC4/cy_em_eeprom.c ****         {
 880:Generated_Source\PSoC4/cy_em_eeprom.c ****             /* The read row address should be taken from an EEPROM copy that became
 881:Generated_Source\PSoC4/cy_em_eeprom.c ****             * inactive recently. This condition check handles that.
 882:Generated_Source\PSoC4/cy_em_eeprom.c ****             */
 883:Generated_Source\PSoC4/cy_em_eeprom.c ****             if((*rowToWrPtr - (context->numberOfRows * CY_EM_EEPROM_FLASH_SIZEOF_ROW)) <
 180              		.loc 1 883 0
 181 0028 0868     		ldr	r0, [r1]
 182              	.LVL18:
 183 002a E101     		lsls	r1, r4, #7
 184              	.LVL19:
 185 002c 411A     		subs	r1, r0, r1
 884:Generated_Source\PSoC4/cy_em_eeprom.c ****                 context->userFlashStartAddr)
 186              		.loc 1 884 0
 187 002e 9B69     		ldr	r3, [r3, #24]
 188              	.LVL20:
 883:Generated_Source\PSoC4/cy_em_eeprom.c ****                 context->userFlashStartAddr)
 189              		.loc 1 883 0
 190 0030 9942     		cmp	r1, r3
 191 0032 09D2     		bcs	.L15
 885:Generated_Source\PSoC4/cy_em_eeprom.c ****             {
 886:Generated_Source\PSoC4/cy_em_eeprom.c ****                 *rowToRdPtr = context->userFlashStartAddr +
ARM GAS  C:\Users\Larry\AppData\Local\Temp\ccxlVo0w.s 			page 20


 887:Generated_Source\PSoC4/cy_em_eeprom.c ****                     (context->numberOfRows * (context->wearLevelingFactor - 1u) *
 192              		.loc 1 887 0
 193 0034 0749     		ldr	r1, .L16
 194 0036 8C46     		mov	ip, r1
 195 0038 6544     		add	r5, r5, ip
 196 003a 6C43     		muls	r4, r5
 197 003c E401     		lsls	r4, r4, #7
 886:Generated_Source\PSoC4/cy_em_eeprom.c ****                     (context->numberOfRows * (context->wearLevelingFactor - 1u) *
 198              		.loc 1 886 0
 199 003e 1C19     		adds	r4, r3, r4
 888:Generated_Source\PSoC4/cy_em_eeprom.c ****                         CY_EM_EEPROM_FLASH_SIZEOF_ROW) + (*rowToWrPtr - context->userFlashStartAddr
 200              		.loc 1 888 0
 201 0040 C01A     		subs	r0, r0, r3
 202 0042 2418     		adds	r4, r4, r0
 886:Generated_Source\PSoC4/cy_em_eeprom.c ****                     (context->numberOfRows * (context->wearLevelingFactor - 1u) *
 203              		.loc 1 886 0
 204 0044 1460     		str	r4, [r2]
 205 0046 03E0     		b	.L10
 206              	.L15:
 889:Generated_Source\PSoC4/cy_em_eeprom.c ****             }
 890:Generated_Source\PSoC4/cy_em_eeprom.c ****             else
 891:Generated_Source\PSoC4/cy_em_eeprom.c ****             {
 892:Generated_Source\PSoC4/cy_em_eeprom.c ****                 *rowToRdPtr = *rowToWrPtr - (context->numberOfRows * CY_EM_EEPROM_FLASH_SIZEOF_ROW)
 207              		.loc 1 892 0
 208 0048 1160     		str	r1, [r2]
 209 004a 01E0     		b	.L10
 210              	.LVL21:
 211              	.L14:
 893:Generated_Source\PSoC4/cy_em_eeprom.c ****             }
 894:Generated_Source\PSoC4/cy_em_eeprom.c ****         }
 895:Generated_Source\PSoC4/cy_em_eeprom.c ****         else
 896:Generated_Source\PSoC4/cy_em_eeprom.c ****         {
 897:Generated_Source\PSoC4/cy_em_eeprom.c ****             /* If no wear leveling, always read from the same flash row that
 898:Generated_Source\PSoC4/cy_em_eeprom.c ****             * should be written.
 899:Generated_Source\PSoC4/cy_em_eeprom.c ****             */
 900:Generated_Source\PSoC4/cy_em_eeprom.c ****             *rowToRdPtr = *rowToWrPtr;
 212              		.loc 1 900 0
 213 004c 0B68     		ldr	r3, [r1]
 214              	.LVL22:
 215 004e 1360     		str	r3, [r2]
 216              	.LVL23:
 217              	.L10:
 901:Generated_Source\PSoC4/cy_em_eeprom.c ****         }
 902:Generated_Source\PSoC4/cy_em_eeprom.c ****     }
 903:Generated_Source\PSoC4/cy_em_eeprom.c **** }
 218              		.loc 1 903 0
 219              		@ sp needed
 220 0050 30BD     		pop	{r4, r5, pc}
 221              	.L17:
 222 0052 C046     		.align	2
 223              	.L16:
 224 0054 FFFFFF01 		.word	33554431
 225              		.cfi_endproc
 226              	.LFE8:
 227              		.size	GetNextRowToWrite, .-GetNextRowToWrite
 228              		.section	.text.CalcChecksum,"ax",%progbits
 229              		.align	2
ARM GAS  C:\Users\Larry\AppData\Local\Temp\ccxlVo0w.s 			page 21


 230              		.code	16
 231              		.thumb_func
 232              		.type	CalcChecksum, %function
 233              	CalcChecksum:
 234              	.LFB9:
 904:Generated_Source\PSoC4/cy_em_eeprom.c **** 
 905:Generated_Source\PSoC4/cy_em_eeprom.c **** 
 906:Generated_Source\PSoC4/cy_em_eeprom.c **** /*******************************************************************************
 907:Generated_Source\PSoC4/cy_em_eeprom.c **** * Function Name: CalcChecksum
 908:Generated_Source\PSoC4/cy_em_eeprom.c **** ****************************************************************************//**
 909:Generated_Source\PSoC4/cy_em_eeprom.c **** *
 910:Generated_Source\PSoC4/cy_em_eeprom.c **** * Implements CRC-8 that is used in checksum calculation for the redundant copy
 911:Generated_Source\PSoC4/cy_em_eeprom.c **** * algorithm.
 912:Generated_Source\PSoC4/cy_em_eeprom.c **** *
 913:Generated_Source\PSoC4/cy_em_eeprom.c **** * \param rowData
 914:Generated_Source\PSoC4/cy_em_eeprom.c **** * The row data to be used to calculate the checksum.
 915:Generated_Source\PSoC4/cy_em_eeprom.c **** *
 916:Generated_Source\PSoC4/cy_em_eeprom.c **** * \param len
 917:Generated_Source\PSoC4/cy_em_eeprom.c **** * The length of rowData.
 918:Generated_Source\PSoC4/cy_em_eeprom.c **** *
 919:Generated_Source\PSoC4/cy_em_eeprom.c **** * \return
 920:Generated_Source\PSoC4/cy_em_eeprom.c **** * The calculated value of CRC-8.
 921:Generated_Source\PSoC4/cy_em_eeprom.c **** *
 922:Generated_Source\PSoC4/cy_em_eeprom.c **** *******************************************************************************/
 923:Generated_Source\PSoC4/cy_em_eeprom.c **** static uint8 CalcChecksum(uint8 rowData[], uint32 len)
 924:Generated_Source\PSoC4/cy_em_eeprom.c **** {
 235              		.loc 1 924 0
 236              		.cfi_startproc
 237              		@ args = 0, pretend = 0, frame = 0
 238              		@ frame_needed = 0, uses_anonymous_args = 0
 239              	.LVL24:
 240 0000 30B5     		push	{r4, r5, lr}
 241              		.cfi_def_cfa_offset 12
 242              		.cfi_offset 4, -12
 243              		.cfi_offset 5, -8
 244              		.cfi_offset 14, -4
 245 0002 0500     		movs	r5, r0
 246              	.LVL25:
 925:Generated_Source\PSoC4/cy_em_eeprom.c ****     uint8 crc = CY_EM_EEPROM_CRC8_SEED;
 926:Generated_Source\PSoC4/cy_em_eeprom.c ****     uint8 i;
 927:Generated_Source\PSoC4/cy_em_eeprom.c ****     uint16 cnt = 0u;
 247              		.loc 1 927 0
 248 0004 0024     		movs	r4, #0
 925:Generated_Source\PSoC4/cy_em_eeprom.c ****     uint8 crc = CY_EM_EEPROM_CRC8_SEED;
 249              		.loc 1 925 0
 250 0006 FF20     		movs	r0, #255
 251              	.LVL26:
 928:Generated_Source\PSoC4/cy_em_eeprom.c **** 
 929:Generated_Source\PSoC4/cy_em_eeprom.c ****     while(cnt != len)
 252              		.loc 1 929 0
 253 0008 14E0     		b	.L19
 254              	.LVL27:
 255              	.L24:
 930:Generated_Source\PSoC4/cy_em_eeprom.c ****     {
 931:Generated_Source\PSoC4/cy_em_eeprom.c ****         crc ^= rowData[cnt];
 256              		.loc 1 931 0
 257 000a 2B5D     		ldrb	r3, [r5, r4]
ARM GAS  C:\Users\Larry\AppData\Local\Temp\ccxlVo0w.s 			page 22


 258 000c 5840     		eors	r0, r3
 259              	.LVL28:
 932:Generated_Source\PSoC4/cy_em_eeprom.c ****         for (i = 0u; i < CY_EM_EEPROM_CRC8_POLYNOM_LEN; i++)
 260              		.loc 1 932 0
 261 000e 0022     		movs	r2, #0
 262 0010 0CE0     		b	.L20
 263              	.LVL29:
 264              	.L23:
 933:Generated_Source\PSoC4/cy_em_eeprom.c ****         {
 934:Generated_Source\PSoC4/cy_em_eeprom.c ****             crc = CY_EM_EEPROM_CALCULATE_CRC8(crc);
 265              		.loc 1 934 0
 266 0012 43B2     		sxtb	r3, r0
 267 0014 002B     		cmp	r3, #0
 268 0016 05DA     		bge	.L21
 269              		.loc 1 934 0 is_stmt 0 discriminator 1
 270 0018 4000     		lsls	r0, r0, #1
 271              	.LVL30:
 272 001a C3B2     		uxtb	r3, r0
 273              	.LVL31:
 274 001c 3120     		movs	r0, #49
 275 001e 4340     		eors	r3, r0
 276 0020 D8B2     		uxtb	r0, r3
 277 0022 01E0     		b	.L22
 278              	.LVL32:
 279              	.L21:
 280              		.loc 1 934 0 discriminator 2
 281 0024 4000     		lsls	r0, r0, #1
 282              	.LVL33:
 283 0026 C0B2     		uxtb	r0, r0
 284              	.LVL34:
 285              	.L22:
 932:Generated_Source\PSoC4/cy_em_eeprom.c ****         for (i = 0u; i < CY_EM_EEPROM_CRC8_POLYNOM_LEN; i++)
 286              		.loc 1 932 0 is_stmt 1 discriminator 4
 287 0028 0132     		adds	r2, r2, #1
 288              	.LVL35:
 289 002a D2B2     		uxtb	r2, r2
 290              	.LVL36:
 291              	.L20:
 932:Generated_Source\PSoC4/cy_em_eeprom.c ****         for (i = 0u; i < CY_EM_EEPROM_CRC8_POLYNOM_LEN; i++)
 292              		.loc 1 932 0 is_stmt 0 discriminator 2
 293 002c 072A     		cmp	r2, #7
 294 002e F0D9     		bls	.L23
 935:Generated_Source\PSoC4/cy_em_eeprom.c ****         }
 936:Generated_Source\PSoC4/cy_em_eeprom.c ****         cnt++;
 295              		.loc 1 936 0 is_stmt 1
 296 0030 0134     		adds	r4, r4, #1
 297              	.LVL37:
 298 0032 A4B2     		uxth	r4, r4
 299              	.LVL38:
 300              	.L19:
 929:Generated_Source\PSoC4/cy_em_eeprom.c ****     {
 301              		.loc 1 929 0
 302 0034 8C42     		cmp	r4, r1
 303 0036 E8D1     		bne	.L24
 937:Generated_Source\PSoC4/cy_em_eeprom.c ****     }
 938:Generated_Source\PSoC4/cy_em_eeprom.c **** 
 939:Generated_Source\PSoC4/cy_em_eeprom.c ****     return (crc);
ARM GAS  C:\Users\Larry\AppData\Local\Temp\ccxlVo0w.s 			page 23


 940:Generated_Source\PSoC4/cy_em_eeprom.c **** }
 304              		.loc 1 940 0
 305              		@ sp needed
 306              	.LVL39:
 307              	.LVL40:
 308 0038 30BD     		pop	{r4, r5, pc}
 309              		.cfi_endproc
 310              	.LFE9:
 311              		.size	CalcChecksum, .-CalcChecksum
 312 003a C046     		.section	.text.CheckRanges,"ax",%progbits
 313              		.align	2
 314              		.code	16
 315              		.thumb_func
 316              		.type	CheckRanges, %function
 317              	CheckRanges:
 318              	.LFB10:
 941:Generated_Source\PSoC4/cy_em_eeprom.c **** 
 942:Generated_Source\PSoC4/cy_em_eeprom.c **** 
 943:Generated_Source\PSoC4/cy_em_eeprom.c **** /*******************************************************************************
 944:Generated_Source\PSoC4/cy_em_eeprom.c **** * Function Name: CheckRanges
 945:Generated_Source\PSoC4/cy_em_eeprom.c **** ****************************************************************************//**
 946:Generated_Source\PSoC4/cy_em_eeprom.c **** *
 947:Generated_Source\PSoC4/cy_em_eeprom.c **** * Checks if the EEPROM of the requested size can be placed in flash.
 948:Generated_Source\PSoC4/cy_em_eeprom.c **** *
 949:Generated_Source\PSoC4/cy_em_eeprom.c **** * \param config
 950:Generated_Source\PSoC4/cy_em_eeprom.c **** * The pointer to a configuration structure. See \ref cy_stc_eeprom_config_t.
 951:Generated_Source\PSoC4/cy_em_eeprom.c **** *
 952:Generated_Source\PSoC4/cy_em_eeprom.c **** * \return
 953:Generated_Source\PSoC4/cy_em_eeprom.c **** * error / status code. See \ref cy_en_em_eeprom_status_t.
 954:Generated_Source\PSoC4/cy_em_eeprom.c **** *
 955:Generated_Source\PSoC4/cy_em_eeprom.c **** *******************************************************************************/
 956:Generated_Source\PSoC4/cy_em_eeprom.c **** static cy_en_em_eeprom_status_t CheckRanges(cy_stc_eeprom_config_t* config)
 957:Generated_Source\PSoC4/cy_em_eeprom.c **** {
 319              		.loc 1 957 0
 320              		.cfi_startproc
 321              		@ args = 0, pretend = 0, frame = 0
 322              		@ frame_needed = 0, uses_anonymous_args = 0
 323              	.LVL41:
 324 0000 10B5     		push	{r4, lr}
 325              		.cfi_def_cfa_offset 8
 326              		.cfi_offset 4, -8
 327              		.cfi_offset 14, -4
 328              	.LVL42:
 958:Generated_Source\PSoC4/cy_em_eeprom.c ****     cy_en_em_eeprom_status_t ret = CY_EM_EEPROM_BAD_DATA;
 959:Generated_Source\PSoC4/cy_em_eeprom.c ****     uint32 startAddr = config->userFlashStartAddr;
 329              		.loc 1 959 0
 330 0002 C468     		ldr	r4, [r0, #12]
 331              	.LVL43:
 960:Generated_Source\PSoC4/cy_em_eeprom.c ****     uint32 endAddr = startAddr + CY_EM_EEPROM_GET_PHYSICAL_SIZE(config->eepromSize,
 332              		.loc 1 960 0
 333 0004 0268     		ldr	r2, [r0]
 334 0006 9109     		lsrs	r1, r2, #6
 335 0008 3F23     		movs	r3, #63
 336 000a 1340     		ands	r3, r2
 337 000c 00D0     		beq	.L26
 338 000e 0123     		movs	r3, #1
 339              	.L26:
ARM GAS  C:\Users\Larry\AppData\Local\Temp\ccxlVo0w.s 			page 24


 340              		.loc 1 960 0 is_stmt 0 discriminator 4
 341 0010 5B18     		adds	r3, r3, r1
 342 0012 4268     		ldr	r2, [r0, #4]
 343 0014 5343     		muls	r3, r2
 344 0016 027A     		ldrb	r2, [r0, #8]
 345 0018 0132     		adds	r2, r2, #1
 346 001a 5343     		muls	r3, r2
 347 001c DB01     		lsls	r3, r3, #7
 348 001e E318     		adds	r3, r4, r3
 349              	.LVL44:
 961:Generated_Source\PSoC4/cy_em_eeprom.c ****             config->wearLevelingFactor, config->redundantCopy);
 962:Generated_Source\PSoC4/cy_em_eeprom.c **** 
 963:Generated_Source\PSoC4/cy_em_eeprom.c ****     /* Range check if there is enough flash for EEPROM */
 964:Generated_Source\PSoC4/cy_em_eeprom.c ****     if (CY_EM_EEPROM_IS_IN_FLASH_RANGE(startAddr, endAddr))
 350              		.loc 1 964 0 is_stmt 1 discriminator 4
 351 0020 002C     		cmp	r4, #0
 352 0022 05D0     		beq	.L28
 353              		.loc 1 964 0 is_stmt 0 discriminator 1
 354 0024 8022     		movs	r2, #128
 355 0026 9202     		lsls	r2, r2, #10
 356 0028 9342     		cmp	r3, r2
 357 002a 03D9     		bls	.L29
 958:Generated_Source\PSoC4/cy_em_eeprom.c ****     uint32 startAddr = config->userFlashStartAddr;
 358              		.loc 1 958 0 is_stmt 1
 359 002c 0320     		movs	r0, #3
 360              	.LVL45:
 361 002e 02E0     		b	.L27
 362              	.LVL46:
 363              	.L28:
 364 0030 0320     		movs	r0, #3
 365              	.LVL47:
 366 0032 00E0     		b	.L27
 367              	.LVL48:
 368              	.L29:
 965:Generated_Source\PSoC4/cy_em_eeprom.c ****     {
 966:Generated_Source\PSoC4/cy_em_eeprom.c ****         ret = CY_EM_EEPROM_SUCCESS;
 369              		.loc 1 966 0
 370 0034 0020     		movs	r0, #0
 371              	.LVL49:
 372              	.L27:
 967:Generated_Source\PSoC4/cy_em_eeprom.c ****     }
 968:Generated_Source\PSoC4/cy_em_eeprom.c ****     return (ret);
 969:Generated_Source\PSoC4/cy_em_eeprom.c **** }
 373              		.loc 1 969 0
 374              		@ sp needed
 375              	.LVL50:
 376 0036 10BD     		pop	{r4, pc}
 377              		.cfi_endproc
 378              	.LFE10:
 379              		.size	CheckRanges, .-CheckRanges
 380              		.section	.text.GetAddresses,"ax",%progbits
 381              		.align	2
 382              		.code	16
 383              		.thumb_func
 384              		.type	GetAddresses, %function
 385              	GetAddresses:
 386              	.LFB14:
ARM GAS  C:\Users\Larry\AppData\Local\Temp\ccxlVo0w.s 			page 25


 970:Generated_Source\PSoC4/cy_em_eeprom.c **** 
 971:Generated_Source\PSoC4/cy_em_eeprom.c **** 
 972:Generated_Source\PSoC4/cy_em_eeprom.c **** /*******************************************************************************
 973:Generated_Source\PSoC4/cy_em_eeprom.c **** * Function Name: WriteRow
 974:Generated_Source\PSoC4/cy_em_eeprom.c **** ****************************************************************************//**
 975:Generated_Source\PSoC4/cy_em_eeprom.c **** *
 976:Generated_Source\PSoC4/cy_em_eeprom.c **** * Writes one flash row starting from the specified row address.
 977:Generated_Source\PSoC4/cy_em_eeprom.c **** *
 978:Generated_Source\PSoC4/cy_em_eeprom.c **** * \param rowAdd
 979:Generated_Source\PSoC4/cy_em_eeprom.c **** * The address of the flash row.
 980:Generated_Source\PSoC4/cy_em_eeprom.c **** *
 981:Generated_Source\PSoC4/cy_em_eeprom.c **** * \param rowData
 982:Generated_Source\PSoC4/cy_em_eeprom.c **** * The pointer to the data to be written to the row.
 983:Generated_Source\PSoC4/cy_em_eeprom.c **** *
 984:Generated_Source\PSoC4/cy_em_eeprom.c **** * \param context
 985:Generated_Source\PSoC4/cy_em_eeprom.c **** * The pointer to the EEPROM context structure \ref cy_stc_eeprom_context_t.
 986:Generated_Source\PSoC4/cy_em_eeprom.c **** *
 987:Generated_Source\PSoC4/cy_em_eeprom.c **** * \return
 988:Generated_Source\PSoC4/cy_em_eeprom.c **** * error / status code. See \ref cy_en_em_eeprom_status_t.
 989:Generated_Source\PSoC4/cy_em_eeprom.c **** *
 990:Generated_Source\PSoC4/cy_em_eeprom.c **** *******************************************************************************/
 991:Generated_Source\PSoC4/cy_em_eeprom.c **** static cy_en_em_eeprom_status_t WriteRow(uint32 rowAddr,
 992:Generated_Source\PSoC4/cy_em_eeprom.c ****                                         uint32 *rowData,
 993:Generated_Source\PSoC4/cy_em_eeprom.c ****                                         cy_stc_eeprom_context_t * context)
 994:Generated_Source\PSoC4/cy_em_eeprom.c **** {
 995:Generated_Source\PSoC4/cy_em_eeprom.c ****     cy_en_em_eeprom_status_t ret = CY_EM_EEPROM_WRITE_FAIL;
 996:Generated_Source\PSoC4/cy_em_eeprom.c **** #if (!CY_PSOC6)
 997:Generated_Source\PSoC4/cy_em_eeprom.c ****     cystatus rc;
 998:Generated_Source\PSoC4/cy_em_eeprom.c ****     uint32 rowId;
 999:Generated_Source\PSoC4/cy_em_eeprom.c ****     #if ((CY_PSOC3) || (CY_PSOC5))
1000:Generated_Source\PSoC4/cy_em_eeprom.c ****         uint32 arrayId;
1001:Generated_Source\PSoC4/cy_em_eeprom.c ****     #endif /* (CY_PSOC3) */
1002:Generated_Source\PSoC4/cy_em_eeprom.c ****     
1003:Generated_Source\PSoC4/cy_em_eeprom.c ****     #if (CY_PSOC3)
1004:Generated_Source\PSoC4/cy_em_eeprom.c ****         rowAddr &= CY_EM_EEPROM_CODE_ADDR_MASK;
1005:Generated_Source\PSoC4/cy_em_eeprom.c ****         context = context;      /* To avoid compiler warning generation */
1006:Generated_Source\PSoC4/cy_em_eeprom.c ****     #else
1007:Generated_Source\PSoC4/cy_em_eeprom.c ****         (void)context;          /* To avoid compiler warning generation */
1008:Generated_Source\PSoC4/cy_em_eeprom.c ****     #endif /* ((CY_PSOC3) */
1009:Generated_Source\PSoC4/cy_em_eeprom.c ****     
1010:Generated_Source\PSoC4/cy_em_eeprom.c ****     /* For non-PSoC 6 devices, the Array ID and Row ID needed to write the row */
1011:Generated_Source\PSoC4/cy_em_eeprom.c ****     rowId = (rowAddr / CY_EM_EEPROM_FLASH_SIZEOF_ROW) % CY_EM_EEPROM_ROWS_IN_ARRAY;
1012:Generated_Source\PSoC4/cy_em_eeprom.c **** 
1013:Generated_Source\PSoC4/cy_em_eeprom.c ****     /* Write the flash row */
1014:Generated_Source\PSoC4/cy_em_eeprom.c ****     #if (CY_PSOC4)
1015:Generated_Source\PSoC4/cy_em_eeprom.c ****         rc = CySysFlashWriteRow(rowId, (uint8 *)rowData);
1016:Generated_Source\PSoC4/cy_em_eeprom.c ****     #else
1017:Generated_Source\PSoC4/cy_em_eeprom.c **** 
1018:Generated_Source\PSoC4/cy_em_eeprom.c ****         #ifndef CY_EM_EEPROM_SKIP_TEMP_MEASUREMENT
1019:Generated_Source\PSoC4/cy_em_eeprom.c ****             (void)CySetTemp();
1020:Generated_Source\PSoC4/cy_em_eeprom.c ****         #endif /* (CY_EM_EEPROM_SKIP_TEMP_MEASUREMENT) */
1021:Generated_Source\PSoC4/cy_em_eeprom.c **** 
1022:Generated_Source\PSoC4/cy_em_eeprom.c ****         arrayId = rowAddr / CY_FLASH_SIZEOF_ARRAY;
1023:Generated_Source\PSoC4/cy_em_eeprom.c ****         rc = CyWriteRowData((uint8)arrayId, (uint16)rowId, (uint8 *)rowData);
1024:Generated_Source\PSoC4/cy_em_eeprom.c ****         
1025:Generated_Source\PSoC4/cy_em_eeprom.c ****         #if (CY_PSOC5)
1026:Generated_Source\PSoC4/cy_em_eeprom.c ****             CyFlushCache();
ARM GAS  C:\Users\Larry\AppData\Local\Temp\ccxlVo0w.s 			page 26


1027:Generated_Source\PSoC4/cy_em_eeprom.c ****         #endif /* (CY_PSOC5) */
1028:Generated_Source\PSoC4/cy_em_eeprom.c ****     #endif /* (CY_PSOC4) */
1029:Generated_Source\PSoC4/cy_em_eeprom.c **** 
1030:Generated_Source\PSoC4/cy_em_eeprom.c ****     if(CYRET_SUCCESS == rc)
1031:Generated_Source\PSoC4/cy_em_eeprom.c ****     {
1032:Generated_Source\PSoC4/cy_em_eeprom.c ****         ret = CY_EM_EEPROM_SUCCESS;
1033:Generated_Source\PSoC4/cy_em_eeprom.c ****     }
1034:Generated_Source\PSoC4/cy_em_eeprom.c **** #else /* PSoC 6 */
1035:Generated_Source\PSoC4/cy_em_eeprom.c ****     if(0u != context->blockingWrite)
1036:Generated_Source\PSoC4/cy_em_eeprom.c ****     {
1037:Generated_Source\PSoC4/cy_em_eeprom.c ****         /* Do blocking write */
1038:Generated_Source\PSoC4/cy_em_eeprom.c ****         if(CY_FLASH_DRV_SUCCESS == Cy_Flash_WriteRow(rowAddr, (const uint32 *)rowData))
1039:Generated_Source\PSoC4/cy_em_eeprom.c ****         {
1040:Generated_Source\PSoC4/cy_em_eeprom.c ****             ret = CY_EM_EEPROM_SUCCESS;
1041:Generated_Source\PSoC4/cy_em_eeprom.c ****         }
1042:Generated_Source\PSoC4/cy_em_eeprom.c ****     }
1043:Generated_Source\PSoC4/cy_em_eeprom.c ****     else
1044:Generated_Source\PSoC4/cy_em_eeprom.c ****     {
1045:Generated_Source\PSoC4/cy_em_eeprom.c ****         /* Initiate write */
1046:Generated_Source\PSoC4/cy_em_eeprom.c ****         if(CY_FLASH_DRV_OPERATION_STARTED == Cy_Flash_StartWrite(rowAddr, (const uint32 *)rowData))
1047:Generated_Source\PSoC4/cy_em_eeprom.c ****         {
1048:Generated_Source\PSoC4/cy_em_eeprom.c ****             uint32 countMs = CY_EM_EEPROM_MAX_WRITE_DURATION_MS;
1049:Generated_Source\PSoC4/cy_em_eeprom.c ****             cy_en_flashdrv_status_t rc;
1050:Generated_Source\PSoC4/cy_em_eeprom.c **** 
1051:Generated_Source\PSoC4/cy_em_eeprom.c ****             do
1052:Generated_Source\PSoC4/cy_em_eeprom.c ****             {
1053:Generated_Source\PSoC4/cy_em_eeprom.c ****                 CyDelay(1u);                         /* Wait 1ms */
1054:Generated_Source\PSoC4/cy_em_eeprom.c ****                 rc = Cy_Flash_IsWriteComplete();     /* Check if write completed */
1055:Generated_Source\PSoC4/cy_em_eeprom.c ****                 countMs--;
1056:Generated_Source\PSoC4/cy_em_eeprom.c ****             }
1057:Generated_Source\PSoC4/cy_em_eeprom.c ****             while ((rc == CY_FLASH_DRV_OPCODE_BUSY) && (0u != countMs));
1058:Generated_Source\PSoC4/cy_em_eeprom.c **** 
1059:Generated_Source\PSoC4/cy_em_eeprom.c ****             if(CY_FLASH_DRV_SUCCESS == rc)
1060:Generated_Source\PSoC4/cy_em_eeprom.c ****             {
1061:Generated_Source\PSoC4/cy_em_eeprom.c ****                 ret = CY_EM_EEPROM_SUCCESS;
1062:Generated_Source\PSoC4/cy_em_eeprom.c ****             }
1063:Generated_Source\PSoC4/cy_em_eeprom.c ****         }
1064:Generated_Source\PSoC4/cy_em_eeprom.c ****     }
1065:Generated_Source\PSoC4/cy_em_eeprom.c **** #endif /* (CY_PSOC6) */
1066:Generated_Source\PSoC4/cy_em_eeprom.c **** 
1067:Generated_Source\PSoC4/cy_em_eeprom.c ****     return (ret);
1068:Generated_Source\PSoC4/cy_em_eeprom.c **** }
1069:Generated_Source\PSoC4/cy_em_eeprom.c **** 
1070:Generated_Source\PSoC4/cy_em_eeprom.c **** 
1071:Generated_Source\PSoC4/cy_em_eeprom.c **** /*******************************************************************************
1072:Generated_Source\PSoC4/cy_em_eeprom.c **** * Function Name: EraseRow
1073:Generated_Source\PSoC4/cy_em_eeprom.c **** ****************************************************************************//**
1074:Generated_Source\PSoC4/cy_em_eeprom.c **** *
1075:Generated_Source\PSoC4/cy_em_eeprom.c **** * Erases one flash row starting from the specified row address. If the redundant
1076:Generated_Source\PSoC4/cy_em_eeprom.c **** * copy option is enabled the corresponding row in the redundant copy will also
1077:Generated_Source\PSoC4/cy_em_eeprom.c **** * be erased.
1078:Generated_Source\PSoC4/cy_em_eeprom.c **** *
1079:Generated_Source\PSoC4/cy_em_eeprom.c **** * \param rowAdd
1080:Generated_Source\PSoC4/cy_em_eeprom.c **** * The address of the flash row.
1081:Generated_Source\PSoC4/cy_em_eeprom.c **** *
1082:Generated_Source\PSoC4/cy_em_eeprom.c **** * \param ramBuffAddr
1083:Generated_Source\PSoC4/cy_em_eeprom.c **** * The address of the RAM buffer that contains zeroed data (used only for
ARM GAS  C:\Users\Larry\AppData\Local\Temp\ccxlVo0w.s 			page 27


1084:Generated_Source\PSoC4/cy_em_eeprom.c **** * non-PSoC 6 devices).
1085:Generated_Source\PSoC4/cy_em_eeprom.c **** *
1086:Generated_Source\PSoC4/cy_em_eeprom.c **** * \param context
1087:Generated_Source\PSoC4/cy_em_eeprom.c **** * The pointer to the EEPROM context structure \ref cy_stc_eeprom_context_t.
1088:Generated_Source\PSoC4/cy_em_eeprom.c **** *
1089:Generated_Source\PSoC4/cy_em_eeprom.c **** * \return
1090:Generated_Source\PSoC4/cy_em_eeprom.c **** * error / status code. See \ref cy_en_em_eeprom_status_t.
1091:Generated_Source\PSoC4/cy_em_eeprom.c **** *
1092:Generated_Source\PSoC4/cy_em_eeprom.c **** *******************************************************************************/
1093:Generated_Source\PSoC4/cy_em_eeprom.c **** static cy_en_em_eeprom_status_t EraseRow(uint32 rowAddr,
1094:Generated_Source\PSoC4/cy_em_eeprom.c ****                                         uint32 ramBuffAddr,
1095:Generated_Source\PSoC4/cy_em_eeprom.c ****                                         cy_stc_eeprom_context_t * context)
1096:Generated_Source\PSoC4/cy_em_eeprom.c **** {
1097:Generated_Source\PSoC4/cy_em_eeprom.c ****     uint32 emEepromRowAddr = rowAddr;
1098:Generated_Source\PSoC4/cy_em_eeprom.c ****     cy_en_em_eeprom_status_t ret = CY_EM_EEPROM_WRITE_FAIL;
1099:Generated_Source\PSoC4/cy_em_eeprom.c **** #if (CY_PSOC6)
1100:Generated_Source\PSoC4/cy_em_eeprom.c ****     uint32 i = 1u;
1101:Generated_Source\PSoC4/cy_em_eeprom.c **** 
1102:Generated_Source\PSoC4/cy_em_eeprom.c ****     (void)ramBuffAddr; /* To avoid compiler warning */
1103:Generated_Source\PSoC4/cy_em_eeprom.c **** 
1104:Generated_Source\PSoC4/cy_em_eeprom.c ****     if(0u != context->redundantCopy)
1105:Generated_Source\PSoC4/cy_em_eeprom.c ****     {
1106:Generated_Source\PSoC4/cy_em_eeprom.c ****         i++;
1107:Generated_Source\PSoC4/cy_em_eeprom.c ****     }
1108:Generated_Source\PSoC4/cy_em_eeprom.c **** 
1109:Generated_Source\PSoC4/cy_em_eeprom.c ****     do
1110:Generated_Source\PSoC4/cy_em_eeprom.c ****     {
1111:Generated_Source\PSoC4/cy_em_eeprom.c ****         if(0u != context->blockingWrite)
1112:Generated_Source\PSoC4/cy_em_eeprom.c ****         {
1113:Generated_Source\PSoC4/cy_em_eeprom.c ****             /* Erase the flash row */
1114:Generated_Source\PSoC4/cy_em_eeprom.c ****             if(CY_FLASH_DRV_SUCCESS == Cy_Flash_EraseRow(emEepromRowAddr))
1115:Generated_Source\PSoC4/cy_em_eeprom.c ****             {
1116:Generated_Source\PSoC4/cy_em_eeprom.c ****                 ret = CY_EM_EEPROM_SUCCESS;
1117:Generated_Source\PSoC4/cy_em_eeprom.c ****             }
1118:Generated_Source\PSoC4/cy_em_eeprom.c ****         }
1119:Generated_Source\PSoC4/cy_em_eeprom.c ****         else
1120:Generated_Source\PSoC4/cy_em_eeprom.c ****         {
1121:Generated_Source\PSoC4/cy_em_eeprom.c ****             /* Initiate erase */
1122:Generated_Source\PSoC4/cy_em_eeprom.c ****             if(CY_FLASH_DRV_OPERATION_STARTED == Cy_Flash_StartErase(emEepromRowAddr))
1123:Generated_Source\PSoC4/cy_em_eeprom.c ****             {
1124:Generated_Source\PSoC4/cy_em_eeprom.c ****                 uint32 countMs = CY_EM_EEPROM_MAX_WRITE_DURATION_MS;
1125:Generated_Source\PSoC4/cy_em_eeprom.c ****                 cy_en_flashdrv_status_t rc;
1126:Generated_Source\PSoC4/cy_em_eeprom.c **** 
1127:Generated_Source\PSoC4/cy_em_eeprom.c ****                 do
1128:Generated_Source\PSoC4/cy_em_eeprom.c ****                 {
1129:Generated_Source\PSoC4/cy_em_eeprom.c ****                     CyDelay(1u);                         /* Wait 1ms */
1130:Generated_Source\PSoC4/cy_em_eeprom.c ****                     rc = Cy_Flash_IsWriteComplete();     /* Check if erase completed */
1131:Generated_Source\PSoC4/cy_em_eeprom.c ****                     countMs--;
1132:Generated_Source\PSoC4/cy_em_eeprom.c ****                 }
1133:Generated_Source\PSoC4/cy_em_eeprom.c ****                 while ((rc == CY_FLASH_DRV_OPCODE_BUSY) && (0u != countMs));
1134:Generated_Source\PSoC4/cy_em_eeprom.c **** 
1135:Generated_Source\PSoC4/cy_em_eeprom.c ****                 if(CY_FLASH_DRV_SUCCESS == rc)
1136:Generated_Source\PSoC4/cy_em_eeprom.c ****                 {
1137:Generated_Source\PSoC4/cy_em_eeprom.c ****                     ret = CY_EM_EEPROM_SUCCESS;
1138:Generated_Source\PSoC4/cy_em_eeprom.c ****                 }
1139:Generated_Source\PSoC4/cy_em_eeprom.c ****             }
1140:Generated_Source\PSoC4/cy_em_eeprom.c ****         }
ARM GAS  C:\Users\Larry\AppData\Local\Temp\ccxlVo0w.s 			page 28


1141:Generated_Source\PSoC4/cy_em_eeprom.c **** 
1142:Generated_Source\PSoC4/cy_em_eeprom.c ****         if(CY_EM_EEPROM_SUCCESS == ret)
1143:Generated_Source\PSoC4/cy_em_eeprom.c ****         {
1144:Generated_Source\PSoC4/cy_em_eeprom.c ****             /* Update the address to point to the redundant copy row */
1145:Generated_Source\PSoC4/cy_em_eeprom.c ****             emEepromRowAddr = (emEepromRowAddr - context->userFlashStartAddr) + context->wlEndAddr;
1146:Generated_Source\PSoC4/cy_em_eeprom.c ****         }
1147:Generated_Source\PSoC4/cy_em_eeprom.c ****         else
1148:Generated_Source\PSoC4/cy_em_eeprom.c ****         {
1149:Generated_Source\PSoC4/cy_em_eeprom.c ****             break;
1150:Generated_Source\PSoC4/cy_em_eeprom.c ****         }
1151:Generated_Source\PSoC4/cy_em_eeprom.c ****         i--;
1152:Generated_Source\PSoC4/cy_em_eeprom.c ****     } while (0u != i);
1153:Generated_Source\PSoC4/cy_em_eeprom.c **** #else
1154:Generated_Source\PSoC4/cy_em_eeprom.c ****     /* Write the data to the specified flash row */
1155:Generated_Source\PSoC4/cy_em_eeprom.c ****     ret = WriteRow(emEepromRowAddr, (uint32 *)ramBuffAddr, context);
1156:Generated_Source\PSoC4/cy_em_eeprom.c **** 
1157:Generated_Source\PSoC4/cy_em_eeprom.c ****     if((CY_EM_EEPROM_SUCCESS == ret) && (0u != context->redundantCopy))
1158:Generated_Source\PSoC4/cy_em_eeprom.c ****     {
1159:Generated_Source\PSoC4/cy_em_eeprom.c ****         /* Update the address to point to the redundant copy row */
1160:Generated_Source\PSoC4/cy_em_eeprom.c ****         emEepromRowAddr = (emEepromRowAddr - context->userFlashStartAddr) + context->wlEndAddr;
1161:Generated_Source\PSoC4/cy_em_eeprom.c ****         ret = WriteRow(emEepromRowAddr, (uint32 *)ramBuffAddr, context);
1162:Generated_Source\PSoC4/cy_em_eeprom.c ****     }
1163:Generated_Source\PSoC4/cy_em_eeprom.c **** 
1164:Generated_Source\PSoC4/cy_em_eeprom.c ****     if(CY_EM_EEPROM_SUCCESS == ret)
1165:Generated_Source\PSoC4/cy_em_eeprom.c ****     {
1166:Generated_Source\PSoC4/cy_em_eeprom.c ****         context->lastWrRowAddr = rowAddr;
1167:Generated_Source\PSoC4/cy_em_eeprom.c ****     }
1168:Generated_Source\PSoC4/cy_em_eeprom.c **** #endif /* (CY_PSOC6) */
1169:Generated_Source\PSoC4/cy_em_eeprom.c **** 
1170:Generated_Source\PSoC4/cy_em_eeprom.c ****     return(ret);
1171:Generated_Source\PSoC4/cy_em_eeprom.c **** }
1172:Generated_Source\PSoC4/cy_em_eeprom.c **** 
1173:Generated_Source\PSoC4/cy_em_eeprom.c **** 
1174:Generated_Source\PSoC4/cy_em_eeprom.c **** /*******************************************************************************
1175:Generated_Source\PSoC4/cy_em_eeprom.c **** * Function Name: CheckCrcAndCopy
1176:Generated_Source\PSoC4/cy_em_eeprom.c **** ****************************************************************************//**
1177:Generated_Source\PSoC4/cy_em_eeprom.c **** *
1178:Generated_Source\PSoC4/cy_em_eeprom.c **** * Checks the checksum of the specific row in EEPROM. If the CRC matches - copies
1179:Generated_Source\PSoC4/cy_em_eeprom.c **** * the data to the "datAddr" from EEPROM. f the CRC does not match checks the
1180:Generated_Source\PSoC4/cy_em_eeprom.c **** * CRC of the corresponding row in the EEPROM's redundant copy. If the CRC
1181:Generated_Source\PSoC4/cy_em_eeprom.c **** * matches - copies the data to the "datAddr" from EEPROM redundant copy. If the
1182:Generated_Source\PSoC4/cy_em_eeprom.c **** * CRC of the redundant copy does not match - returns bad checksum.
1183:Generated_Source\PSoC4/cy_em_eeprom.c **** *
1184:Generated_Source\PSoC4/cy_em_eeprom.c **** * \param startAddr
1185:Generated_Source\PSoC4/cy_em_eeprom.c **** * The address that points to the start of the specified row.
1186:Generated_Source\PSoC4/cy_em_eeprom.c **** *
1187:Generated_Source\PSoC4/cy_em_eeprom.c **** * \param datAddr
1188:Generated_Source\PSoC4/cy_em_eeprom.c **** * The start address of where the row data will be copied if the CRC check
1189:Generated_Source\PSoC4/cy_em_eeprom.c **** * will succeed.
1190:Generated_Source\PSoC4/cy_em_eeprom.c **** *
1191:Generated_Source\PSoC4/cy_em_eeprom.c **** * \param rowOffset
1192:Generated_Source\PSoC4/cy_em_eeprom.c **** * The offset in the row from which the data should be copied.
1193:Generated_Source\PSoC4/cy_em_eeprom.c **** *
1194:Generated_Source\PSoC4/cy_em_eeprom.c **** * \param numBytes
1195:Generated_Source\PSoC4/cy_em_eeprom.c **** * The number of bytes to be copied.
1196:Generated_Source\PSoC4/cy_em_eeprom.c **** *
1197:Generated_Source\PSoC4/cy_em_eeprom.c **** * \param context
ARM GAS  C:\Users\Larry\AppData\Local\Temp\ccxlVo0w.s 			page 29


1198:Generated_Source\PSoC4/cy_em_eeprom.c **** * The pointer to the EEPROM context structure \ref cy_stc_eeprom_context_t.
1199:Generated_Source\PSoC4/cy_em_eeprom.c **** *
1200:Generated_Source\PSoC4/cy_em_eeprom.c **** * \return
1201:Generated_Source\PSoC4/cy_em_eeprom.c **** * error / status code. See \ref cy_en_em_eeprom_status_t.
1202:Generated_Source\PSoC4/cy_em_eeprom.c **** *
1203:Generated_Source\PSoC4/cy_em_eeprom.c **** * \note
1204:Generated_Source\PSoC4/cy_em_eeprom.c **** * This function uses a buffer of the flash row size to perform read
1205:Generated_Source\PSoC4/cy_em_eeprom.c **** * operation. For the size of the row refer to the specific PSoC device
1206:Generated_Source\PSoC4/cy_em_eeprom.c **** * datasheet.
1207:Generated_Source\PSoC4/cy_em_eeprom.c **** *
1208:Generated_Source\PSoC4/cy_em_eeprom.c **** *******************************************************************************/
1209:Generated_Source\PSoC4/cy_em_eeprom.c **** static cy_en_em_eeprom_status_t CheckCrcAndCopy(uint32 startAddr,
1210:Generated_Source\PSoC4/cy_em_eeprom.c ****                                                 uint32 dstAddr,
1211:Generated_Source\PSoC4/cy_em_eeprom.c ****                                                 uint32 rowOffset,
1212:Generated_Source\PSoC4/cy_em_eeprom.c ****                                                 uint32 numBytes,
1213:Generated_Source\PSoC4/cy_em_eeprom.c ****                                                 cy_stc_eeprom_context_t * context)
1214:Generated_Source\PSoC4/cy_em_eeprom.c **** {
1215:Generated_Source\PSoC4/cy_em_eeprom.c ****     cy_en_em_eeprom_status_t ret;
1216:Generated_Source\PSoC4/cy_em_eeprom.c ****     uint32 writeRamBuffer[CY_EM_EEPROM_FLASH_SIZEOF_ROW / CY_EM_EEPROM_U32_DIV];
1217:Generated_Source\PSoC4/cy_em_eeprom.c **** 
1218:Generated_Source\PSoC4/cy_em_eeprom.c ****     /* Calculate the row address in the EEPROM's redundant copy */
1219:Generated_Source\PSoC4/cy_em_eeprom.c ****     uint32 rcStartRowAddr = (startAddr - context->userFlashStartAddr) + context->wlEndAddr;
1220:Generated_Source\PSoC4/cy_em_eeprom.c **** 
1221:Generated_Source\PSoC4/cy_em_eeprom.c ****     /* Check the row data CRC in the EEPROM */
1222:Generated_Source\PSoC4/cy_em_eeprom.c ****     if((*(uint32 *)(startAddr + CY_EM_EEPROM_HEADER_CHECKSUM_OFFSET)) ==
1223:Generated_Source\PSoC4/cy_em_eeprom.c ****         ((uint32) CalcChecksum((uint8 *)(startAddr + CY_EM_EEPROM_EEPROM_DATA_OFFSET),
1224:Generated_Source\PSoC4/cy_em_eeprom.c ****             CY_EM_EEPROM_EEPROM_DATA_LEN)))
1225:Generated_Source\PSoC4/cy_em_eeprom.c ****     {
1226:Generated_Source\PSoC4/cy_em_eeprom.c ****         (void)memcpy((void *)(dstAddr), (void *)(startAddr + rowOffset), numBytes);
1227:Generated_Source\PSoC4/cy_em_eeprom.c **** 
1228:Generated_Source\PSoC4/cy_em_eeprom.c ****         ret = CY_EM_EEPROM_SUCCESS;
1229:Generated_Source\PSoC4/cy_em_eeprom.c ****     }
1230:Generated_Source\PSoC4/cy_em_eeprom.c ****     /* Check the row data CRC in the EEPROM's redundant copy */
1231:Generated_Source\PSoC4/cy_em_eeprom.c ****     else if((*(uint32 *)(rcStartRowAddr + CY_EM_EEPROM_HEADER_CHECKSUM_OFFSET)) ==
1232:Generated_Source\PSoC4/cy_em_eeprom.c ****             ((uint32) CalcChecksum((uint8 *)(rcStartRowAddr + CY_EM_EEPROM_EEPROM_DATA_OFFSET),
1233:Generated_Source\PSoC4/cy_em_eeprom.c ****                 CY_EM_EEPROM_EEPROM_DATA_LEN)))
1234:Generated_Source\PSoC4/cy_em_eeprom.c ****     {
1235:Generated_Source\PSoC4/cy_em_eeprom.c ****         /* Copy the redundant copy row to RAM buffer to avoid read while write (RWW)
1236:Generated_Source\PSoC4/cy_em_eeprom.c ****         * flash exception. The RWW occurs while trying to write and read the data from
1237:Generated_Source\PSoC4/cy_em_eeprom.c ****         * same flash macro.
1238:Generated_Source\PSoC4/cy_em_eeprom.c ****         */
1239:Generated_Source\PSoC4/cy_em_eeprom.c ****         (void)memcpy((void *)(writeRamBuffer), (void *)(rcStartRowAddr), CY_EM_EEPROM_FLASH_SIZEOF_
1240:Generated_Source\PSoC4/cy_em_eeprom.c **** 
1241:Generated_Source\PSoC4/cy_em_eeprom.c ****         /* Restore bad row data from the RAM buffer */
1242:Generated_Source\PSoC4/cy_em_eeprom.c ****         ret = WriteRow(startAddr, (uint32 *)writeRamBuffer, context);
1243:Generated_Source\PSoC4/cy_em_eeprom.c **** 
1244:Generated_Source\PSoC4/cy_em_eeprom.c ****         if(CY_EM_EEPROM_SUCCESS == ret)
1245:Generated_Source\PSoC4/cy_em_eeprom.c ****         {
1246:Generated_Source\PSoC4/cy_em_eeprom.c ****             (void)memcpy((void *)(dstAddr), (void *)(writeRamBuffer + rowOffset), numBytes);
1247:Generated_Source\PSoC4/cy_em_eeprom.c ****         }
1248:Generated_Source\PSoC4/cy_em_eeprom.c ****     }
1249:Generated_Source\PSoC4/cy_em_eeprom.c ****     else
1250:Generated_Source\PSoC4/cy_em_eeprom.c ****     {
1251:Generated_Source\PSoC4/cy_em_eeprom.c ****         ret = CY_EM_EEPROM_BAD_CHECKSUM;
1252:Generated_Source\PSoC4/cy_em_eeprom.c ****     }
1253:Generated_Source\PSoC4/cy_em_eeprom.c **** 
1254:Generated_Source\PSoC4/cy_em_eeprom.c ****     return(ret);
ARM GAS  C:\Users\Larry\AppData\Local\Temp\ccxlVo0w.s 			page 30


1255:Generated_Source\PSoC4/cy_em_eeprom.c **** }
1256:Generated_Source\PSoC4/cy_em_eeprom.c **** 
1257:Generated_Source\PSoC4/cy_em_eeprom.c **** 
1258:Generated_Source\PSoC4/cy_em_eeprom.c **** /*******************************************************************************
1259:Generated_Source\PSoC4/cy_em_eeprom.c **** * Function Name: GetAddresses
1260:Generated_Source\PSoC4/cy_em_eeprom.c **** ****************************************************************************//**
1261:Generated_Source\PSoC4/cy_em_eeprom.c **** *
1262:Generated_Source\PSoC4/cy_em_eeprom.c **** * Calculates the start and end address of the row's EEPROM data to be updated.
1263:Generated_Source\PSoC4/cy_em_eeprom.c **** * The start and end are not absolute addresses but a relative addresses in a
1264:Generated_Source\PSoC4/cy_em_eeprom.c **** * flash row.
1265:Generated_Source\PSoC4/cy_em_eeprom.c **** *
1266:Generated_Source\PSoC4/cy_em_eeprom.c **** * \param startAddr
1267:Generated_Source\PSoC4/cy_em_eeprom.c **** * The pointer the address where the EEPROM data start address will be returned.
1268:Generated_Source\PSoC4/cy_em_eeprom.c **** *
1269:Generated_Source\PSoC4/cy_em_eeprom.c **** * \param endAddr
1270:Generated_Source\PSoC4/cy_em_eeprom.c **** * The pointer the address where the EEPROM data end address will be returned.
1271:Generated_Source\PSoC4/cy_em_eeprom.c **** *
1272:Generated_Source\PSoC4/cy_em_eeprom.c **** * \param offset
1273:Generated_Source\PSoC4/cy_em_eeprom.c **** * The pointer the address where the calculated offset of the EEPROM header data
1274:Generated_Source\PSoC4/cy_em_eeprom.c **** * will be returned.
1275:Generated_Source\PSoC4/cy_em_eeprom.c **** *
1276:Generated_Source\PSoC4/cy_em_eeprom.c **** * \param rowNum
1277:Generated_Source\PSoC4/cy_em_eeprom.c **** * The row number that is about to be written.
1278:Generated_Source\PSoC4/cy_em_eeprom.c **** *
1279:Generated_Source\PSoC4/cy_em_eeprom.c **** * \param addr
1280:Generated_Source\PSoC4/cy_em_eeprom.c **** * The address of the EEPROM header data in the currently analyzed row that may
1281:Generated_Source\PSoC4/cy_em_eeprom.c **** * concern to the row about to be written.
1282:Generated_Source\PSoC4/cy_em_eeprom.c **** *
1283:Generated_Source\PSoC4/cy_em_eeprom.c **** * \param len
1284:Generated_Source\PSoC4/cy_em_eeprom.c **** * The length of the EEPROM header data in the currently analyzed row that may
1285:Generated_Source\PSoC4/cy_em_eeprom.c **** * concern to the row about to be written.
1286:Generated_Source\PSoC4/cy_em_eeprom.c **** *
1287:Generated_Source\PSoC4/cy_em_eeprom.c **** * \return
1288:Generated_Source\PSoC4/cy_em_eeprom.c **** * Zero indicates that the currently analyzed row has the data to be written to
1289:Generated_Source\PSoC4/cy_em_eeprom.c **** * the active EEPROM row data locations. Non zero value indicates that there is
1290:Generated_Source\PSoC4/cy_em_eeprom.c **** * no data to be written
1291:Generated_Source\PSoC4/cy_em_eeprom.c **** *
1292:Generated_Source\PSoC4/cy_em_eeprom.c **** *******************************************************************************/
1293:Generated_Source\PSoC4/cy_em_eeprom.c **** static uint32 GetAddresses(uint32 *startAddr, 
1294:Generated_Source\PSoC4/cy_em_eeprom.c ****                         uint32 *endAddr, 
1295:Generated_Source\PSoC4/cy_em_eeprom.c ****                         uint32 *offset,
1296:Generated_Source\PSoC4/cy_em_eeprom.c ****                         uint32 rowNum,
1297:Generated_Source\PSoC4/cy_em_eeprom.c ****                         uint32 addr,
1298:Generated_Source\PSoC4/cy_em_eeprom.c ****                         uint32 len)
1299:Generated_Source\PSoC4/cy_em_eeprom.c **** {
 387              		.loc 1 1299 0
 388              		.cfi_startproc
 389              		@ args = 8, pretend = 0, frame = 0
 390              		@ frame_needed = 0, uses_anonymous_args = 0
 391              	.LVL51:
 392 0000 F0B5     		push	{r4, r5, r6, r7, lr}
 393              		.cfi_def_cfa_offset 20
 394              		.cfi_offset 4, -20
 395              		.cfi_offset 5, -16
 396              		.cfi_offset 6, -12
 397              		.cfi_offset 7, -8
 398              		.cfi_offset 14, -4
ARM GAS  C:\Users\Larry\AppData\Local\Temp\ccxlVo0w.s 			page 31


 399 0002 059C     		ldr	r4, [sp, #20]
 400              	.LVL52:
1300:Generated_Source\PSoC4/cy_em_eeprom.c ****     uint32 skip = 0u;
1301:Generated_Source\PSoC4/cy_em_eeprom.c **** 
1302:Generated_Source\PSoC4/cy_em_eeprom.c ****     *offset =0u;
 401              		.loc 1 1302 0
 402 0004 0025     		movs	r5, #0
 403 0006 1560     		str	r5, [r2]
1303:Generated_Source\PSoC4/cy_em_eeprom.c **** 
1304:Generated_Source\PSoC4/cy_em_eeprom.c ****     if(0u != CY_EM_EEPROM_IS_ADDR_IN_ROW_RANGE(addr, rowNum))
 404              		.loc 1 1304 0
 405 0008 9D01     		lsls	r5, r3, #6
 406 000a A542     		cmp	r5, r4
 407 000c 06D8     		bhi	.L37
 408              		.loc 1 1304 0 is_stmt 0 discriminator 1
 409 000e 5E1C     		adds	r6, r3, #1
 410 0010 B601     		lsls	r6, r6, #6
 411 0012 013E     		subs	r6, r6, #1
 412 0014 B442     		cmp	r4, r6
 413 0016 03D9     		bls	.L38
 414              		.loc 1 1304 0
 415 0018 0026     		movs	r6, #0
 416 001a 02E0     		b	.L31
 417              	.L37:
 418 001c 0026     		movs	r6, #0
 419 001e 00E0     		b	.L31
 420              	.L38:
 421 0020 0126     		movs	r6, #1
 422              	.L31:
 423              		.loc 1 1304 0 discriminator 6
 424 0022 002E     		cmp	r6, #0
 425 0024 1ED0     		beq	.L32
1305:Generated_Source\PSoC4/cy_em_eeprom.c ****     {
1306:Generated_Source\PSoC4/cy_em_eeprom.c ****         *startAddr = CY_EM_EEPROM_EEPROM_DATA_LEN + (addr % CY_EM_EEPROM_EEPROM_DATA_LEN);
 426              		.loc 1 1306 0 is_stmt 1
 427 0026 3F22     		movs	r2, #63
 428              	.LVL53:
 429 0028 2240     		ands	r2, r4
 430 002a 4032     		adds	r2, r2, #64
 431 002c 0260     		str	r2, [r0]
1307:Generated_Source\PSoC4/cy_em_eeprom.c **** 
1308:Generated_Source\PSoC4/cy_em_eeprom.c ****         if(0u != CY_EM_EEPROM_IS_ADDR_IN_ROW_RANGE(addr + len, rowNum))
 432              		.loc 1 1308 0
 433 002e 0698     		ldr	r0, [sp, #24]
 434              	.LVL54:
 435 0030 8446     		mov	ip, r0
 436 0032 6444     		add	r4, r4, ip
 437 0034 A542     		cmp	r5, r4
 438 0036 06D8     		bhi	.L39
 439              		.loc 1 1308 0 is_stmt 0 discriminator 1
 440 0038 0133     		adds	r3, r3, #1
 441              	.LVL55:
 442 003a 9B01     		lsls	r3, r3, #6
 443              	.LVL56:
 444 003c 013B     		subs	r3, r3, #1
 445 003e 9C42     		cmp	r4, r3
 446 0040 03D9     		bls	.L40
ARM GAS  C:\Users\Larry\AppData\Local\Temp\ccxlVo0w.s 			page 32


 447              		.loc 1 1308 0
 448 0042 0023     		movs	r3, #0
 449 0044 02E0     		b	.L33
 450              	.LVL57:
 451              	.L39:
 452 0046 0023     		movs	r3, #0
 453              	.LVL58:
 454 0048 00E0     		b	.L33
 455              	.L40:
 456 004a 0123     		movs	r3, #1
 457              	.L33:
 458              		.loc 1 1308 0 discriminator 6
 459 004c 002B     		cmp	r3, #0
 460 004e 05D0     		beq	.L34
1309:Generated_Source\PSoC4/cy_em_eeprom.c ****         {
1310:Generated_Source\PSoC4/cy_em_eeprom.c ****             *endAddr = *startAddr + len;
 461              		.loc 1 1310 0 is_stmt 1
 462 0050 069B     		ldr	r3, [sp, #24]
 463 0052 9C46     		mov	ip, r3
 464 0054 6244     		add	r2, r2, ip
 465 0056 0A60     		str	r2, [r1]
1300:Generated_Source\PSoC4/cy_em_eeprom.c **** 
 466              		.loc 1 1300 0
 467 0058 0020     		movs	r0, #0
 468 005a 21E0     		b	.L35
 469              	.L34:
1311:Generated_Source\PSoC4/cy_em_eeprom.c ****         }
1312:Generated_Source\PSoC4/cy_em_eeprom.c ****         else
1313:Generated_Source\PSoC4/cy_em_eeprom.c ****         {
1314:Generated_Source\PSoC4/cy_em_eeprom.c ****             *endAddr = CY_EM_EEPROM_FLASH_SIZEOF_ROW;
 470              		.loc 1 1314 0
 471 005c 8023     		movs	r3, #128
 472 005e 0B60     		str	r3, [r1]
1300:Generated_Source\PSoC4/cy_em_eeprom.c **** 
 473              		.loc 1 1300 0
 474 0060 0020     		movs	r0, #0
 475 0062 1DE0     		b	.L35
 476              	.LVL59:
 477              	.L32:
1315:Generated_Source\PSoC4/cy_em_eeprom.c ****         }
1316:Generated_Source\PSoC4/cy_em_eeprom.c ****     }
1317:Generated_Source\PSoC4/cy_em_eeprom.c ****     else
1318:Generated_Source\PSoC4/cy_em_eeprom.c ****     {
1319:Generated_Source\PSoC4/cy_em_eeprom.c **** 
1320:Generated_Source\PSoC4/cy_em_eeprom.c ****         if(0u != CY_EM_EEPROM_IS_ADDR_IN_ROW_RANGE(addr + len, rowNum))
 478              		.loc 1 1320 0
 479 0064 069F     		ldr	r7, [sp, #24]
 480 0066 E719     		adds	r7, r4, r7
 481 0068 BD42     		cmp	r5, r7
 482 006a 05D8     		bhi	.L36
 483              		.loc 1 1320 0 is_stmt 0 discriminator 1
 484 006c 0133     		adds	r3, r3, #1
 485              	.LVL60:
 486 006e 9B01     		lsls	r3, r3, #6
 487              	.LVL61:
 488 0070 013B     		subs	r3, r3, #1
 489 0072 9F42     		cmp	r7, r3
ARM GAS  C:\Users\Larry\AppData\Local\Temp\ccxlVo0w.s 			page 33


 490 0074 00D8     		bhi	.L36
 491              		.loc 1 1320 0
 492 0076 0126     		movs	r6, #1
 493              	.L36:
 494              		.loc 1 1320 0 discriminator 6
 495 0078 002E     		cmp	r6, #0
 496 007a 10D0     		beq	.L42
1321:Generated_Source\PSoC4/cy_em_eeprom.c ****         {
1322:Generated_Source\PSoC4/cy_em_eeprom.c ****             *startAddr = CY_EM_EEPROM_EEPROM_DATA_LEN;
 497              		.loc 1 1322 0 is_stmt 1
 498 007c 4023     		movs	r3, #64
 499 007e 0360     		str	r3, [r0]
1323:Generated_Source\PSoC4/cy_em_eeprom.c ****             *endAddr = (*startAddr + len) - (*startAddr - (addr % CY_EM_EEPROM_EEPROM_DATA_LEN));
 500              		.loc 1 1323 0
 501 0080 069B     		ldr	r3, [sp, #24]
 502 0082 4033     		adds	r3, r3, #64
 503 0084 3F25     		movs	r5, #63
 504 0086 2C40     		ands	r4, r5
 505 0088 403C     		subs	r4, r4, #64
 506 008a 1C19     		adds	r4, r3, r4
 507 008c 0C60     		str	r4, [r1]
1324:Generated_Source\PSoC4/cy_em_eeprom.c ****             *offset = len - (*endAddr - *startAddr);
 508              		.loc 1 1324 0
 509 008e 0368     		ldr	r3, [r0]
 510 0090 1C1B     		subs	r4, r3, r4
 511 0092 069B     		ldr	r3, [sp, #24]
 512 0094 9C46     		mov	ip, r3
 513 0096 6444     		add	r4, r4, ip
 514 0098 1460     		str	r4, [r2]
1300:Generated_Source\PSoC4/cy_em_eeprom.c **** 
 515              		.loc 1 1300 0
 516 009a 0020     		movs	r0, #0
 517              	.LVL62:
 518 009c 00E0     		b	.L35
 519              	.LVL63:
 520              	.L42:
1325:Generated_Source\PSoC4/cy_em_eeprom.c ****         }
1326:Generated_Source\PSoC4/cy_em_eeprom.c ****         else
1327:Generated_Source\PSoC4/cy_em_eeprom.c ****         {
1328:Generated_Source\PSoC4/cy_em_eeprom.c ****             skip++;
 521              		.loc 1 1328 0
 522 009e 0120     		movs	r0, #1
 523              	.LVL64:
 524              	.L35:
1329:Generated_Source\PSoC4/cy_em_eeprom.c ****         }
1330:Generated_Source\PSoC4/cy_em_eeprom.c ****     }
1331:Generated_Source\PSoC4/cy_em_eeprom.c **** 
1332:Generated_Source\PSoC4/cy_em_eeprom.c ****     return (skip);
1333:Generated_Source\PSoC4/cy_em_eeprom.c **** }
 525              		.loc 1 1333 0
 526              		@ sp needed
 527 00a0 F0BD     		pop	{r4, r5, r6, r7, pc}
 528              		.cfi_endproc
 529              	.LFE14:
 530              		.size	GetAddresses, .-GetAddresses
 531 00a2 C046     		.section	.text.WriteRow,"ax",%progbits
 532              		.align	2
ARM GAS  C:\Users\Larry\AppData\Local\Temp\ccxlVo0w.s 			page 34


 533              		.code	16
 534              		.thumb_func
 535              		.type	WriteRow, %function
 536              	WriteRow:
 537              	.LFB11:
 994:Generated_Source\PSoC4/cy_em_eeprom.c ****     cy_en_em_eeprom_status_t ret = CY_EM_EEPROM_WRITE_FAIL;
 538              		.loc 1 994 0
 539              		.cfi_startproc
 540              		@ args = 0, pretend = 0, frame = 0
 541              		@ frame_needed = 0, uses_anonymous_args = 0
 542              	.LVL65:
 543 0000 10B5     		push	{r4, lr}
 544              		.cfi_def_cfa_offset 8
 545              		.cfi_offset 4, -8
 546              		.cfi_offset 14, -4
 547              	.LVL66:
1011:Generated_Source\PSoC4/cy_em_eeprom.c **** 
 548              		.loc 1 1011 0
 549 0002 C009     		lsrs	r0, r0, #7
 550              	.LVL67:
 551 0004 C005     		lsls	r0, r0, #23
 552 0006 C00D     		lsrs	r0, r0, #23
 553              	.LVL68:
1015:Generated_Source\PSoC4/cy_em_eeprom.c ****     #else
 554              		.loc 1 1015 0
 555 0008 FFF7FEFF 		bl	CySysFlashWriteRow
 556              	.LVL69:
1030:Generated_Source\PSoC4/cy_em_eeprom.c ****     {
 557              		.loc 1 1030 0
 558 000c 0028     		cmp	r0, #0
 559 000e 01D0     		beq	.L45
 995:Generated_Source\PSoC4/cy_em_eeprom.c **** #if (!CY_PSOC6)
 560              		.loc 1 995 0
 561 0010 0420     		movs	r0, #4
 562              	.LVL70:
 563 0012 00E0     		b	.L44
 564              	.LVL71:
 565              	.L45:
1032:Generated_Source\PSoC4/cy_em_eeprom.c ****     }
 566              		.loc 1 1032 0
 567 0014 0020     		movs	r0, #0
 568              	.LVL72:
 569              	.L44:
1068:Generated_Source\PSoC4/cy_em_eeprom.c **** 
 570              		.loc 1 1068 0
 571              		@ sp needed
 572 0016 10BD     		pop	{r4, pc}
 573              		.cfi_endproc
 574              	.LFE11:
 575              		.size	WriteRow, .-WriteRow
 576              		.section	.text.FillChecksum,"ax",%progbits
 577              		.align	2
 578              		.code	16
 579              		.thumb_func
 580              		.type	FillChecksum, %function
 581              	FillChecksum:
 582              	.LFB15:
ARM GAS  C:\Users\Larry\AppData\Local\Temp\ccxlVo0w.s 			page 35


1334:Generated_Source\PSoC4/cy_em_eeprom.c **** 
1335:Generated_Source\PSoC4/cy_em_eeprom.c **** 
1336:Generated_Source\PSoC4/cy_em_eeprom.c **** /*******************************************************************************
1337:Generated_Source\PSoC4/cy_em_eeprom.c **** * Function Name: FillChecksum
1338:Generated_Source\PSoC4/cy_em_eeprom.c **** ****************************************************************************//**
1339:Generated_Source\PSoC4/cy_em_eeprom.c **** *
1340:Generated_Source\PSoC4/cy_em_eeprom.c **** * Performs calculation of the checksum on each row in the Em_EEPROM and fills
1341:Generated_Source\PSoC4/cy_em_eeprom.c **** * the Em_EEPROM headers checksum field with the calculated checksums.
1342:Generated_Source\PSoC4/cy_em_eeprom.c **** *
1343:Generated_Source\PSoC4/cy_em_eeprom.c **** * \param context
1344:Generated_Source\PSoC4/cy_em_eeprom.c **** * The pointer to the EEPROM context structure.
1345:Generated_Source\PSoC4/cy_em_eeprom.c **** *
1346:Generated_Source\PSoC4/cy_em_eeprom.c **** * \return
1347:Generated_Source\PSoC4/cy_em_eeprom.c **** * error / status code. See \ref cy_en_em_eeprom_status_t.
1348:Generated_Source\PSoC4/cy_em_eeprom.c **** *
1349:Generated_Source\PSoC4/cy_em_eeprom.c **** * \theory 
1350:Generated_Source\PSoC4/cy_em_eeprom.c **** * In case if redundant copy option is used the Em_EEPROM would return bad 
1351:Generated_Source\PSoC4/cy_em_eeprom.c **** * checksum while trying to read the EEPROM rows which were not yet written by 
1352:Generated_Source\PSoC4/cy_em_eeprom.c **** * the user. E.g. any read after device reprogramming without previous Write() 
1353:Generated_Source\PSoC4/cy_em_eeprom.c **** * operation to the EEPROM would fail. This would happen because the Em_EEPROM 
1354:Generated_Source\PSoC4/cy_em_eeprom.c **** * headers checksum field values (which is zero at the moment) would not be 
1355:Generated_Source\PSoC4/cy_em_eeprom.c **** * equal to the actual data checksum. This function allows to avoid read failure
1356:Generated_Source\PSoC4/cy_em_eeprom.c **** * after device reprogramming. 
1357:Generated_Source\PSoC4/cy_em_eeprom.c **** *
1358:Generated_Source\PSoC4/cy_em_eeprom.c **** * \note
1359:Generated_Source\PSoC4/cy_em_eeprom.c **** * This function uses a buffer of the flash row size to perform read
1360:Generated_Source\PSoC4/cy_em_eeprom.c **** * operation. For the size of the row refer to the specific PSoC device
1361:Generated_Source\PSoC4/cy_em_eeprom.c **** * datasheet.
1362:Generated_Source\PSoC4/cy_em_eeprom.c **** *
1363:Generated_Source\PSoC4/cy_em_eeprom.c **** *******************************************************************************/
1364:Generated_Source\PSoC4/cy_em_eeprom.c **** static cy_en_em_eeprom_status_t FillChecksum(cy_stc_eeprom_context_t * context)
1365:Generated_Source\PSoC4/cy_em_eeprom.c **** {
 583              		.loc 1 1365 0
 584              		.cfi_startproc
 585              		@ args = 0, pretend = 0, frame = 136
 586              		@ frame_needed = 0, uses_anonymous_args = 0
 587              	.LVL73:
 588 0000 F0B5     		push	{r4, r5, r6, r7, lr}
 589              		.cfi_def_cfa_offset 20
 590              		.cfi_offset 4, -20
 591              		.cfi_offset 5, -16
 592              		.cfi_offset 6, -12
 593              		.cfi_offset 7, -8
 594              		.cfi_offset 14, -4
 595 0002 A3B0     		sub	sp, sp, #140
 596              		.cfi_def_cfa_offset 160
 597 0004 0400     		movs	r4, r0
1366:Generated_Source\PSoC4/cy_em_eeprom.c ****     uint32 i;
1367:Generated_Source\PSoC4/cy_em_eeprom.c ****     uint32 rdAddr;
1368:Generated_Source\PSoC4/cy_em_eeprom.c ****     uint32 writeRamBuffer[CY_EM_EEPROM_FLASH_SIZEOF_ROW / CY_EM_EEPROM_U32_DIV];
1369:Generated_Source\PSoC4/cy_em_eeprom.c ****     uint32 wrAddr = context->lastWrRowAddr;
 598              		.loc 1 1369 0
 599 0006 8368     		ldr	r3, [r0, #8]
 600 0008 0093     		str	r3, [sp]
1370:Generated_Source\PSoC4/cy_em_eeprom.c ****     uint32 tmpRowAddr;
1371:Generated_Source\PSoC4/cy_em_eeprom.c ****     /* Get the sequence number (number of writes) */
1372:Generated_Source\PSoC4/cy_em_eeprom.c ****     uint32 seqNum = CY_EM_EEPROM_GET_SEQ_NUM(wrAddr);
ARM GAS  C:\Users\Larry\AppData\Local\Temp\ccxlVo0w.s 			page 36


 601              		.loc 1 1372 0
 602 000a 1D68     		ldr	r5, [r3]
 603              	.LVL74:
1373:Generated_Source\PSoC4/cy_em_eeprom.c ****     cy_en_em_eeprom_status_t ret = CY_EM_EEPROM_BAD_PARAM;
 604              		.loc 1 1373 0
 605 000c 0126     		movs	r6, #1
1374:Generated_Source\PSoC4/cy_em_eeprom.c **** 
1375:Generated_Source\PSoC4/cy_em_eeprom.c ****     for(i = 0u; i < (context->numberOfRows * context->wearLevelingFactor); i++)
 606              		.loc 1 1375 0
 607 000e 0027     		movs	r7, #0
 608 0010 23E0     		b	.L47
 609              	.LVL75:
 610              	.L48:
1376:Generated_Source\PSoC4/cy_em_eeprom.c ****     {
1377:Generated_Source\PSoC4/cy_em_eeprom.c ****         /* Copy the EEPROM row from Flash to RAM */
1378:Generated_Source\PSoC4/cy_em_eeprom.c ****         (void)memcpy((void *)&writeRamBuffer[0u], (void *)(wrAddr), CY_EM_EEPROM_FLASH_SIZEOF_ROW);
 611              		.loc 1 1378 0 discriminator 3
 612 0012 009E     		ldr	r6, [sp]
 613              	.LVL76:
 614 0014 8022     		movs	r2, #128
 615 0016 3100     		movs	r1, r6
 616 0018 01A8     		add	r0, sp, #4
 617 001a FFF7FEFF 		bl	memcpy
 618              	.LVL77:
1379:Generated_Source\PSoC4/cy_em_eeprom.c **** 
1380:Generated_Source\PSoC4/cy_em_eeprom.c ****         /* Increment the sequence number */
1381:Generated_Source\PSoC4/cy_em_eeprom.c ****         seqNum++;
 619              		.loc 1 1381 0 discriminator 3
 620 001e 0135     		adds	r5, r5, #1
 621              	.LVL78:
1382:Generated_Source\PSoC4/cy_em_eeprom.c ****         writeRamBuffer[CY_EM_EEPROM_HEADER_SEQ_NUM_OFFSET_U32] = seqNum;
 622              		.loc 1 1382 0 discriminator 3
 623 0020 0195     		str	r5, [sp, #4]
1383:Generated_Source\PSoC4/cy_em_eeprom.c **** 
1384:Generated_Source\PSoC4/cy_em_eeprom.c ****         /* Calculate and fill the checksum to the Em_EEPROM header */
1385:Generated_Source\PSoC4/cy_em_eeprom.c ****         writeRamBuffer[CY_EM_EEPROM_HEADER_CHECKSUM_OFFSET_U32] = (uint32)
1386:Generated_Source\PSoC4/cy_em_eeprom.c ****                     CalcChecksum((uint8 *) &writeRamBuffer[CY_EM_EEPROM_EEPROM_DATA_OFFSET_U32],
 624              		.loc 1 1386 0 discriminator 3
 625 0022 4021     		movs	r1, #64
 626 0024 11A8     		add	r0, sp, #68
 627 0026 FFF7FEFF 		bl	CalcChecksum
 628              	.LVL79:
1385:Generated_Source\PSoC4/cy_em_eeprom.c ****                     CalcChecksum((uint8 *) &writeRamBuffer[CY_EM_EEPROM_EEPROM_DATA_OFFSET_U32],
 629              		.loc 1 1385 0 discriminator 3
 630 002a 1090     		str	r0, [sp, #64]
1387:Generated_Source\PSoC4/cy_em_eeprom.c ****                                               CY_EM_EEPROM_EEPROM_DATA_LEN);
1388:Generated_Source\PSoC4/cy_em_eeprom.c **** 
1389:Generated_Source\PSoC4/cy_em_eeprom.c ****         /* Write the data to the specified flash row */
1390:Generated_Source\PSoC4/cy_em_eeprom.c ****         ret = WriteRow(wrAddr, writeRamBuffer, context);
 631              		.loc 1 1390 0 discriminator 3
 632 002c 2200     		movs	r2, r4
 633 002e 01A9     		add	r1, sp, #4
 634 0030 3000     		movs	r0, r6
 635 0032 FFF7FEFF 		bl	WriteRow
 636              	.LVL80:
1391:Generated_Source\PSoC4/cy_em_eeprom.c **** 
1392:Generated_Source\PSoC4/cy_em_eeprom.c ****         /* Update the row address to point to the relevant row in the redundant 
ARM GAS  C:\Users\Larry\AppData\Local\Temp\ccxlVo0w.s 			page 37


1393:Generated_Source\PSoC4/cy_em_eeprom.c ****         * EEPROM's copy.
1394:Generated_Source\PSoC4/cy_em_eeprom.c ****         */
1395:Generated_Source\PSoC4/cy_em_eeprom.c ****         tmpRowAddr = (wrAddr - context->userFlashStartAddr) + context->wlEndAddr;
 637              		.loc 1 1395 0 discriminator 3
 638 0036 009B     		ldr	r3, [sp]
 639 0038 A269     		ldr	r2, [r4, #24]
 640 003a 981A     		subs	r0, r3, r2
 641 003c 2368     		ldr	r3, [r4]
 642 003e 9C46     		mov	ip, r3
 643 0040 6044     		add	r0, r0, ip
 644              	.LVL81:
1396:Generated_Source\PSoC4/cy_em_eeprom.c **** 
1397:Generated_Source\PSoC4/cy_em_eeprom.c ****         /* Write the data to the specified flash row */
1398:Generated_Source\PSoC4/cy_em_eeprom.c ****         ret = WriteRow(tmpRowAddr, writeRamBuffer, context);
 645              		.loc 1 1398 0 discriminator 3
 646 0042 2200     		movs	r2, r4
 647 0044 01A9     		add	r1, sp, #4
 648 0046 FFF7FEFF 		bl	WriteRow
 649              	.LVL82:
 650 004a 0600     		movs	r6, r0
 651              	.LVL83:
1399:Generated_Source\PSoC4/cy_em_eeprom.c **** 
1400:Generated_Source\PSoC4/cy_em_eeprom.c ****         /* Get the address of the next row to be written. 
1401:Generated_Source\PSoC4/cy_em_eeprom.c ****         * "rdAddr" is not used in this function but provided to prevent NULL 
1402:Generated_Source\PSoC4/cy_em_eeprom.c ****         * pointer exception in GetNextRowToWrite().
1403:Generated_Source\PSoC4/cy_em_eeprom.c ****         */
1404:Generated_Source\PSoC4/cy_em_eeprom.c ****         GetNextRowToWrite(seqNum, &wrAddr, &rdAddr, context);
 652              		.loc 1 1404 0 discriminator 3
 653 004c 2300     		movs	r3, r4
 654 004e 21AA     		add	r2, sp, #132
 655 0050 6946     		mov	r1, sp
 656 0052 2800     		movs	r0, r5
 657              	.LVL84:
 658 0054 FFF7FEFF 		bl	GetNextRowToWrite
 659              	.LVL85:
1375:Generated_Source\PSoC4/cy_em_eeprom.c ****     {
 660              		.loc 1 1375 0 discriminator 3
 661 0058 0137     		adds	r7, r7, #1
 662              	.LVL86:
 663              	.L47:
1375:Generated_Source\PSoC4/cy_em_eeprom.c ****     {
 664              		.loc 1 1375 0 is_stmt 0 discriminator 1
 665 005a 2369     		ldr	r3, [r4, #16]
 666 005c 6268     		ldr	r2, [r4, #4]
 667 005e 5343     		muls	r3, r2
 668 0060 9F42     		cmp	r7, r3
 669 0062 D6D3     		bcc	.L48
1405:Generated_Source\PSoC4/cy_em_eeprom.c ****     }
1406:Generated_Source\PSoC4/cy_em_eeprom.c ****     
1407:Generated_Source\PSoC4/cy_em_eeprom.c ****     return(ret);
1408:Generated_Source\PSoC4/cy_em_eeprom.c **** }
 670              		.loc 1 1408 0 is_stmt 1
 671 0064 3000     		movs	r0, r6
 672 0066 23B0     		add	sp, sp, #140
 673              		@ sp needed
 674              	.LVL87:
 675              	.LVL88:
ARM GAS  C:\Users\Larry\AppData\Local\Temp\ccxlVo0w.s 			page 38


 676              	.LVL89:
 677              	.LVL90:
 678 0068 F0BD     		pop	{r4, r5, r6, r7, pc}
 679              		.cfi_endproc
 680              	.LFE15:
 681              		.size	FillChecksum, .-FillChecksum
 682 006a C046     		.section	.text.CheckCrcAndCopy,"ax",%progbits
 683              		.align	2
 684              		.code	16
 685              		.thumb_func
 686              		.type	CheckCrcAndCopy, %function
 687              	CheckCrcAndCopy:
 688              	.LFB13:
1214:Generated_Source\PSoC4/cy_em_eeprom.c ****     cy_en_em_eeprom_status_t ret;
 689              		.loc 1 1214 0
 690              		.cfi_startproc
 691              		@ args = 4, pretend = 0, frame = 144
 692              		@ frame_needed = 0, uses_anonymous_args = 0
 693              	.LVL91:
 694 0000 F0B5     		push	{r4, r5, r6, r7, lr}
 695              		.cfi_def_cfa_offset 20
 696              		.cfi_offset 4, -20
 697              		.cfi_offset 5, -16
 698              		.cfi_offset 6, -12
 699              		.cfi_offset 7, -8
 700              		.cfi_offset 14, -4
 701 0002 A5B0     		sub	sp, sp, #148
 702              		.cfi_def_cfa_offset 168
 703 0004 0600     		movs	r6, r0
 704 0006 0191     		str	r1, [sp, #4]
 705 0008 0292     		str	r2, [sp, #8]
 706 000a 0393     		str	r3, [sp, #12]
 707 000c 2A9F     		ldr	r7, [sp, #168]
1219:Generated_Source\PSoC4/cy_em_eeprom.c **** 
 708              		.loc 1 1219 0
 709 000e BB69     		ldr	r3, [r7, #24]
 710              	.LVL92:
 711 0010 C41A     		subs	r4, r0, r3
 712 0012 3B68     		ldr	r3, [r7]
 713 0014 9C46     		mov	ip, r3
 714 0016 6444     		add	r4, r4, ip
 715              	.LVL93:
1222:Generated_Source\PSoC4/cy_em_eeprom.c ****         ((uint32) CalcChecksum((uint8 *)(startAddr + CY_EM_EEPROM_EEPROM_DATA_OFFSET),
 716              		.loc 1 1222 0
 717 0018 C56B     		ldr	r5, [r0, #60]
1223:Generated_Source\PSoC4/cy_em_eeprom.c ****             CY_EM_EEPROM_EEPROM_DATA_LEN)))
 718              		.loc 1 1223 0
 719 001a 4030     		adds	r0, r0, #64
 720              	.LVL94:
 721 001c 4021     		movs	r1, #64
 722              	.LVL95:
 723 001e FFF7FEFF 		bl	CalcChecksum
 724              	.LVL96:
1222:Generated_Source\PSoC4/cy_em_eeprom.c ****         ((uint32) CalcChecksum((uint8 *)(startAddr + CY_EM_EEPROM_EEPROM_DATA_OFFSET),
 725              		.loc 1 1222 0
 726 0022 8542     		cmp	r5, r0
 727 0024 07D1     		bne	.L50
ARM GAS  C:\Users\Larry\AppData\Local\Temp\ccxlVo0w.s 			page 39


1226:Generated_Source\PSoC4/cy_em_eeprom.c **** 
 728              		.loc 1 1226 0
 729 0026 029B     		ldr	r3, [sp, #8]
 730 0028 F118     		adds	r1, r6, r3
 731 002a 039A     		ldr	r2, [sp, #12]
 732 002c 0198     		ldr	r0, [sp, #4]
 733 002e FFF7FEFF 		bl	memcpy
 734              	.LVL97:
1228:Generated_Source\PSoC4/cy_em_eeprom.c ****     }
 735              		.loc 1 1228 0
 736 0032 0024     		movs	r4, #0
 737              	.LVL98:
 738 0034 1EE0     		b	.L51
 739              	.LVL99:
 740              	.L50:
1231:Generated_Source\PSoC4/cy_em_eeprom.c ****             ((uint32) CalcChecksum((uint8 *)(rcStartRowAddr + CY_EM_EEPROM_EEPROM_DATA_OFFSET),
 741              		.loc 1 1231 0
 742 0036 E56B     		ldr	r5, [r4, #60]
1232:Generated_Source\PSoC4/cy_em_eeprom.c ****                 CY_EM_EEPROM_EEPROM_DATA_LEN)))
 743              		.loc 1 1232 0
 744 0038 2000     		movs	r0, r4
 745 003a 4030     		adds	r0, r0, #64
 746 003c 4021     		movs	r1, #64
 747 003e FFF7FEFF 		bl	CalcChecksum
 748              	.LVL100:
1231:Generated_Source\PSoC4/cy_em_eeprom.c ****             ((uint32) CalcChecksum((uint8 *)(rcStartRowAddr + CY_EM_EEPROM_EEPROM_DATA_OFFSET),
 749              		.loc 1 1231 0
 750 0042 8542     		cmp	r5, r0
 751 0044 15D1     		bne	.L52
1239:Generated_Source\PSoC4/cy_em_eeprom.c **** 
 752              		.loc 1 1239 0
 753 0046 8022     		movs	r2, #128
 754 0048 2100     		movs	r1, r4
 755 004a 04A8     		add	r0, sp, #16
 756 004c FFF7FEFF 		bl	memcpy
 757              	.LVL101:
1242:Generated_Source\PSoC4/cy_em_eeprom.c **** 
 758              		.loc 1 1242 0
 759 0050 3A00     		movs	r2, r7
 760 0052 04A9     		add	r1, sp, #16
 761 0054 3000     		movs	r0, r6
 762 0056 FFF7FEFF 		bl	WriteRow
 763              	.LVL102:
 764 005a 041E     		subs	r4, r0, #0
 765              	.LVL103:
1244:Generated_Source\PSoC4/cy_em_eeprom.c ****         {
 766              		.loc 1 1244 0
 767 005c 0AD1     		bne	.L51
1246:Generated_Source\PSoC4/cy_em_eeprom.c ****         }
 768              		.loc 1 1246 0
 769 005e 029B     		ldr	r3, [sp, #8]
 770 0060 9900     		lsls	r1, r3, #2
 771 0062 04AB     		add	r3, sp, #16
 772 0064 9C46     		mov	ip, r3
 773 0066 6144     		add	r1, r1, ip
 774 0068 039A     		ldr	r2, [sp, #12]
 775 006a 0198     		ldr	r0, [sp, #4]
ARM GAS  C:\Users\Larry\AppData\Local\Temp\ccxlVo0w.s 			page 40


 776              	.LVL104:
 777 006c FFF7FEFF 		bl	memcpy
 778              	.LVL105:
 779 0070 00E0     		b	.L51
 780              	.LVL106:
 781              	.L52:
1251:Generated_Source\PSoC4/cy_em_eeprom.c ****     }
 782              		.loc 1 1251 0
 783 0072 0224     		movs	r4, #2
 784              	.LVL107:
 785              	.L51:
1255:Generated_Source\PSoC4/cy_em_eeprom.c **** 
 786              		.loc 1 1255 0
 787 0074 2000     		movs	r0, r4
 788 0076 25B0     		add	sp, sp, #148
 789              		@ sp needed
 790              	.LVL108:
 791              	.LVL109:
 792 0078 F0BD     		pop	{r4, r5, r6, r7, pc}
 793              		.cfi_endproc
 794              	.LFE13:
 795              		.size	CheckCrcAndCopy, .-CheckCrcAndCopy
 796 007a C046     		.section	.text.EraseRow,"ax",%progbits
 797              		.align	2
 798              		.code	16
 799              		.thumb_func
 800              		.type	EraseRow, %function
 801              	EraseRow:
 802              	.LFB12:
1096:Generated_Source\PSoC4/cy_em_eeprom.c ****     uint32 emEepromRowAddr = rowAddr;
 803              		.loc 1 1096 0
 804              		.cfi_startproc
 805              		@ args = 0, pretend = 0, frame = 0
 806              		@ frame_needed = 0, uses_anonymous_args = 0
 807              	.LVL110:
 808 0000 70B5     		push	{r4, r5, r6, lr}
 809              		.cfi_def_cfa_offset 16
 810              		.cfi_offset 4, -16
 811              		.cfi_offset 5, -12
 812              		.cfi_offset 6, -8
 813              		.cfi_offset 14, -4
 814 0002 0400     		movs	r4, r0
 815 0004 0D00     		movs	r5, r1
 816 0006 1600     		movs	r6, r2
 817              	.LVL111:
1155:Generated_Source\PSoC4/cy_em_eeprom.c **** 
 818              		.loc 1 1155 0
 819 0008 FFF7FEFF 		bl	WriteRow
 820              	.LVL112:
1157:Generated_Source\PSoC4/cy_em_eeprom.c ****     {
 821              		.loc 1 1157 0
 822 000c 0028     		cmp	r0, #0
 823 000e 0BD1     		bne	.L54
1157:Generated_Source\PSoC4/cy_em_eeprom.c ****     {
 824              		.loc 1 1157 0 is_stmt 0 discriminator 1
 825 0010 337D     		ldrb	r3, [r6, #20]
 826 0012 002B     		cmp	r3, #0
ARM GAS  C:\Users\Larry\AppData\Local\Temp\ccxlVo0w.s 			page 41


 827 0014 08D0     		beq	.L54
1160:Generated_Source\PSoC4/cy_em_eeprom.c ****         ret = WriteRow(emEepromRowAddr, (uint32 *)ramBuffAddr, context);
 828              		.loc 1 1160 0 is_stmt 1
 829 0016 B369     		ldr	r3, [r6, #24]
 830 0018 E01A     		subs	r0, r4, r3
 831              	.LVL113:
 832 001a 3368     		ldr	r3, [r6]
 833 001c 9C46     		mov	ip, r3
 834 001e 6044     		add	r0, r0, ip
 835              	.LVL114:
1161:Generated_Source\PSoC4/cy_em_eeprom.c ****     }
 836              		.loc 1 1161 0
 837 0020 3200     		movs	r2, r6
 838 0022 2900     		movs	r1, r5
 839 0024 FFF7FEFF 		bl	WriteRow
 840              	.LVL115:
 841              	.L54:
1164:Generated_Source\PSoC4/cy_em_eeprom.c ****     {
 842              		.loc 1 1164 0
 843 0028 0028     		cmp	r0, #0
 844 002a 00D1     		bne	.L55
1166:Generated_Source\PSoC4/cy_em_eeprom.c ****     }
 845              		.loc 1 1166 0
 846 002c B460     		str	r4, [r6, #8]
 847              	.L55:
1171:Generated_Source\PSoC4/cy_em_eeprom.c **** 
 848              		.loc 1 1171 0
 849              		@ sp needed
 850              	.LVL116:
 851              	.LVL117:
 852              	.LVL118:
 853 002e 70BD     		pop	{r4, r5, r6, pc}
 854              		.cfi_endproc
 855              	.LFE12:
 856              		.size	EraseRow, .-EraseRow
 857              		.section	.text.Cy_Em_EEPROM_Init,"ax",%progbits
 858              		.align	2
 859              		.global	Cy_Em_EEPROM_Init
 860              		.code	16
 861              		.thumb_func
 862              		.type	Cy_Em_EEPROM_Init, %function
 863              	Cy_Em_EEPROM_Init:
 864              	.LFB1:
  96:Generated_Source\PSoC4/cy_em_eeprom.c ****     cy_en_em_eeprom_status_t ret = CY_EM_EEPROM_BAD_PARAM;
 865              		.loc 1 96 0
 866              		.cfi_startproc
 867              		@ args = 0, pretend = 0, frame = 0
 868              		@ frame_needed = 0, uses_anonymous_args = 0
 869              	.LVL119:
 870 0000 F8B5     		push	{r3, r4, r5, r6, r7, lr}
 871              		.cfi_def_cfa_offset 24
 872              		.cfi_offset 3, -24
 873              		.cfi_offset 4, -20
 874              		.cfi_offset 5, -16
 875              		.cfi_offset 6, -12
 876              		.cfi_offset 7, -8
 877              		.cfi_offset 14, -4
ARM GAS  C:\Users\Larry\AppData\Local\Temp\ccxlVo0w.s 			page 42


 878 0002 0400     		movs	r4, r0
 879 0004 0D1E     		subs	r5, r1, #0
 880              	.LVL120:
  99:Generated_Source\PSoC4/cy_em_eeprom.c ****         (config->wearLevelingFactor <= CY_EM_EEPROM_MAX_WEAR_LEVELING_FACTOR) && (config->eepromSiz
 881              		.loc 1 99 0
 882 0006 3BD0     		beq	.L59
  99:Generated_Source\PSoC4/cy_em_eeprom.c ****         (config->wearLevelingFactor <= CY_EM_EEPROM_MAX_WEAR_LEVELING_FACTOR) && (config->eepromSiz
 883              		.loc 1 99 0 is_stmt 0 discriminator 1
 884 0008 0028     		cmp	r0, #0
 885 000a 3BD0     		beq	.L60
  99:Generated_Source\PSoC4/cy_em_eeprom.c ****         (config->wearLevelingFactor <= CY_EM_EEPROM_MAX_WEAR_LEVELING_FACTOR) && (config->eepromSiz
 886              		.loc 1 99 0 discriminator 2
 887 000c C368     		ldr	r3, [r0, #12]
 888 000e 002B     		cmp	r3, #0
 889 0010 3AD0     		beq	.L61
  99:Generated_Source\PSoC4/cy_em_eeprom.c ****         (config->wearLevelingFactor <= CY_EM_EEPROM_MAX_WEAR_LEVELING_FACTOR) && (config->eepromSiz
 890              		.loc 1 99 0 discriminator 3
 891 0012 4368     		ldr	r3, [r0, #4]
 892 0014 0A2B     		cmp	r3, #10
 893 0016 39D8     		bhi	.L62
 100:Generated_Source\PSoC4/cy_em_eeprom.c ****     {
 894              		.loc 1 100 0 is_stmt 1
 895 0018 0768     		ldr	r7, [r0]
 896 001a 002F     		cmp	r7, #0
 897 001c 38D0     		beq	.L63
 102:Generated_Source\PSoC4/cy_em_eeprom.c **** 
 898              		.loc 1 102 0
 899 001e FFF7FEFF 		bl	CheckRanges
 900              	.LVL121:
 901 0022 061E     		subs	r6, r0, #0
 902              	.LVL122:
 104:Generated_Source\PSoC4/cy_em_eeprom.c ****         {
 903              		.loc 1 104 0
 904 0024 35D1     		bne	.L57
 107:Generated_Source\PSoC4/cy_em_eeprom.c ****             context->wearLevelingFactor = config->wearLevelingFactor;
 905              		.loc 1 107 0
 906 0026 EF60     		str	r7, [r5, #12]
 108:Generated_Source\PSoC4/cy_em_eeprom.c ****             context->redundantCopy = config->redundantCopy;
 907              		.loc 1 108 0
 908 0028 6368     		ldr	r3, [r4, #4]
 909 002a 2B61     		str	r3, [r5, #16]
 109:Generated_Source\PSoC4/cy_em_eeprom.c ****             context->blockingWrite = config->blockingWrite;
 910              		.loc 1 109 0
 911 002c 237A     		ldrb	r3, [r4, #8]
 912 002e 2B75     		strb	r3, [r5, #20]
 110:Generated_Source\PSoC4/cy_em_eeprom.c ****             context->userFlashStartAddr = config->userFlashStartAddr;
 913              		.loc 1 110 0
 914 0030 637A     		ldrb	r3, [r4, #9]
 915 0032 6B75     		strb	r3, [r5, #21]
 111:Generated_Source\PSoC4/cy_em_eeprom.c ****             /* Store frequently used data for internal use */
 916              		.loc 1 111 0
 917 0034 E368     		ldr	r3, [r4, #12]
 918 0036 AB61     		str	r3, [r5, #24]
 113:Generated_Source\PSoC4/cy_em_eeprom.c ****             context->wlEndAddr = ((CY_EM_EEPROM_GET_EEPROM_SIZE(context->numberOfRows) * config->we
 919              		.loc 1 113 0
 920 0038 2268     		ldr	r2, [r4]
 921 003a 9109     		lsrs	r1, r2, #6
ARM GAS  C:\Users\Larry\AppData\Local\Temp\ccxlVo0w.s 			page 43


 922 003c 3F23     		movs	r3, #63
 923 003e 1340     		ands	r3, r2
 924 0040 00D0     		beq	.L58
 925 0042 0123     		movs	r3, #1
 926              	.L58:
 113:Generated_Source\PSoC4/cy_em_eeprom.c ****             context->wlEndAddr = ((CY_EM_EEPROM_GET_EEPROM_SIZE(context->numberOfRows) * config->we
 927              		.loc 1 113 0 is_stmt 0 discriminator 4
 928 0044 5B18     		adds	r3, r3, r1
 929 0046 6B60     		str	r3, [r5, #4]
 114:Generated_Source\PSoC4/cy_em_eeprom.c ****                     config->userFlashStartAddr);
 930              		.loc 1 114 0 is_stmt 1 discriminator 4
 931 0048 6268     		ldr	r2, [r4, #4]
 932 004a 5343     		muls	r3, r2
 933 004c DB01     		lsls	r3, r3, #7
 115:Generated_Source\PSoC4/cy_em_eeprom.c ****             /* Find last written EEPROM row and store it for quick access */
 934              		.loc 1 115 0 discriminator 4
 935 004e E268     		ldr	r2, [r4, #12]
 114:Generated_Source\PSoC4/cy_em_eeprom.c ****                     config->userFlashStartAddr);
 936              		.loc 1 114 0 discriminator 4
 937 0050 9B18     		adds	r3, r3, r2
 938 0052 2B60     		str	r3, [r5]
 117:Generated_Source\PSoC4/cy_em_eeprom.c **** 
 939              		.loc 1 117 0 discriminator 4
 940 0054 2C00     		movs	r4, r5
 941              	.LVL123:
 942 0056 0834     		adds	r4, r4, #8
 943 0058 2900     		movs	r1, r5
 944 005a 2000     		movs	r0, r4
 945              	.LVL124:
 946 005c FFF7FEFF 		bl	FindLastWrittenRow
 947              	.LVL125:
 119:Generated_Source\PSoC4/cy_em_eeprom.c ****             {
 948              		.loc 1 119 0 discriminator 4
 949 0060 AB68     		ldr	r3, [r5, #8]
 950 0062 1B68     		ldr	r3, [r3]
 951 0064 002B     		cmp	r3, #0
 952 0066 14D1     		bne	.L57
 119:Generated_Source\PSoC4/cy_em_eeprom.c ****             {
 953              		.loc 1 119 0 is_stmt 0 discriminator 1
 954 0068 2B7D     		ldrb	r3, [r5, #20]
 955 006a 002B     		cmp	r3, #0
 956 006c 11D0     		beq	.L57
 124:Generated_Source\PSoC4/cy_em_eeprom.c ****                 
 957              		.loc 1 124 0 is_stmt 1
 958 006e 2800     		movs	r0, r5
 959 0070 FFF7FEFF 		bl	FillChecksum
 960              	.LVL126:
 961 0074 0600     		movs	r6, r0
 962              	.LVL127:
 127:Generated_Source\PSoC4/cy_em_eeprom.c ****             }
 963              		.loc 1 127 0
 964 0076 2900     		movs	r1, r5
 965 0078 2000     		movs	r0, r4
 966              	.LVL128:
 967 007a FFF7FEFF 		bl	FindLastWrittenRow
 968              	.LVL129:
 969 007e 08E0     		b	.L57
ARM GAS  C:\Users\Larry\AppData\Local\Temp\ccxlVo0w.s 			page 44


 970              	.LVL130:
 971              	.L59:
  97:Generated_Source\PSoC4/cy_em_eeprom.c **** 
 972              		.loc 1 97 0
 973 0080 0126     		movs	r6, #1
 974 0082 06E0     		b	.L57
 975              	.L60:
 976 0084 0126     		movs	r6, #1
 977 0086 04E0     		b	.L57
 978              	.L61:
 979 0088 0126     		movs	r6, #1
 980 008a 02E0     		b	.L57
 981              	.L62:
 982 008c 0126     		movs	r6, #1
 983 008e 00E0     		b	.L57
 984              	.L63:
 985 0090 0126     		movs	r6, #1
 986              	.LVL131:
 987              	.L57:
 133:Generated_Source\PSoC4/cy_em_eeprom.c **** 
 988              		.loc 1 133 0
 989 0092 3000     		movs	r0, r6
 990              		@ sp needed
 991              	.LVL132:
 992              	.LVL133:
 993 0094 F8BD     		pop	{r3, r4, r5, r6, r7, pc}
 994              		.cfi_endproc
 995              	.LFE1:
 996              		.size	Cy_Em_EEPROM_Init, .-Cy_Em_EEPROM_Init
 997              		.global	__aeabi_uidiv
 998 0096 C046     		.section	.text.Cy_Em_EEPROM_Read,"ax",%progbits
 999              		.align	2
 1000              		.global	Cy_Em_EEPROM_Read
 1001              		.code	16
 1002              		.thumb_func
 1003              		.type	Cy_Em_EEPROM_Read, %function
 1004              	Cy_Em_EEPROM_Read:
 1005              	.LFB2:
 173:Generated_Source\PSoC4/cy_em_eeprom.c ****     cy_en_em_eeprom_status_t ret = CY_EM_EEPROM_BAD_PARAM;
 1006              		.loc 1 173 0
 1007              		.cfi_startproc
 1008              		@ args = 0, pretend = 0, frame = 32
 1009              		@ frame_needed = 0, uses_anonymous_args = 0
 1010              	.LVL134:
 1011 0000 F0B5     		push	{r4, r5, r6, r7, lr}
 1012              		.cfi_def_cfa_offset 20
 1013              		.cfi_offset 4, -20
 1014              		.cfi_offset 5, -16
 1015              		.cfi_offset 6, -12
 1016              		.cfi_offset 7, -8
 1017              		.cfi_offset 14, -4
 1018 0002 5F46     		mov	r7, fp
 1019 0004 5646     		mov	r6, r10
 1020 0006 4D46     		mov	r5, r9
 1021 0008 4446     		mov	r4, r8
 1022 000a F0B4     		push	{r4, r5, r6, r7}
 1023              		.cfi_def_cfa_offset 36
ARM GAS  C:\Users\Larry\AppData\Local\Temp\ccxlVo0w.s 			page 45


 1024              		.cfi_offset 8, -36
 1025              		.cfi_offset 9, -32
 1026              		.cfi_offset 10, -28
 1027              		.cfi_offset 11, -24
 1028 000c 8BB0     		sub	sp, sp, #44
 1029              		.cfi_def_cfa_offset 80
 1030 000e 8146     		mov	r9, r0
 1031 0010 0791     		str	r1, [sp, #28]
 1032 0012 9246     		mov	r10, r2
 1033 0014 1F00     		movs	r7, r3
 1034              	.LVL135:
 183:Generated_Source\PSoC4/cy_em_eeprom.c **** 
 1035              		.loc 1 183 0
 1036 0016 0B00     		movs	r3, r1
 1037              	.LVL136:
 1038 0018 0691     		str	r1, [sp, #24]
 1039              	.LVL137:
 186:Generated_Source\PSoC4/cy_em_eeprom.c ****     {
 1040              		.loc 1 186 0
 1041 001a 002A     		cmp	r2, #0
 1042 001c 00D1     		bne	.LCB1078
 1043 001e F6E0     		b	.L89	@long jump
 1044              	.LCB1078:
 186:Generated_Source\PSoC4/cy_em_eeprom.c ****     {
 1045              		.loc 1 186 0 is_stmt 0 discriminator 1
 1046 0020 4A44     		add	r2, r2, r9
 1047              	.LVL138:
 1048 0022 0892     		str	r2, [sp, #32]
 1049 0024 F868     		ldr	r0, [r7, #12]
 1050              	.LVL139:
 1051 0026 8242     		cmp	r2, r0
 1052 0028 00D9     		bls	.LCB1086
 1053 002a F3E0     		b	.L90	@long jump
 1054              	.LCB1086:
 186:Generated_Source\PSoC4/cy_em_eeprom.c ****     {
 1055              		.loc 1 186 0 discriminator 2
 1056 002c 002B     		cmp	r3, #0
 1057 002e 00D1     		bne	.LCB1088
 1058 0030 F3E0     		b	.L91	@long jump
 1059              	.LCB1088:
 1060              	.LVL140:
 1061              	.LBB2:
 191:Generated_Source\PSoC4/cy_em_eeprom.c ****         uint32 updateAddrFlag = 0u;
 1062              		.loc 1 191 0 is_stmt 1
 1063 0032 BC68     		ldr	r4, [r7, #8]
 1064 0034 2368     		ldr	r3, [r4]
 1065 0036 0993     		str	r3, [sp, #36]
 1066              	.LVL141:
 197:Generated_Source\PSoC4/cy_em_eeprom.c ****                               (rdAddr / CY_EM_EEPROM_EEPROM_DATA_LEN)) + 1u;
 1067              		.loc 1 197 0
 1068 0038 531E     		subs	r3, r2, #1
 1069              	.LVL142:
 1070 003a 9B09     		lsrs	r3, r3, #6
 198:Generated_Source\PSoC4/cy_em_eeprom.c **** 
 1071              		.loc 1 198 0
 1072 003c 4A46     		mov	r2, r9
 1073 003e 9209     		lsrs	r2, r2, #6
ARM GAS  C:\Users\Larry\AppData\Local\Temp\ccxlVo0w.s 			page 46


 197:Generated_Source\PSoC4/cy_em_eeprom.c ****                               (rdAddr / CY_EM_EEPROM_EEPROM_DATA_LEN)) + 1u;
 1074              		.loc 1 197 0
 1075 0040 9B1A     		subs	r3, r3, r2
 1076 0042 0133     		adds	r3, r3, #1
 1077 0044 9B46     		mov	fp, r3
 1078              	.LVL143:
 204:Generated_Source\PSoC4/cy_em_eeprom.c ****                               (CY_EM_EEPROM_FLASH_SIZEOF_ROW * context->numberOfRows)) *
 1079              		.loc 1 204 0
 1080 0046 BD69     		ldr	r5, [r7, #24]
 1081 0048 601B     		subs	r0, r4, r5
 205:Generated_Source\PSoC4/cy_em_eeprom.c ****                               (CY_EM_EEPROM_FLASH_SIZEOF_ROW * context->numberOfRows)) +
 1082              		.loc 1 205 0
 1083 004a 7E68     		ldr	r6, [r7, #4]
 1084 004c F101     		lsls	r1, r6, #7
 1085              	.LVL144:
 204:Generated_Source\PSoC4/cy_em_eeprom.c ****                               (CY_EM_EEPROM_FLASH_SIZEOF_ROW * context->numberOfRows)) *
 1086              		.loc 1 204 0
 1087 004e FFF7FEFF 		bl	__aeabi_uidiv
 1088              	.LVL145:
 205:Generated_Source\PSoC4/cy_em_eeprom.c ****                               (CY_EM_EEPROM_FLASH_SIZEOF_ROW * context->numberOfRows)) +
 1089              		.loc 1 205 0
 1090 0052 7043     		muls	r0, r6
 1091 0054 C001     		lsls	r0, r0, #7
 204:Generated_Source\PSoC4/cy_em_eeprom.c ****                               (CY_EM_EEPROM_FLASH_SIZEOF_ROW * context->numberOfRows)) *
 1092              		.loc 1 204 0
 1093 0056 2B18     		adds	r3, r5, r0
 1094 0058 0393     		str	r3, [sp, #12]
 1095              	.LVL146:
 210:Generated_Source\PSoC4/cy_em_eeprom.c ****         {
 1096              		.loc 1 210 0
 1097 005a 0025     		movs	r5, #0
 1098 005c 4A46     		mov	r2, r9
 1099 005e 0FE0     		b	.L66
 1100              	.LVL147:
 1101              	.L69:
 212:Generated_Source\PSoC4/cy_em_eeprom.c ****             {
 1102              		.loc 1 212 0
 1103 0060 AB01     		lsls	r3, r5, #6
 1104 0062 9A42     		cmp	r2, r3
 1105 0064 06D3     		bcc	.L92
 212:Generated_Source\PSoC4/cy_em_eeprom.c ****             {
 1106              		.loc 1 212 0 is_stmt 0 discriminator 1
 1107 0066 6B1C     		adds	r3, r5, #1
 1108 0068 9B01     		lsls	r3, r3, #6
 1109 006a 013B     		subs	r3, r3, #1
 1110 006c 9A42     		cmp	r2, r3
 1111 006e 03D9     		bls	.L93
 212:Generated_Source\PSoC4/cy_em_eeprom.c ****             {
 1112              		.loc 1 212 0
 1113 0070 0023     		movs	r3, #0
 1114 0072 02E0     		b	.L67
 1115              	.L92:
 1116 0074 0023     		movs	r3, #0
 1117 0076 00E0     		b	.L67
 1118              	.L93:
 1119 0078 0123     		movs	r3, #1
 1120              	.L67:
ARM GAS  C:\Users\Larry\AppData\Local\Temp\ccxlVo0w.s 			page 47


 212:Generated_Source\PSoC4/cy_em_eeprom.c ****             {
 1121              		.loc 1 212 0 discriminator 6
 1122 007a 002B     		cmp	r3, #0
 1123 007c 05D1     		bne	.L100
 210:Generated_Source\PSoC4/cy_em_eeprom.c ****         {
 1124              		.loc 1 210 0 is_stmt 1 discriminator 2
 1125 007e 0135     		adds	r5, r5, #1
 1126              	.LVL148:
 1127              	.L66:
 210:Generated_Source\PSoC4/cy_em_eeprom.c ****         {
 1128              		.loc 1 210 0 is_stmt 0 discriminator 1
 1129 0080 B542     		cmp	r5, r6
 1130 0082 EDD3     		bcc	.L69
 1131 0084 9146     		mov	r9, r2
 1132              	.LVL149:
 1133              	.LBE2:
 181:Generated_Source\PSoC4/cy_em_eeprom.c ****     uint32 dataStartEepromRowNum = 0u;
 1134              		.loc 1 181 0 is_stmt 1
 1135 0086 0025     		movs	r5, #0
 1136              	.LVL150:
 1137 0088 00E0     		b	.L68
 1138              	.LVL151:
 1139              	.L100:
 1140 008a 9146     		mov	r9, r2
 1141              	.LVL152:
 1142              	.L68:
 1143              	.LBB9:
 221:Generated_Source\PSoC4/cy_em_eeprom.c **** 
 1144              		.loc 1 221 0
 1145 008c 039B     		ldr	r3, [sp, #12]
 1146 008e E31A     		subs	r3, r4, r3
 1147 0090 DB09     		lsrs	r3, r3, #7
 1148 0092 1900     		movs	r1, r3
 1149 0094 0593     		str	r3, [sp, #20]
 1150              	.LVL153:
 224:Generated_Source\PSoC4/cy_em_eeprom.c ****         {
 1151              		.loc 1 224 0
 1152 0096 3B69     		ldr	r3, [r7, #16]
 1153 0098 012B     		cmp	r3, #1
 1154 009a 09D9     		bls	.L94
 1155              	.LBB3:
 226:Generated_Source\PSoC4/cy_em_eeprom.c **** 
 1156              		.loc 1 226 0
 1157 009c 5B46     		mov	r3, fp
 1158 009e EB18     		adds	r3, r5, r3
 1159 00a0 013B     		subs	r3, r3, #1
 1160              	.LVL154:
 229:Generated_Source\PSoC4/cy_em_eeprom.c ****                               ((dataEndEepromRowNum > actEepromRowNum) ? 1u : 0u);
 1161              		.loc 1 229 0
 1162 00a2 8D42     		cmp	r5, r1
 1163 00a4 07D8     		bhi	.L95
 229:Generated_Source\PSoC4/cy_em_eeprom.c ****                               ((dataEndEepromRowNum > actEepromRowNum) ? 1u : 0u);
 1164              		.loc 1 229 0 is_stmt 0 discriminator 1
 1165 00a6 9942     		cmp	r1, r3
 1166 00a8 08D2     		bcs	.L96
 229:Generated_Source\PSoC4/cy_em_eeprom.c ****                               ((dataEndEepromRowNum > actEepromRowNum) ? 1u : 0u);
 1167              		.loc 1 229 0
ARM GAS  C:\Users\Larry\AppData\Local\Temp\ccxlVo0w.s 			page 48


 1168 00aa 0123     		movs	r3, #1
 1169              	.LVL155:
 1170 00ac 0493     		str	r3, [sp, #16]
 1171 00ae 07E0     		b	.L70
 1172              	.LVL156:
 1173              	.L94:
 1174              	.LBE3:
 192:Generated_Source\PSoC4/cy_em_eeprom.c **** 
 1175              		.loc 1 192 0 is_stmt 1
 1176 00b0 0023     		movs	r3, #0
 1177 00b2 0493     		str	r3, [sp, #16]
 1178 00b4 04E0     		b	.L70
 1179              	.LVL157:
 1180              	.L95:
 1181              	.LBB4:
 229:Generated_Source\PSoC4/cy_em_eeprom.c ****                               ((dataEndEepromRowNum > actEepromRowNum) ? 1u : 0u);
 1182              		.loc 1 229 0
 1183 00b6 0123     		movs	r3, #1
 1184              	.LVL158:
 1185 00b8 0493     		str	r3, [sp, #16]
 1186 00ba 01E0     		b	.L70
 1187              	.LVL159:
 1188              	.L96:
 1189 00bc 0023     		movs	r3, #0
 1190              	.LVL160:
 1191 00be 0493     		str	r3, [sp, #16]
 1192              	.LVL161:
 1193              	.L70:
 1194              	.LBE4:
 188:Generated_Source\PSoC4/cy_em_eeprom.c ****         uint32 rdSize = size;
 1195              		.loc 1 188 0
 1196 00c0 C846     		mov	r8, r9
 1197              	.LBE9:
 183:Generated_Source\PSoC4/cy_em_eeprom.c **** 
 1198              		.loc 1 183 0
 1199 00c2 079B     		ldr	r3, [sp, #28]
 1200              	.LBB10:
 234:Generated_Source\PSoC4/cy_em_eeprom.c ****         {
 1201              		.loc 1 234 0
 1202 00c4 0026     		movs	r6, #0
 1203              	.LBE10:
 174:Generated_Source\PSoC4/cy_em_eeprom.c ****     uint32 i;
 1204              		.loc 1 174 0
 1205 00c6 0122     		movs	r2, #1
 1206              	.LVL162:
 1207 00c8 1000     		movs	r0, r2
 1208 00ca 4A46     		mov	r2, r9
 1209 00cc 0792     		str	r2, [sp, #28]
 1210              	.LVL163:
 1211 00ce B946     		mov	r9, r7
 1212              	.LVL164:
 1213 00d0 4746     		mov	r7, r8
 1214              	.LVL165:
 1215 00d2 9846     		mov	r8, r3
 1216              	.LBB11:
 234:Generated_Source\PSoC4/cy_em_eeprom.c ****         {
 1217              		.loc 1 234 0
ARM GAS  C:\Users\Larry\AppData\Local\Temp\ccxlVo0w.s 			page 49


 1218 00d4 3EE0     		b	.L71
 1219              	.LVL166:
 1220              	.L77:
 236:Generated_Source\PSoC4/cy_em_eeprom.c ****             curRowOffset = CY_EM_EEPROM_EEPROM_DATA_LEN + (rdAddr % CY_EM_EEPROM_EEPROM_DATA_LEN);
 1221              		.loc 1 236 0
 1222 00d6 E801     		lsls	r0, r5, #7
 1223              	.LVL167:
 1224 00d8 039B     		ldr	r3, [sp, #12]
 1225 00da 9C46     		mov	ip, r3
 1226 00dc 6044     		add	r0, r0, ip
 1227              	.LVL168:
 237:Generated_Source\PSoC4/cy_em_eeprom.c **** 
 1228              		.loc 1 237 0
 1229 00de 3F24     		movs	r4, #63
 1230 00e0 3C40     		ands	r4, r7
 1231 00e2 2200     		movs	r2, r4
 1232 00e4 4032     		adds	r2, r2, #64
 1233              	.LVL169:
 242:Generated_Source\PSoC4/cy_em_eeprom.c ****             {
 1234              		.loc 1 242 0
 1235 00e6 0136     		adds	r6, r6, #1
 1236              	.LVL170:
 1237 00e8 B345     		cmp	fp, r6
 1238 00ea 02D9     		bls	.L97
 244:Generated_Source\PSoC4/cy_em_eeprom.c ****             }
 1239              		.loc 1 244 0
 1240 00ec 4023     		movs	r3, #64
 1241 00ee 1C1B     		subs	r4, r3, r4
 1242              	.LVL171:
 1243 00f0 00E0     		b	.L72
 1244              	.LVL172:
 1245              	.L97:
 248:Generated_Source\PSoC4/cy_em_eeprom.c ****             }
 1246              		.loc 1 248 0
 1247 00f2 5446     		mov	r4, r10
 1248              	.L72:
 1249              	.LVL173:
 254:Generated_Source\PSoC4/cy_em_eeprom.c ****             {
 1250              		.loc 1 254 0
 1251 00f4 049B     		ldr	r3, [sp, #16]
 1252 00f6 002B     		cmp	r3, #0
 1253 00f8 0FD0     		beq	.L73
 254:Generated_Source\PSoC4/cy_em_eeprom.c ****             {
 1254              		.loc 1 254 0 is_stmt 0 discriminator 1
 1255 00fa 059B     		ldr	r3, [sp, #20]
 1256 00fc 9D42     		cmp	r5, r3
 1257 00fe 0CD9     		bls	.L73
 256:Generated_Source\PSoC4/cy_em_eeprom.c **** 
 1258              		.loc 1 256 0 is_stmt 1
 1259 0100 4B46     		mov	r3, r9
 1260 0102 5B68     		ldr	r3, [r3, #4]
 1261 0104 D901     		lsls	r1, r3, #7
 1262 0106 401A     		subs	r0, r0, r1
 1263              	.LVL174:
 258:Generated_Source\PSoC4/cy_em_eeprom.c ****                 {
 1264              		.loc 1 258 0
 1265 0108 4946     		mov	r1, r9
ARM GAS  C:\Users\Larry\AppData\Local\Temp\ccxlVo0w.s 			page 50


 1266 010a 8969     		ldr	r1, [r1, #24]
 1267 010c 8842     		cmp	r0, r1
 1268 010e 04D2     		bcs	.L73
 261:Generated_Source\PSoC4/cy_em_eeprom.c ****                 }
 1269              		.loc 1 261 0
 1270 0110 581B     		subs	r0, r3, r5
 1271              	.LVL175:
 1272 0112 C301     		lsls	r3, r0, #7
 1273              	.LVL176:
 260:Generated_Source\PSoC4/cy_em_eeprom.c ****                         ((context->numberOfRows - curRdEepromRowNum) * CY_EM_EEPROM_FLASH_SIZEOF_RO
 1274              		.loc 1 260 0
 1275 0114 4946     		mov	r1, r9
 1276 0116 0968     		ldr	r1, [r1]
 1277 0118 C81A     		subs	r0, r1, r3
 1278              	.LVL177:
 1279              	.L73:
 265:Generated_Source\PSoC4/cy_em_eeprom.c ****             {
 1280              		.loc 1 265 0
 1281 011a 4B46     		mov	r3, r9
 1282 011c 1B7D     		ldrb	r3, [r3, #20]
 1283 011e 002B     		cmp	r3, #0
 1284 0120 0CD0     		beq	.L74
 270:Generated_Source\PSoC4/cy_em_eeprom.c **** 
 1285              		.loc 1 270 0
 1286 0122 4B46     		mov	r3, r9
 1287 0124 0093     		str	r3, [sp]
 1288 0126 2300     		movs	r3, r4
 1289 0128 4146     		mov	r1, r8
 1290 012a FFF7FEFF 		bl	CheckCrcAndCopy
 1291              	.LVL178:
 272:Generated_Source\PSoC4/cy_em_eeprom.c ****                 {
 1292              		.loc 1 272 0
 1293 012e 0028     		cmp	r0, #0
 1294 0130 0AD0     		beq	.L76
 1295 0132 8246     		mov	r10, r0
 1296              	.LVL179:
 1297 0134 4F46     		mov	r7, r9
 1298              	.LVL180:
 1299 0136 079B     		ldr	r3, [sp, #28]
 1300 0138 9946     		mov	r9, r3
 1301              	.LVL181:
 1302 013a 11E0     		b	.L75
 1303              	.LVL182:
 1304              	.L74:
 281:Generated_Source\PSoC4/cy_em_eeprom.c ****                              numBytesToRead);
 1305              		.loc 1 281 0
 1306 013c 8118     		adds	r1, r0, r2
 280:Generated_Source\PSoC4/cy_em_eeprom.c ****                              (void *)(startRowAddr + curRowOffset),
 1307              		.loc 1 280 0
 1308 013e 2200     		movs	r2, r4
 1309              	.LVL183:
 1310 0140 4046     		mov	r0, r8
 1311              	.LVL184:
 1312 0142 FFF7FEFF 		bl	memcpy
 1313              	.LVL185:
 285:Generated_Source\PSoC4/cy_em_eeprom.c ****             }
 1314              		.loc 1 285 0
ARM GAS  C:\Users\Larry\AppData\Local\Temp\ccxlVo0w.s 			page 51


 1315 0146 0020     		movs	r0, #0
 1316              	.LVL186:
 1317              	.L76:
 289:Generated_Source\PSoC4/cy_em_eeprom.c ****             rdSize -= numBytesToRead;
 1318              		.loc 1 289 0 discriminator 2
 1319 0148 3F19     		adds	r7, r7, r4
 1320              	.LVL187:
 290:Generated_Source\PSoC4/cy_em_eeprom.c ****             eeData += numBytesToRead;
 1321              		.loc 1 290 0 discriminator 2
 1322 014a 5346     		mov	r3, r10
 1323 014c 1B1B     		subs	r3, r3, r4
 1324 014e 9A46     		mov	r10, r3
 1325              	.LVL188:
 291:Generated_Source\PSoC4/cy_em_eeprom.c ****             curRdEepromRowNum++;
 1326              		.loc 1 291 0 discriminator 2
 1327 0150 A044     		add	r8, r8, r4
 1328              	.LVL189:
 292:Generated_Source\PSoC4/cy_em_eeprom.c ****         }
 1329              		.loc 1 292 0 discriminator 2
 1330 0152 0135     		adds	r5, r5, #1
 1331              	.LVL190:
 1332              	.L71:
 234:Generated_Source\PSoC4/cy_em_eeprom.c ****         {
 1333              		.loc 1 234 0 discriminator 1
 1334 0154 5E45     		cmp	r6, fp
 1335 0156 BED3     		bcc	.L77
 1336 0158 8246     		mov	r10, r0
 1337              	.LVL191:
 1338 015a 4F46     		mov	r7, r9
 1339              	.LVL192:
 1340 015c 079B     		ldr	r3, [sp, #28]
 1341 015e 9946     		mov	r9, r3
 1342              	.LVL193:
 1343              	.L75:
 303:Generated_Source\PSoC4/cy_em_eeprom.c ****         {
 1344              		.loc 1 303 0
 1345 0160 5346     		mov	r3, r10
 1346 0162 002B     		cmp	r3, #0
 1347 0164 5BD1     		bne	.L65
 303:Generated_Source\PSoC4/cy_em_eeprom.c ****         {
 1348              		.loc 1 303 0 is_stmt 0 discriminator 1
 1349 0166 099A     		ldr	r2, [sp, #36]
 1350 0168 002A     		cmp	r2, #0
 1351 016a 58D0     		beq	.L65
 305:Generated_Source\PSoC4/cy_em_eeprom.c ****             numRowReads--;
 1352              		.loc 1 305 0 is_stmt 1
 1353 016c 7B68     		ldr	r3, [r7, #4]
 1354 016e 1400     		movs	r4, r2
 1355 0170 9A42     		cmp	r2, r3
 1356 0172 00D9     		bls	.L78
 1357 0174 1C00     		movs	r4, r3
 1358              	.L78:
 1359              	.LVL194:
 306:Generated_Source\PSoC4/cy_em_eeprom.c **** 
 1360              		.loc 1 306 0
 1361 0176 013C     		subs	r4, r4, #1
 1362              	.LVL195:
ARM GAS  C:\Users\Larry\AppData\Local\Temp\ccxlVo0w.s 			page 52


 308:Generated_Source\PSoC4/cy_em_eeprom.c ****             {
 1363              		.loc 1 308 0
 1364 0178 099B     		ldr	r3, [sp, #36]
 1365 017a 1C1B     		subs	r4, r3, r4
 1366              	.LVL196:
 1367 017c 089A     		ldr	r2, [sp, #32]
 1368 017e 9046     		mov	r8, r2
 1369              	.LVL197:
 1370 0180 1D00     		movs	r5, r3
 1371              	.LVL198:
 1372 0182 0397     		str	r7, [sp, #12]
 1373              	.LVL199:
 1374 0184 4F46     		mov	r7, r9
 1375              	.LVL200:
 1376 0186 3FE0     		b	.L79
 1377              	.L88:
 310:Generated_Source\PSoC4/cy_em_eeprom.c **** 
 1378              		.loc 1 310 0
 1379 0188 0399     		ldr	r1, [sp, #12]
 1380 018a 2000     		movs	r0, r4
 1381 018c FFF7FEFF 		bl	GetRowAddrBySeqNum
 1382              	.LVL201:
 312:Generated_Source\PSoC4/cy_em_eeprom.c ****                 {
 1383              		.loc 1 312 0
 1384 0190 0028     		cmp	r0, #0
 1385 0192 38D0     		beq	.L80
 1386              	.LBB5:
 315:Generated_Source\PSoC4/cy_em_eeprom.c ****                     uint32 endAddr    = startAddr + (*(uint32 *)(startRowAddr + CY_EM_EEPROM_HEADER
 1387              		.loc 1 315 0
 1388 0194 4668     		ldr	r6, [r0, #4]
 1389              	.LVL202:
 316:Generated_Source\PSoC4/cy_em_eeprom.c **** 
 1390              		.loc 1 316 0
 1391 0196 8368     		ldr	r3, [r0, #8]
 1392 0198 F318     		adds	r3, r6, r3
 1393              	.LVL203:
 319:Generated_Source\PSoC4/cy_em_eeprom.c ****                     {
 1394              		.loc 1 319 0
 1395 019a B742     		cmp	r7, r6
 1396 019c 03D2     		bcs	.L81
 319:Generated_Source\PSoC4/cy_em_eeprom.c ****                     {
 1397              		.loc 1 319 0 is_stmt 0 discriminator 1
 1398 019e 4645     		cmp	r6, r8
 1399 01a0 9241     		sbcs	r2, r2, r2
 1400 01a2 5242     		rsbs	r2, r2, #0
 1401 01a4 02E0     		b	.L82
 1402              	.L81:
 319:Generated_Source\PSoC4/cy_em_eeprom.c ****                     {
 1403              		.loc 1 319 0 discriminator 2
 1404 01a6 9F42     		cmp	r7, r3
 1405 01a8 9241     		sbcs	r2, r2, r2
 1406 01aa 5242     		rsbs	r2, r2, #0
 1407              	.L82:
 319:Generated_Source\PSoC4/cy_em_eeprom.c ****                     {
 1408              		.loc 1 319 0 discriminator 4
 1409 01ac 002A     		cmp	r2, #0
 1410 01ae 2AD0     		beq	.L80
ARM GAS  C:\Users\Larry\AppData\Local\Temp\ccxlVo0w.s 			page 53


 1411              	.LBB6:
 321:Generated_Source\PSoC4/cy_em_eeprom.c ****                         uint32 dstOffset = (startAddr > addr) ? (startAddr - addr): (0u);
 1412              		.loc 1 321 0 is_stmt 1
 1413 01b0 B742     		cmp	r7, r6
 1414 01b2 01D3     		bcc	.L98
 321:Generated_Source\PSoC4/cy_em_eeprom.c ****                         uint32 dstOffset = (startAddr > addr) ? (startAddr - addr): (0u);
 1415              		.loc 1 321 0 is_stmt 0 discriminator 1
 1416 01b4 BA1B     		subs	r2, r7, r6
 1417 01b6 00E0     		b	.L83
 1418              	.L98:
 321:Generated_Source\PSoC4/cy_em_eeprom.c ****                         uint32 dstOffset = (startAddr > addr) ? (startAddr - addr): (0u);
 1419              		.loc 1 321 0
 1420 01b8 0022     		movs	r2, #0
 1421              	.L83:
 1422              	.LVL204:
 322:Generated_Source\PSoC4/cy_em_eeprom.c ****                         rdAddr = (startAddr > addr) ? (startAddr) : (addr);
 1423              		.loc 1 322 0 is_stmt 1 discriminator 4
 1424 01ba B742     		cmp	r7, r6
 1425 01bc 02D2     		bcs	.L99
 322:Generated_Source\PSoC4/cy_em_eeprom.c ****                         rdAddr = (startAddr > addr) ? (startAddr) : (addr);
 1426              		.loc 1 322 0 is_stmt 0 discriminator 1
 1427 01be F11B     		subs	r1, r6, r7
 1428 01c0 8C46     		mov	ip, r1
 1429 01c2 01E0     		b	.L84
 1430              	.L99:
 322:Generated_Source\PSoC4/cy_em_eeprom.c ****                         rdAddr = (startAddr > addr) ? (startAddr) : (addr);
 1431              		.loc 1 322 0
 1432 01c4 0021     		movs	r1, #0
 1433 01c6 8C46     		mov	ip, r1
 1434              	.L84:
 1435              	.LVL205:
 323:Generated_Source\PSoC4/cy_em_eeprom.c **** 
 1436              		.loc 1 323 0 is_stmt 1 discriminator 4
 1437 01c8 3900     		movs	r1, r7
 1438 01ca B742     		cmp	r7, r6
 1439 01cc 00D2     		bcs	.L85
 1440 01ce 3100     		movs	r1, r6
 1441              	.L85:
 1442              	.LVL206:
 325:Generated_Source\PSoC4/cy_em_eeprom.c **** 
 1443              		.loc 1 325 0 discriminator 4
 1444 01d0 0C32     		adds	r2, r2, #12
 1445              	.LVL207:
 328:Generated_Source\PSoC4/cy_em_eeprom.c **** 
 1446              		.loc 1 328 0 discriminator 4
 1447 01d2 4646     		mov	r6, r8
 1448              	.LVL208:
 1449 01d4 9845     		cmp	r8, r3
 1450 01d6 00D9     		bls	.L86
 1451 01d8 1E00     		movs	r6, r3
 1452              	.L86:
 1453 01da 731A     		subs	r3, r6, r1
 1454              	.LVL209:
 331:Generated_Source\PSoC4/cy_em_eeprom.c **** 
 1455              		.loc 1 331 0 discriminator 4
 1456 01dc 0699     		ldr	r1, [sp, #24]
 1457              	.LVL210:
ARM GAS  C:\Users\Larry\AppData\Local\Temp\ccxlVo0w.s 			page 54


 1458 01de 6144     		add	r1, r1, ip
 1459 01e0 0E00     		movs	r6, r1
 1460              	.LVL211:
 338:Generated_Source\PSoC4/cy_em_eeprom.c ****                         {
 1461              		.loc 1 338 0 discriminator 4
 1462 01e2 0399     		ldr	r1, [sp, #12]
 1463              	.LVL212:
 1464 01e4 097D     		ldrb	r1, [r1, #20]
 1465 01e6 0029     		cmp	r1, #0
 1466 01e8 08D0     		beq	.L87
 340:Generated_Source\PSoC4/cy_em_eeprom.c **** 
 1467              		.loc 1 340 0
 1468 01ea 0399     		ldr	r1, [sp, #12]
 1469 01ec 0091     		str	r1, [sp]
 1470              	.LVL213:
 1471 01ee 3100     		movs	r1, r6
 1472 01f0 FFF7FEFF 		bl	CheckCrcAndCopy
 1473              	.LVL214:
 1474 01f4 8246     		mov	r10, r0
 1475              	.LVL215:
 342:Generated_Source\PSoC4/cy_em_eeprom.c ****                             {
 1476              		.loc 1 342 0
 1477 01f6 0028     		cmp	r0, #0
 1478 01f8 05D0     		beq	.L80
 1479              	.LBE6:
 1480              	.LBE5:
 1481 01fa 10E0     		b	.L65
 1482              	.LVL216:
 1483              	.L87:
 1484              	.LBB8:
 1485              	.LBB7:
 349:Generated_Source\PSoC4/cy_em_eeprom.c ****                         }
 1486              		.loc 1 349 0
 1487 01fc 8118     		adds	r1, r0, r2
 1488 01fe 1A00     		movs	r2, r3
 1489              	.LVL217:
 1490 0200 3000     		movs	r0, r6
 1491              	.LVL218:
 1492 0202 FFF7FEFF 		bl	memcpy
 1493              	.LVL219:
 1494              	.L80:
 1495              	.LBE7:
 1496              	.LBE8:
 308:Generated_Source\PSoC4/cy_em_eeprom.c ****             {
 1497              		.loc 1 308 0 discriminator 2
 1498 0206 0134     		adds	r4, r4, #1
 1499              	.LVL220:
 1500              	.L79:
 308:Generated_Source\PSoC4/cy_em_eeprom.c ****             {
 1501              		.loc 1 308 0 is_stmt 0 discriminator 1
 1502 0208 AC42     		cmp	r4, r5
 1503 020a BDD9     		bls	.L88
 1504 020c 07E0     		b	.L65
 1505              	.LVL221:
 1506              	.L89:
 1507              	.LBE11:
 174:Generated_Source\PSoC4/cy_em_eeprom.c ****     uint32 i;
ARM GAS  C:\Users\Larry\AppData\Local\Temp\ccxlVo0w.s 			page 55


 1508              		.loc 1 174 0 is_stmt 1
 1509 020e 0123     		movs	r3, #1
 1510 0210 9A46     		mov	r10, r3
 1511 0212 04E0     		b	.L65
 1512              	.LVL222:
 1513              	.L90:
 1514 0214 0123     		movs	r3, #1
 1515 0216 9A46     		mov	r10, r3
 1516              	.LVL223:
 1517 0218 01E0     		b	.L65
 1518              	.LVL224:
 1519              	.L91:
 1520 021a 0123     		movs	r3, #1
 1521 021c 9A46     		mov	r10, r3
 1522              	.LVL225:
 1523              	.L65:
 358:Generated_Source\PSoC4/cy_em_eeprom.c **** 
 1524              		.loc 1 358 0
 1525 021e 5046     		mov	r0, r10
 1526 0220 0BB0     		add	sp, sp, #44
 1527              		@ sp needed
 1528              	.LVL226:
 1529 0222 3CBC     		pop	{r2, r3, r4, r5}
 1530 0224 9046     		mov	r8, r2
 1531 0226 9946     		mov	r9, r3
 1532 0228 A246     		mov	r10, r4
 1533 022a AB46     		mov	fp, r5
 1534 022c F0BD     		pop	{r4, r5, r6, r7, pc}
 1535              		.cfi_endproc
 1536              	.LFE2:
 1537              		.size	Cy_Em_EEPROM_Read, .-Cy_Em_EEPROM_Read
 1538              		.global	__aeabi_uidivmod
 1539 022e C046     		.section	.text.Cy_Em_EEPROM_Write,"ax",%progbits
 1540              		.align	2
 1541              		.global	Cy_Em_EEPROM_Write
 1542              		.code	16
 1543              		.thumb_func
 1544              		.type	Cy_Em_EEPROM_Write, %function
 1545              	Cy_Em_EEPROM_Write:
 1546              	.LFB3:
 415:Generated_Source\PSoC4/cy_em_eeprom.c ****     cy_en_em_eeprom_status_t ret = CY_EM_EEPROM_BAD_PARAM;
 1547              		.loc 1 415 0
 1548              		.cfi_startproc
 1549              		@ args = 0, pretend = 0, frame = 168
 1550              		@ frame_needed = 0, uses_anonymous_args = 0
 1551              	.LVL227:
 1552 0000 F0B5     		push	{r4, r5, r6, r7, lr}
 1553              		.cfi_def_cfa_offset 20
 1554              		.cfi_offset 4, -20
 1555              		.cfi_offset 5, -16
 1556              		.cfi_offset 6, -12
 1557              		.cfi_offset 7, -8
 1558              		.cfi_offset 14, -4
 1559 0002 5F46     		mov	r7, fp
 1560 0004 5646     		mov	r6, r10
 1561 0006 4D46     		mov	r5, r9
 1562 0008 4446     		mov	r4, r8
ARM GAS  C:\Users\Larry\AppData\Local\Temp\ccxlVo0w.s 			page 56


 1563 000a F0B4     		push	{r4, r5, r6, r7}
 1564              		.cfi_def_cfa_offset 36
 1565              		.cfi_offset 8, -36
 1566              		.cfi_offset 9, -32
 1567              		.cfi_offset 10, -28
 1568              		.cfi_offset 11, -24
 1569 000c ADB0     		sub	sp, sp, #180
 1570              		.cfi_def_cfa_offset 216
 1571 000e 8246     		mov	r10, r0
 1572 0010 9346     		mov	fp, r2
 1573 0012 1D00     		movs	r5, r3
 1574              	.LVL228:
 421:Generated_Source\PSoC4/cy_em_eeprom.c ****     uint32 endAddr = 0u;
 1575              		.loc 1 421 0
 1576 0014 0023     		movs	r3, #0
 1577              	.LVL229:
 1578 0016 0B93     		str	r3, [sp, #44]
 422:Generated_Source\PSoC4/cy_em_eeprom.c ****     uint32 tmpRowAddr;
 1579              		.loc 1 422 0
 1580 0018 0A93     		str	r3, [sp, #40]
 424:Generated_Source\PSoC4/cy_em_eeprom.c ****     uint32 emEepromRowRdAddr;
 1581              		.loc 1 424 0
 1582 001a AB68     		ldr	r3, [r5, #8]
 1583 001c 0993     		str	r3, [sp, #36]
 427:Generated_Source\PSoC4/cy_em_eeprom.c **** 
 1584              		.loc 1 427 0
 1585 001e 0391     		str	r1, [sp, #12]
 1586              	.LVL230:
 430:Generated_Source\PSoC4/cy_em_eeprom.c ****     {
 1587              		.loc 1 430 0
 1588 0020 131E     		subs	r3, r2, #0
 1589 0022 00D1     		bne	.LCB1770
 1590 0024 A7E0     		b	.L119	@long jump
 1591              	.LCB1770:
 430:Generated_Source\PSoC4/cy_em_eeprom.c ****     {
 1592              		.loc 1 430 0 is_stmt 0 discriminator 1
 1593 0026 5344     		add	r3, r3, r10
 1594 0028 EA68     		ldr	r2, [r5, #12]
 1595              	.LVL231:
 1596 002a 9342     		cmp	r3, r2
 1597 002c 00D9     		bls	.LCB1776
 1598 002e A4E0     		b	.L120	@long jump
 1599              	.LCB1776:
 430:Generated_Source\PSoC4/cy_em_eeprom.c ****     {
 1600              		.loc 1 430 0 discriminator 2
 1601 0030 0029     		cmp	r1, #0
 1602 0032 00D1     		bne	.LCB1778
 1603 0034 A3E0     		b	.L121	@long jump
 1604              	.LCB1778:
 1605              	.LBB12:
 432:Generated_Source\PSoC4/cy_em_eeprom.c ****         uint32 eeHeaderDataOffset = 0u;
 1606              		.loc 1 432 0 is_stmt 1
 1607 0036 5B46     		mov	r3, fp
 1608 0038 581E     		subs	r0, r3, #1
 1609              	.LVL232:
 1610 003a 3021     		movs	r1, #48
 1611              	.LVL233:
ARM GAS  C:\Users\Larry\AppData\Local\Temp\ccxlVo0w.s 			page 57


 1612 003c FFF7FEFF 		bl	__aeabi_uidiv
 1613              	.LVL234:
 1614 0040 0300     		movs	r3, r0
 1615 0042 0590     		str	r0, [sp, #20]
 1616 0044 0133     		adds	r3, r3, #1
 1617 0046 0493     		str	r3, [sp, #16]
 1618              	.LVL235:
 433:Generated_Source\PSoC4/cy_em_eeprom.c **** 
 1619              		.loc 1 433 0
 1620 0048 0023     		movs	r3, #0
 1621              	.LVL236:
 1622 004a 0793     		str	r3, [sp, #28]
 1623              	.LVL237:
 435:Generated_Source\PSoC4/cy_em_eeprom.c ****         {
 1624              		.loc 1 435 0
 1625 004c 9946     		mov	r9, r3
 1626              	.LBE12:
 416:Generated_Source\PSoC4/cy_em_eeprom.c ****     uint32 i;
 1627              		.loc 1 416 0
 1628 004e 0120     		movs	r0, #1
 1629              	.LBB15:
 435:Generated_Source\PSoC4/cy_em_eeprom.c ****         {
 1630              		.loc 1 435 0
 1631 0050 8CE0     		b	.L103
 1632              	.LVL238:
 1633              	.L118:
 1634              	.LBB13:
 439:Generated_Source\PSoC4/cy_em_eeprom.c **** 
 1635              		.loc 1 439 0
 1636 0052 099B     		ldr	r3, [sp, #36]
 1637 0054 1C68     		ldr	r4, [r3]
 1638              	.LVL239:
 446:Generated_Source\PSoC4/cy_em_eeprom.c **** 
 1639              		.loc 1 446 0
 1640 0056 2B00     		movs	r3, r5
 1641 0058 08AA     		add	r2, sp, #32
 1642 005a 09A9     		add	r1, sp, #36
 1643 005c 2000     		movs	r0, r4
 1644              	.LVL240:
 1645 005e FFF7FEFF 		bl	GetNextRowToWrite
 1646              	.LVL241:
 449:Generated_Source\PSoC4/cy_em_eeprom.c **** 
 1647              		.loc 1 449 0
 1648 0062 8022     		movs	r2, #128
 1649 0064 0021     		movs	r1, #0
 1650 0066 0CA8     		add	r0, sp, #48
 1651 0068 FFF7FEFF 		bl	memset
 1652              	.LVL242:
 452:Generated_Source\PSoC4/cy_em_eeprom.c ****             writeRamBuffer[CY_EM_EEPROM_HEADER_SEQ_NUM_OFFSET_U32] = seqNum;
 1653              		.loc 1 452 0
 1654 006c 631C     		adds	r3, r4, #1
 1655 006e 9846     		mov	r8, r3
 1656              	.LVL243:
 453:Generated_Source\PSoC4/cy_em_eeprom.c ****             writeRamBuffer[CY_EM_EEPROM_HEADER_ADDR_OFFSET_U32] = addr;
 1657              		.loc 1 453 0
 1658 0070 0C93     		str	r3, [sp, #48]
 454:Generated_Source\PSoC4/cy_em_eeprom.c ****             tmpData = (void *) eeData;
ARM GAS  C:\Users\Larry\AppData\Local\Temp\ccxlVo0w.s 			page 58


 1659              		.loc 1 454 0
 1660 0072 5346     		mov	r3, r10
 1661              	.LVL244:
 1662 0074 0D93     		str	r3, [sp, #52]
 455:Generated_Source\PSoC4/cy_em_eeprom.c **** 
 1663              		.loc 1 455 0
 1664 0076 0399     		ldr	r1, [sp, #12]
 1665              	.LVL245:
 458:Generated_Source\PSoC4/cy_em_eeprom.c ****             {
 1666              		.loc 1 458 0
 1667 0078 059B     		ldr	r3, [sp, #20]
 1668 007a 9945     		cmp	r9, r3
 1669 007c 02D1     		bne	.L104
 461:Generated_Source\PSoC4/cy_em_eeprom.c ****             }
 1670              		.loc 1 461 0
 1671 007e 5B46     		mov	r3, fp
 1672 0080 0E93     		str	r3, [sp, #56]
 1673 0082 0AE0     		b	.L105
 1674              	.L104:
 469:Generated_Source\PSoC4/cy_em_eeprom.c ****                 size -= CY_EM_EEPROM_HEADER_DATA_LEN;
 1675              		.loc 1 469 0
 1676 0084 3023     		movs	r3, #48
 1677 0086 0E93     		str	r3, [sp, #56]
 470:Generated_Source\PSoC4/cy_em_eeprom.c ****                 addr += CY_EM_EEPROM_HEADER_DATA_LEN;
 1678              		.loc 1 470 0
 1679 0088 603B     		subs	r3, r3, #96
 1680 008a 9C46     		mov	ip, r3
 1681 008c E344     		add	fp, fp, ip
 1682              	.LVL246:
 471:Generated_Source\PSoC4/cy_em_eeprom.c ****                 eeData += CY_EM_EEPROM_HEADER_DATA_LEN;
 1683              		.loc 1 471 0
 1684 008e 6033     		adds	r3, r3, #96
 1685 0090 9C46     		mov	ip, r3
 1686 0092 E244     		add	r10, r10, ip
 1687              	.LVL247:
 472:Generated_Source\PSoC4/cy_em_eeprom.c ****             }
 1688              		.loc 1 472 0
 1689 0094 039B     		ldr	r3, [sp, #12]
 1690 0096 3033     		adds	r3, r3, #48
 1691 0098 0393     		str	r3, [sp, #12]
 1692              	.LVL248:
 1693              	.L105:
 476:Generated_Source\PSoC4/cy_em_eeprom.c ****                          tmpData,
 1694              		.loc 1 476 0
 1695 009a 0E9A     		ldr	r2, [sp, #56]
 1696 009c 0FA8     		add	r0, sp, #60
 1697 009e FFF7FEFF 		bl	memcpy
 1698              	.LVL249:
 480:Generated_Source\PSoC4/cy_em_eeprom.c ****             {
 1699              		.loc 1 480 0
 1700 00a2 0899     		ldr	r1, [sp, #32]
 1701 00a4 0029     		cmp	r1, #0
 1702 00a6 04D0     		beq	.L106
 484:Generated_Source\PSoC4/cy_em_eeprom.c ****                              CY_EM_EEPROM_EEPROM_DATA_LEN);
 1703              		.loc 1 484 0
 1704 00a8 4031     		adds	r1, r1, #64
 483:Generated_Source\PSoC4/cy_em_eeprom.c ****                              (void *)(emEepromRowRdAddr + CY_EM_EEPROM_EEPROM_DATA_LEN),
ARM GAS  C:\Users\Larry\AppData\Local\Temp\ccxlVo0w.s 			page 59


 1705              		.loc 1 483 0
 1706 00aa 4022     		movs	r2, #64
 1707 00ac 1CA8     		add	r0, sp, #112
 1708 00ae FFF7FEFF 		bl	memcpy
 1709              	.LVL250:
 1710              	.L106:
 492:Generated_Source\PSoC4/cy_em_eeprom.c **** 
 1711              		.loc 1 492 0
 1712 00b2 6C68     		ldr	r4, [r5, #4]
 1713 00b4 A045     		cmp	r8, r4
 1714 00b6 03D9     		bls	.L122
 492:Generated_Source\PSoC4/cy_em_eeprom.c **** 
 1715              		.loc 1 492 0 is_stmt 0 discriminator 1
 1716 00b8 4346     		mov	r3, r8
 1717 00ba 1C1B     		subs	r4, r3, r4
 1718 00bc 0134     		adds	r4, r4, #1
 1719 00be 00E0     		b	.L107
 1720              	.L122:
 492:Generated_Source\PSoC4/cy_em_eeprom.c **** 
 1721              		.loc 1 492 0
 1722 00c0 0124     		movs	r4, #1
 1723              	.L107:
 492:Generated_Source\PSoC4/cy_em_eeprom.c **** 
 1724              		.loc 1 492 0 discriminator 1
 1725 00c2 0027     		movs	r7, #0
 1726 00c4 35E0     		b	.L108
 1727              	.LVL251:
 1728              	.L115:
 496:Generated_Source\PSoC4/cy_em_eeprom.c ****                 {
 1729              		.loc 1 496 0 is_stmt 1
 1730 00c6 4445     		cmp	r4, r8
 1731 00c8 01D1     		bne	.L109
 502:Generated_Source\PSoC4/cy_em_eeprom.c ****                 }
 1732              		.loc 1 502 0
 1733 00ca 0CAE     		add	r6, sp, #48
 1734              	.LVL252:
 1735 00cc 04E0     		b	.L110
 1736              	.LVL253:
 1737              	.L109:
 509:Generated_Source\PSoC4/cy_em_eeprom.c ****                 }
 1738              		.loc 1 509 0
 1739 00ce 2900     		movs	r1, r5
 1740 00d0 2000     		movs	r0, r4
 1741 00d2 FFF7FEFF 		bl	GetRowAddrBySeqNum
 1742              	.LVL254:
 1743 00d6 0600     		movs	r6, r0
 1744              	.LVL255:
 1745              	.L110:
 512:Generated_Source\PSoC4/cy_em_eeprom.c ****                                                                            context->numberOfRows,
 1746              		.loc 1 512 0
 1747 00d8 099B     		ldr	r3, [sp, #36]
 1748 00da AA69     		ldr	r2, [r5, #24]
 1749 00dc 981A     		subs	r0, r3, r2
 1750 00de C009     		lsrs	r0, r0, #7
 1751 00e0 6968     		ldr	r1, [r5, #4]
 1752 00e2 FFF7FEFF 		bl	__aeabi_uidivmod
 1753              	.LVL256:
ARM GAS  C:\Users\Larry\AppData\Local\Temp\ccxlVo0w.s 			page 60


 515:Generated_Source\PSoC4/cy_em_eeprom.c ****                 {
 1754              		.loc 1 515 0
 1755 00e6 002E     		cmp	r6, #0
 1756 00e8 0BD0     		beq	.L111
 518:Generated_Source\PSoC4/cy_em_eeprom.c ****                                               &startAddr,
 1757              		.loc 1 518 0
 1758 00ea 7368     		ldr	r3, [r6, #4]
 1759 00ec B268     		ldr	r2, [r6, #8]
 1760 00ee 0192     		str	r2, [sp, #4]
 1761 00f0 0093     		str	r3, [sp]
 1762 00f2 0B00     		movs	r3, r1
 1763 00f4 07AA     		add	r2, sp, #28
 1764 00f6 0AA9     		add	r1, sp, #40
 1765              	.LVL257:
 1766 00f8 0BA8     		add	r0, sp, #44
 1767 00fa FFF7FEFF 		bl	GetAddresses
 1768              	.LVL258:
 1769 00fe 0700     		movs	r7, r0
 1770              	.LVL259:
 1771 0100 00E0     		b	.L112
 1772              	.LVL260:
 1773              	.L111:
 529:Generated_Source\PSoC4/cy_em_eeprom.c ****                 }
 1774              		.loc 1 529 0
 1775 0102 0137     		adds	r7, r7, #1
 1776              	.LVL261:
 1777              	.L112:
 533:Generated_Source\PSoC4/cy_em_eeprom.c ****                 {
 1778              		.loc 1 533 0
 1779 0104 002F     		cmp	r7, #0
 1780 0106 0BD1     		bne	.L113
 1781              	.LBB14:
 535:Generated_Source\PSoC4/cy_em_eeprom.c **** 
 1782              		.loc 1 535 0
 1783 0108 0B9A     		ldr	r2, [sp, #44]
 1784 010a 0CAB     		add	r3, sp, #48
 1785 010c 9818     		adds	r0, r3, r2
 1786              	.LVL262:
 540:Generated_Source\PSoC4/cy_em_eeprom.c ****                     (void)memcpy((void *)(dataAddr), (void *)(tmpRowAddr), endAddr - startAddr);
 1787              		.loc 1 540 0
 1788 010e 079B     		ldr	r3, [sp, #28]
 1789 0110 9C46     		mov	ip, r3
 1790 0112 6644     		add	r6, r6, ip
 1791              	.LVL263:
 1792 0114 3100     		movs	r1, r6
 1793 0116 0C31     		adds	r1, r1, #12
 1794              	.LVL264:
 541:Generated_Source\PSoC4/cy_em_eeprom.c ****                 }
 1795              		.loc 1 541 0
 1796 0118 0A9B     		ldr	r3, [sp, #40]
 1797 011a 9A1A     		subs	r2, r3, r2
 1798 011c FFF7FEFF 		bl	memcpy
 1799              	.LVL265:
 1800              	.L113:
 1801              	.LBE14:
 545:Generated_Source\PSoC4/cy_em_eeprom.c ****                 {
 1802              		.loc 1 545 0
ARM GAS  C:\Users\Larry\AppData\Local\Temp\ccxlVo0w.s 			page 61


 1803 0120 2B7D     		ldrb	r3, [r5, #20]
 1804 0122 002B     		cmp	r3, #0
 1805 0124 04D0     		beq	.L114
 548:Generated_Source\PSoC4/cy_em_eeprom.c ****                                                   CY_EM_EEPROM_EEPROM_DATA_LEN);
 1806              		.loc 1 548 0
 1807 0126 4021     		movs	r1, #64
 1808 0128 1CA8     		add	r0, sp, #112
 1809 012a FFF7FEFF 		bl	CalcChecksum
 1810              	.LVL266:
 547:Generated_Source\PSoC4/cy_em_eeprom.c ****                         CalcChecksum((uint8 *) &writeRamBuffer[CY_EM_EEPROM_EEPROM_DATA_OFFSET_U32]
 1811              		.loc 1 547 0
 1812 012e 1B90     		str	r0, [sp, #108]
 1813              	.L114:
 494:Generated_Source\PSoC4/cy_em_eeprom.c ****             {
 1814              		.loc 1 494 0
 1815 0130 0134     		adds	r4, r4, #1
 1816              	.LVL267:
 1817              	.L108:
 494:Generated_Source\PSoC4/cy_em_eeprom.c ****             {
 1818              		.loc 1 494 0 is_stmt 0 discriminator 1
 1819 0132 4445     		cmp	r4, r8
 1820 0134 C7D9     		bls	.L115
 554:Generated_Source\PSoC4/cy_em_eeprom.c ****             tmpRowAddr = emEepromRowAddr;
 1821              		.loc 1 554 0 is_stmt 1
 1822 0136 2A00     		movs	r2, r5
 1823 0138 0CA9     		add	r1, sp, #48
 1824 013a 0998     		ldr	r0, [sp, #36]
 1825 013c FFF7FEFF 		bl	WriteRow
 1826              	.LVL268:
 558:Generated_Source\PSoC4/cy_em_eeprom.c ****             {
 1827              		.loc 1 558 0
 1828 0140 2B7D     		ldrb	r3, [r5, #20]
 1829 0142 002B     		cmp	r3, #0
 1830 0144 0BD0     		beq	.L116
 558:Generated_Source\PSoC4/cy_em_eeprom.c ****             {
 1831              		.loc 1 558 0 is_stmt 0 discriminator 1
 1832 0146 0028     		cmp	r0, #0
 1833 0148 09D1     		bne	.L116
 561:Generated_Source\PSoC4/cy_em_eeprom.c **** 
 1834              		.loc 1 561 0 is_stmt 1
 1835 014a 099B     		ldr	r3, [sp, #36]
 1836 014c AA69     		ldr	r2, [r5, #24]
 1837 014e 981A     		subs	r0, r3, r2
 1838              	.LVL269:
 1839 0150 2B68     		ldr	r3, [r5]
 1840 0152 9C46     		mov	ip, r3
 1841 0154 6044     		add	r0, r0, ip
 1842              	.LVL270:
 564:Generated_Source\PSoC4/cy_em_eeprom.c ****             }
 1843              		.loc 1 564 0
 1844 0156 2A00     		movs	r2, r5
 1845 0158 0CA9     		add	r1, sp, #48
 1846 015a FFF7FEFF 		bl	WriteRow
 1847              	.LVL271:
 1848              	.L116:
 567:Generated_Source\PSoC4/cy_em_eeprom.c ****             {
 1849              		.loc 1 567 0
ARM GAS  C:\Users\Larry\AppData\Local\Temp\ccxlVo0w.s 			page 62


 1850 015e 0028     		cmp	r0, #0
 1851 0160 0ED1     		bne	.L102
 572:Generated_Source\PSoC4/cy_em_eeprom.c ****             }
 1852              		.loc 1 572 0 discriminator 2
 1853 0162 099B     		ldr	r3, [sp, #36]
 1854 0164 AB60     		str	r3, [r5, #8]
 1855              	.LBE13:
 435:Generated_Source\PSoC4/cy_em_eeprom.c ****         {
 1856              		.loc 1 435 0 discriminator 2
 1857 0166 0123     		movs	r3, #1
 1858 0168 9C46     		mov	ip, r3
 1859 016a E144     		add	r9, r9, ip
 1860              	.LVL272:
 1861              	.L103:
 435:Generated_Source\PSoC4/cy_em_eeprom.c ****         {
 1862              		.loc 1 435 0 is_stmt 0 discriminator 1
 1863 016c 049B     		ldr	r3, [sp, #16]
 1864 016e 9945     		cmp	r9, r3
 1865 0170 00D2     		bcs	.LCB2097
 1866 0172 6EE7     		b	.L118	@long jump
 1867              	.LCB2097:
 1868 0174 04E0     		b	.L102
 1869              	.LVL273:
 1870              	.L119:
 1871              	.LBE15:
 416:Generated_Source\PSoC4/cy_em_eeprom.c ****     uint32 i;
 1872              		.loc 1 416 0 is_stmt 1
 1873 0176 0120     		movs	r0, #1
 1874              	.LVL274:
 1875 0178 02E0     		b	.L102
 1876              	.LVL275:
 1877              	.L120:
 1878 017a 0120     		movs	r0, #1
 1879              	.LVL276:
 1880 017c 00E0     		b	.L102
 1881              	.LVL277:
 1882              	.L121:
 1883 017e 0120     		movs	r0, #1
 1884              	.LVL278:
 1885              	.L102:
 581:Generated_Source\PSoC4/cy_em_eeprom.c **** 
 1886              		.loc 1 581 0
 1887 0180 2DB0     		add	sp, sp, #180
 1888              		@ sp needed
 1889              	.LVL279:
 1890              	.LVL280:
 1891              	.LVL281:
 1892 0182 3CBC     		pop	{r2, r3, r4, r5}
 1893 0184 9046     		mov	r8, r2
 1894 0186 9946     		mov	r9, r3
 1895 0188 A246     		mov	r10, r4
 1896 018a AB46     		mov	fp, r5
 1897 018c F0BD     		pop	{r4, r5, r6, r7, pc}
 1898              		.cfi_endproc
 1899              	.LFE3:
 1900              		.size	Cy_Em_EEPROM_Write, .-Cy_Em_EEPROM_Write
 1901 018e C046     		.section	.text.Cy_Em_EEPROM_Erase,"ax",%progbits
ARM GAS  C:\Users\Larry\AppData\Local\Temp\ccxlVo0w.s 			page 63


 1902              		.align	2
 1903              		.global	Cy_Em_EEPROM_Erase
 1904              		.code	16
 1905              		.thumb_func
 1906              		.type	Cy_Em_EEPROM_Erase, %function
 1907              	Cy_Em_EEPROM_Erase:
 1908              	.LFB4:
 630:Generated_Source\PSoC4/cy_em_eeprom.c ****     uint32 i;
 1909              		.loc 1 630 0
 1910              		.cfi_startproc
 1911              		@ args = 0, pretend = 0, frame = 136
 1912              		@ frame_needed = 0, uses_anonymous_args = 0
 1913              	.LVL282:
 1914 0000 F0B5     		push	{r4, r5, r6, r7, lr}
 1915              		.cfi_def_cfa_offset 20
 1916              		.cfi_offset 4, -20
 1917              		.cfi_offset 5, -16
 1918              		.cfi_offset 6, -12
 1919              		.cfi_offset 7, -8
 1920              		.cfi_offset 14, -4
 1921 0002 A3B0     		sub	sp, sp, #140
 1922              		.cfi_def_cfa_offset 160
 1923 0004 0600     		movs	r6, r0
 633:Generated_Source\PSoC4/cy_em_eeprom.c ****     uint32 emEepromRowRdAddr;
 1924              		.loc 1 633 0
 1925 0006 8468     		ldr	r4, [r0, #8]
 1926 0008 2194     		str	r4, [sp, #132]
 1927              	.LVL283:
 636:Generated_Source\PSoC4/cy_em_eeprom.c **** #if (CY_PSOC6)
 1928              		.loc 1 636 0
 1929 000a 8022     		movs	r2, #128
 1930 000c 0021     		movs	r1, #0
 1931 000e 6846     		mov	r0, sp
 1932              	.LVL284:
 1933 0010 FFF7FEFF 		bl	memset
 1934              	.LVL285:
 643:Generated_Source\PSoC4/cy_em_eeprom.c **** 
 1935              		.loc 1 643 0
 1936 0014 2368     		ldr	r3, [r4]
 1937              	.LVL286:
 646:Generated_Source\PSoC4/cy_em_eeprom.c ****     {
 1938              		.loc 1 646 0
 1939 0016 002B     		cmp	r3, #0
 1940 0018 20D0     		beq	.L129
 1941              	.LBB16:
 649:Generated_Source\PSoC4/cy_em_eeprom.c **** 
 1942              		.loc 1 649 0
 1943 001a 3769     		ldr	r7, [r6, #16]
 1944 001c 7368     		ldr	r3, [r6, #4]
 1945              	.LVL287:
 1946 001e 5F43     		muls	r7, r3
 1947              	.LVL288:
 656:Generated_Source\PSoC4/cy_em_eeprom.c ****         {
 1948              		.loc 1 656 0
 1949 0020 337D     		ldrb	r3, [r6, #20]
 1950 0022 002B     		cmp	r3, #0
 1951 0024 04D0     		beq	.L126
ARM GAS  C:\Users\Larry\AppData\Local\Temp\ccxlVo0w.s 			page 64


 659:Generated_Source\PSoC4/cy_em_eeprom.c ****                                                   CY_EM_EEPROM_EEPROM_DATA_LEN);
 1952              		.loc 1 659 0
 1953 0026 4021     		movs	r1, #64
 1954 0028 10A8     		add	r0, sp, #64
 1955 002a FFF7FEFF 		bl	CalcChecksum
 1956              	.LVL289:
 658:Generated_Source\PSoC4/cy_em_eeprom.c ****                         CalcChecksum((uint8 *) &writeRamBuffer[CY_EM_EEPROM_EEPROM_DATA_OFFSET_U32]
 1957              		.loc 1 658 0
 1958 002e 0F90     		str	r0, [sp, #60]
 1959              	.L126:
 1960              	.LBE16:
 630:Generated_Source\PSoC4/cy_em_eeprom.c ****     uint32 i;
 1961              		.loc 1 630 0 discriminator 1
 1962 0030 0420     		movs	r0, #4
 1963 0032 0025     		movs	r5, #0
 1964 0034 0FE0     		b	.L127
 1965              	.LVL290:
 1966              	.L128:
 1967              	.LBB17:
 685:Generated_Source\PSoC4/cy_em_eeprom.c ****             /* Get the address of the row to be erased. "emEepromRowAddr" may be updated
 1968              		.loc 1 685 0 discriminator 3
 1969 0036 219B     		ldr	r3, [sp, #132]
 1970 0038 1C68     		ldr	r4, [r3]
 1971              	.LVL291:
 689:Generated_Source\PSoC4/cy_em_eeprom.c ****             seqNum++;
 1972              		.loc 1 689 0 discriminator 3
 1973 003a 3300     		movs	r3, r6
 1974 003c 20AA     		add	r2, sp, #128
 1975 003e 21A9     		add	r1, sp, #132
 1976 0040 2000     		movs	r0, r4
 1977              	.LVL292:
 1978 0042 FFF7FEFF 		bl	GetNextRowToWrite
 1979              	.LVL293:
 690:Generated_Source\PSoC4/cy_em_eeprom.c ****             writeRamBuffer[0u] = seqNum;
 1980              		.loc 1 690 0 discriminator 3
 1981 0046 0134     		adds	r4, r4, #1
 1982              	.LVL294:
 691:Generated_Source\PSoC4/cy_em_eeprom.c ****             ret = EraseRow(emEepromRowAddr, (uint32)writeRamBuffer, context);
 1983              		.loc 1 691 0 discriminator 3
 1984 0048 0094     		str	r4, [sp]
 692:Generated_Source\PSoC4/cy_em_eeprom.c ****         #endif /* (CY_PSOC6) */
 1985              		.loc 1 692 0 discriminator 3
 1986 004a 3200     		movs	r2, r6
 1987 004c 6946     		mov	r1, sp
 1988 004e 2198     		ldr	r0, [sp, #132]
 1989 0050 FFF7FEFF 		bl	EraseRow
 1990              	.LVL295:
 663:Generated_Source\PSoC4/cy_em_eeprom.c ****         {
 1991              		.loc 1 663 0 discriminator 3
 1992 0054 0135     		adds	r5, r5, #1
 1993              	.LVL296:
 1994              	.L127:
 663:Generated_Source\PSoC4/cy_em_eeprom.c ****         {
 1995              		.loc 1 663 0 is_stmt 0 discriminator 1
 1996 0056 BD42     		cmp	r5, r7
 1997 0058 EDD3     		bcc	.L128
 1998 005a 00E0     		b	.L125
ARM GAS  C:\Users\Larry\AppData\Local\Temp\ccxlVo0w.s 			page 65


 1999              	.LVL297:
 2000              	.L129:
 2001              	.LBE17:
 635:Generated_Source\PSoC4/cy_em_eeprom.c ****     uint32 writeRamBuffer[CY_EM_EEPROM_FLASH_SIZEOF_ROW / CY_EM_EEPROM_U32_DIV] = {0u};
 2002              		.loc 1 635 0 is_stmt 1
 2003 005c 0420     		movs	r0, #4
 2004              	.LVL298:
 2005              	.L125:
 716:Generated_Source\PSoC4/cy_em_eeprom.c **** 
 2006              		.loc 1 716 0
 2007 005e 23B0     		add	sp, sp, #140
 2008              		@ sp needed
 2009              	.LVL299:
 2010 0060 F0BD     		pop	{r4, r5, r6, r7, pc}
 2011              		.cfi_endproc
 2012              	.LFE4:
 2013              		.size	Cy_Em_EEPROM_Erase, .-Cy_Em_EEPROM_Erase
 2014 0062 C046     		.section	.text.Cy_Em_EEPROM_NumWrites,"ax",%progbits
 2015              		.align	2
 2016              		.global	Cy_Em_EEPROM_NumWrites
 2017              		.code	16
 2018              		.thumb_func
 2019              		.type	Cy_Em_EEPROM_NumWrites, %function
 2020              	Cy_Em_EEPROM_NumWrites:
 2021              	.LFB5:
 733:Generated_Source\PSoC4/cy_em_eeprom.c ****     return(CY_EM_EEPROM_GET_SEQ_NUM(context->lastWrRowAddr));
 2022              		.loc 1 733 0
 2023              		.cfi_startproc
 2024              		@ args = 0, pretend = 0, frame = 0
 2025              		@ frame_needed = 0, uses_anonymous_args = 0
 2026              		@ link register save eliminated.
 2027              	.LVL300:
 734:Generated_Source\PSoC4/cy_em_eeprom.c **** }
 2028              		.loc 1 734 0
 2029 0000 8368     		ldr	r3, [r0, #8]
 2030 0002 1868     		ldr	r0, [r3]
 2031              	.LVL301:
 735:Generated_Source\PSoC4/cy_em_eeprom.c **** 
 2032              		.loc 1 735 0
 2033              		@ sp needed
 2034 0004 7047     		bx	lr
 2035              		.cfi_endproc
 2036              	.LFE5:
 2037              		.size	Cy_Em_EEPROM_NumWrites, .-Cy_Em_EEPROM_NumWrites
 2038 0006 C046     		.text
 2039              	.Letext0:
 2040              		.file 2 "Generated_Source\\PSoC4\\cytypes.h"
 2041              		.file 3 "Generated_Source\\PSoC4\\cy_em_eeprom.h"
 2042              		.file 4 "Generated_Source\\PSoC4\\CyFlash.h"
 2043              		.section	.debug_info,"",%progbits
 2044              	.Ldebug_info0:
 2045 0000 CB0E0000 		.4byte	0xecb
 2046 0004 0400     		.2byte	0x4
 2047 0006 00000000 		.4byte	.Ldebug_abbrev0
 2048 000a 04       		.byte	0x4
 2049 000b 01       		.uleb128 0x1
 2050 000c 54000000 		.4byte	.LASF103
ARM GAS  C:\Users\Larry\AppData\Local\Temp\ccxlVo0w.s 			page 66


 2051 0010 0C       		.byte	0xc
 2052 0011 49010000 		.4byte	.LASF104
 2053 0015 85040000 		.4byte	.LASF105
 2054 0019 A0000000 		.4byte	.Ldebug_ranges0+0xa0
 2055 001d 00000000 		.4byte	0
 2056 0021 00000000 		.4byte	.Ldebug_line0
 2057 0025 02       		.uleb128 0x2
 2058 0026 01       		.byte	0x1
 2059 0027 06       		.byte	0x6
 2060 0028 21010000 		.4byte	.LASF0
 2061 002c 02       		.uleb128 0x2
 2062 002d 01       		.byte	0x1
 2063 002e 08       		.byte	0x8
 2064 002f 24040000 		.4byte	.LASF1
 2065 0033 02       		.uleb128 0x2
 2066 0034 02       		.byte	0x2
 2067 0035 05       		.byte	0x5
 2068 0036 3A040000 		.4byte	.LASF2
 2069 003a 02       		.uleb128 0x2
 2070 003b 02       		.byte	0x2
 2071 003c 07       		.byte	0x7
 2072 003d 9E020000 		.4byte	.LASF3
 2073 0041 02       		.uleb128 0x2
 2074 0042 04       		.byte	0x4
 2075 0043 05       		.byte	0x5
 2076 0044 9E010000 		.4byte	.LASF4
 2077 0048 02       		.uleb128 0x2
 2078 0049 04       		.byte	0x4
 2079 004a 07       		.byte	0x7
 2080 004b 53020000 		.4byte	.LASF5
 2081 004f 02       		.uleb128 0x2
 2082 0050 08       		.byte	0x8
 2083 0051 05       		.byte	0x5
 2084 0052 13010000 		.4byte	.LASF6
 2085 0056 02       		.uleb128 0x2
 2086 0057 08       		.byte	0x8
 2087 0058 07       		.byte	0x7
 2088 0059 EC000000 		.4byte	.LASF7
 2089 005d 03       		.uleb128 0x3
 2090 005e 04       		.byte	0x4
 2091 005f 05       		.byte	0x5
 2092 0060 696E7400 		.ascii	"int\000"
 2093 0064 02       		.uleb128 0x2
 2094 0065 04       		.byte	0x4
 2095 0066 07       		.byte	0x7
 2096 0067 3D020000 		.4byte	.LASF8
 2097 006b 04       		.uleb128 0x4
 2098 006c C1010000 		.4byte	.LASF9
 2099 0070 02       		.byte	0x2
 2100 0071 E401     		.2byte	0x1e4
 2101 0073 2C000000 		.4byte	0x2c
 2102 0077 04       		.uleb128 0x4
 2103 0078 00000000 		.4byte	.LASF10
 2104 007c 02       		.byte	0x2
 2105 007d E501     		.2byte	0x1e5
 2106 007f 3A000000 		.4byte	0x3a
 2107 0083 04       		.uleb128 0x4
ARM GAS  C:\Users\Larry\AppData\Local\Temp\ccxlVo0w.s 			page 67


 2108 0084 CE010000 		.4byte	.LASF11
 2109 0088 02       		.byte	0x2
 2110 0089 E601     		.2byte	0x1e6
 2111 008b 48000000 		.4byte	0x48
 2112 008f 02       		.uleb128 0x2
 2113 0090 04       		.byte	0x4
 2114 0091 04       		.byte	0x4
 2115 0092 F6030000 		.4byte	.LASF12
 2116 0096 02       		.uleb128 0x2
 2117 0097 08       		.byte	0x8
 2118 0098 04       		.byte	0x4
 2119 0099 C7010000 		.4byte	.LASF13
 2120 009d 02       		.uleb128 0x2
 2121 009e 01       		.byte	0x1
 2122 009f 08       		.byte	0x8
 2123 00a0 FA040000 		.4byte	.LASF14
 2124 00a4 04       		.uleb128 0x4
 2125 00a5 F2050000 		.4byte	.LASF15
 2126 00a9 02       		.byte	0x2
 2127 00aa 8602     		.2byte	0x286
 2128 00ac 48000000 		.4byte	0x48
 2129 00b0 02       		.uleb128 0x2
 2130 00b1 08       		.byte	0x8
 2131 00b2 04       		.byte	0x4
 2132 00b3 6D030000 		.4byte	.LASF16
 2133 00b7 02       		.uleb128 0x2
 2134 00b8 04       		.byte	0x4
 2135 00b9 07       		.byte	0x7
 2136 00ba 64030000 		.4byte	.LASF17
 2137 00be 05       		.uleb128 0x5
 2138 00bf 04       		.byte	0x4
 2139 00c0 06       		.uleb128 0x6
 2140 00c1 10       		.byte	0x10
 2141 00c2 03       		.byte	0x3
 2142 00c3 FB       		.byte	0xfb
 2143 00c4 09010000 		.4byte	0x109
 2144 00c8 07       		.uleb128 0x7
 2145 00c9 08010000 		.4byte	.LASF18
 2146 00cd 03       		.byte	0x3
 2147 00ce FE       		.byte	0xfe
 2148 00cf 83000000 		.4byte	0x83
 2149 00d3 00       		.byte	0
 2150 00d4 08       		.uleb128 0x8
 2151 00d5 6C050000 		.4byte	.LASF19
 2152 00d9 03       		.byte	0x3
 2153 00da 0301     		.2byte	0x103
 2154 00dc 83000000 		.4byte	0x83
 2155 00e0 04       		.byte	0x4
 2156 00e1 08       		.uleb128 0x8
 2157 00e2 26020000 		.4byte	.LASF20
 2158 00e6 03       		.byte	0x3
 2159 00e7 0601     		.2byte	0x106
 2160 00e9 6B000000 		.4byte	0x6b
 2161 00ed 08       		.byte	0x8
 2162 00ee 08       		.uleb128 0x8
 2163 00ef D2050000 		.4byte	.LASF21
 2164 00f3 03       		.byte	0x3
ARM GAS  C:\Users\Larry\AppData\Local\Temp\ccxlVo0w.s 			page 68


 2165 00f4 0B01     		.2byte	0x10b
 2166 00f6 6B000000 		.4byte	0x6b
 2167 00fa 09       		.byte	0x9
 2168 00fb 08       		.uleb128 0x8
 2169 00fc A7010000 		.4byte	.LASF22
 2170 0100 03       		.byte	0x3
 2171 0101 0E01     		.2byte	0x10e
 2172 0103 83000000 		.4byte	0x83
 2173 0107 0C       		.byte	0xc
 2174 0108 00       		.byte	0
 2175 0109 04       		.uleb128 0x4
 2176 010a 4E050000 		.4byte	.LASF23
 2177 010e 03       		.byte	0x3
 2178 010f 0F01     		.2byte	0x10f
 2179 0111 C0000000 		.4byte	0xc0
 2180 0115 09       		.uleb128 0x9
 2181 0116 1C       		.byte	0x1c
 2182 0117 03       		.byte	0x3
 2183 0118 1601     		.2byte	0x116
 2184 011a 87010000 		.4byte	0x187
 2185 011e 08       		.uleb128 0x8
 2186 011f 1A040000 		.4byte	.LASF24
 2187 0123 03       		.byte	0x3
 2188 0124 1B01     		.2byte	0x11b
 2189 0126 83000000 		.4byte	0x83
 2190 012a 00       		.byte	0
 2191 012b 08       		.uleb128 0x8
 2192 012c 47000000 		.4byte	.LASF25
 2193 0130 03       		.byte	0x3
 2194 0131 2001     		.2byte	0x120
 2195 0133 83000000 		.4byte	0x83
 2196 0137 04       		.byte	0x4
 2197 0138 08       		.uleb128 0x8
 2198 0139 33050000 		.4byte	.LASF26
 2199 013d 03       		.byte	0x3
 2200 013e 2301     		.2byte	0x123
 2201 0140 83000000 		.4byte	0x83
 2202 0144 08       		.byte	0x8
 2203 0145 08       		.uleb128 0x8
 2204 0146 08010000 		.4byte	.LASF18
 2205 014a 03       		.byte	0x3
 2206 014b 2601     		.2byte	0x126
 2207 014d 83000000 		.4byte	0x83
 2208 0151 0C       		.byte	0xc
 2209 0152 08       		.uleb128 0x8
 2210 0153 6C050000 		.4byte	.LASF19
 2211 0157 03       		.byte	0x3
 2212 0158 2B01     		.2byte	0x12b
 2213 015a 83000000 		.4byte	0x83
 2214 015e 10       		.byte	0x10
 2215 015f 08       		.uleb128 0x8
 2216 0160 26020000 		.4byte	.LASF20
 2217 0164 03       		.byte	0x3
 2218 0165 2E01     		.2byte	0x12e
 2219 0167 6B000000 		.4byte	0x6b
 2220 016b 14       		.byte	0x14
 2221 016c 08       		.uleb128 0x8
ARM GAS  C:\Users\Larry\AppData\Local\Temp\ccxlVo0w.s 			page 69


 2222 016d D2050000 		.4byte	.LASF21
 2223 0171 03       		.byte	0x3
 2224 0172 3301     		.2byte	0x133
 2225 0174 6B000000 		.4byte	0x6b
 2226 0178 15       		.byte	0x15
 2227 0179 08       		.uleb128 0x8
 2228 017a A7010000 		.4byte	.LASF22
 2229 017e 03       		.byte	0x3
 2230 017f 3601     		.2byte	0x136
 2231 0181 83000000 		.4byte	0x83
 2232 0185 18       		.byte	0x18
 2233 0186 00       		.byte	0
 2234 0187 04       		.uleb128 0x4
 2235 0188 A6030000 		.4byte	.LASF27
 2236 018c 03       		.byte	0x3
 2237 018d 3701     		.2byte	0x137
 2238 018f 15010000 		.4byte	0x115
 2239 0193 0A       		.uleb128 0xa
 2240 0194 01       		.byte	0x1
 2241 0195 2C000000 		.4byte	0x2c
 2242 0199 03       		.byte	0x3
 2243 019a 5401     		.2byte	0x154
 2244 019c BF010000 		.4byte	0x1bf
 2245 01a0 0B       		.uleb128 0xb
 2246 01a1 BD050000 		.4byte	.LASF28
 2247 01a5 00       		.byte	0
 2248 01a6 0B       		.uleb128 0xb
 2249 01a7 33030000 		.4byte	.LASF29
 2250 01ab 01       		.byte	0x1
 2251 01ac 0B       		.uleb128 0xb
 2252 01ad 4A030000 		.4byte	.LASF30
 2253 01b1 02       		.byte	0x2
 2254 01b2 0B       		.uleb128 0xb
 2255 01b3 04040000 		.4byte	.LASF31
 2256 01b7 03       		.byte	0x3
 2257 01b8 0B       		.uleb128 0xb
 2258 01b9 6F010000 		.4byte	.LASF32
 2259 01bd 04       		.byte	0x4
 2260 01be 00       		.byte	0
 2261 01bf 04       		.uleb128 0x4
 2262 01c0 1A000000 		.4byte	.LASF33
 2263 01c4 03       		.byte	0x3
 2264 01c5 5A01     		.2byte	0x15a
 2265 01c7 93010000 		.4byte	0x193
 2266 01cb 0C       		.uleb128 0xc
 2267 01cc 36010000 		.4byte	.LASF40
 2268 01d0 01       		.byte	0x1
 2269 01d1 F602     		.2byte	0x2f6
 2270 01d3 00000000 		.4byte	.LFB6
 2271 01d7 2A000000 		.4byte	.LFE6-.LFB6
 2272 01db 01       		.uleb128 0x1
 2273 01dc 9C       		.byte	0x9c
 2274 01dd 3C020000 		.4byte	0x23c
 2275 01e1 0D       		.uleb128 0xd
 2276 01e2 72020000 		.4byte	.LASF34
 2277 01e6 01       		.byte	0x1
 2278 01e7 F602     		.2byte	0x2f6
ARM GAS  C:\Users\Larry\AppData\Local\Temp\ccxlVo0w.s 			page 70


 2279 01e9 3C020000 		.4byte	0x23c
 2280 01ed 01       		.uleb128 0x1
 2281 01ee 50       		.byte	0x50
 2282 01ef 0D       		.uleb128 0xd
 2283 01f0 2B050000 		.4byte	.LASF35
 2284 01f4 01       		.byte	0x1
 2285 01f5 F602     		.2byte	0x2f6
 2286 01f7 42020000 		.4byte	0x242
 2287 01fb 01       		.uleb128 0x1
 2288 01fc 51       		.byte	0x51
 2289 01fd 0E       		.uleb128 0xe
 2290 01fe 9F030000 		.4byte	.LASF36
 2291 0202 01       		.byte	0x1
 2292 0203 F802     		.2byte	0x2f8
 2293 0205 83000000 		.4byte	0x83
 2294 0209 00000000 		.4byte	.LLST0
 2295 020d 0E       		.uleb128 0xe
 2296 020e 44040000 		.4byte	.LASF37
 2297 0212 01       		.byte	0x1
 2298 0213 F902     		.2byte	0x2f9
 2299 0215 83000000 		.4byte	0x83
 2300 0219 1F000000 		.4byte	.LLST1
 2301 021d 0E       		.uleb128 0xe
 2302 021e 07020000 		.4byte	.LASF38
 2303 0222 01       		.byte	0x1
 2304 0223 FA02     		.2byte	0x2fa
 2305 0225 83000000 		.4byte	0x83
 2306 0229 54000000 		.4byte	.LLST2
 2307 022d 0F       		.uleb128 0xf
 2308 022e 33000000 		.4byte	.LASF39
 2309 0232 01       		.byte	0x1
 2310 0233 FB02     		.2byte	0x2fb
 2311 0235 83000000 		.4byte	0x83
 2312 0239 01       		.uleb128 0x1
 2313 023a 52       		.byte	0x52
 2314 023b 00       		.byte	0
 2315 023c 10       		.uleb128 0x10
 2316 023d 04       		.byte	0x4
 2317 023e 83000000 		.4byte	0x83
 2318 0242 10       		.uleb128 0x10
 2319 0243 04       		.byte	0x4
 2320 0244 87010000 		.4byte	0x187
 2321 0248 11       		.uleb128 0x11
 2322 0249 AA050000 		.4byte	.LASF44
 2323 024d 01       		.byte	0x1
 2324 024e 2203     		.2byte	0x322
 2325 0250 83000000 		.4byte	0x83
 2326 0254 00000000 		.4byte	.LFB7
 2327 0258 1A000000 		.4byte	.LFE7-.LFB7
 2328 025c 01       		.uleb128 0x1
 2329 025d 9C       		.byte	0x9c
 2330 025e 8F020000 		.4byte	0x28f
 2331 0262 12       		.uleb128 0x12
 2332 0263 9F030000 		.4byte	.LASF36
 2333 0267 01       		.byte	0x1
 2334 0268 2203     		.2byte	0x322
 2335 026a 83000000 		.4byte	0x83
ARM GAS  C:\Users\Larry\AppData\Local\Temp\ccxlVo0w.s 			page 71


 2336 026e 73000000 		.4byte	.LLST3
 2337 0272 0D       		.uleb128 0xd
 2338 0273 2B050000 		.4byte	.LASF35
 2339 0277 01       		.byte	0x1
 2340 0278 2203     		.2byte	0x322
 2341 027a 42020000 		.4byte	0x242
 2342 027e 01       		.uleb128 0x1
 2343 027f 51       		.byte	0x51
 2344 0280 0F       		.uleb128 0xf
 2345 0281 33000000 		.4byte	.LASF39
 2346 0285 01       		.byte	0x1
 2347 0286 2403     		.2byte	0x324
 2348 0288 83000000 		.4byte	0x83
 2349 028c 01       		.uleb128 0x1
 2350 028d 53       		.byte	0x53
 2351 028e 00       		.byte	0
 2352 028f 0C       		.uleb128 0xc
 2353 0290 BE030000 		.4byte	.LASF41
 2354 0294 01       		.byte	0x1
 2355 0295 4F03     		.2byte	0x34f
 2356 0297 00000000 		.4byte	.LFB8
 2357 029b 58000000 		.4byte	.LFE8-.LFB8
 2358 029f 01       		.uleb128 0x1
 2359 02a0 9C       		.byte	0x9c
 2360 02a1 E4020000 		.4byte	0x2e4
 2361 02a5 12       		.uleb128 0x12
 2362 02a6 9F030000 		.4byte	.LASF36
 2363 02aa 01       		.byte	0x1
 2364 02ab 4F03     		.2byte	0x34f
 2365 02ad 83000000 		.4byte	0x83
 2366 02b1 94000000 		.4byte	.LLST4
 2367 02b5 12       		.uleb128 0x12
 2368 02b6 07000000 		.4byte	.LASF42
 2369 02ba 01       		.byte	0x1
 2370 02bb 5003     		.2byte	0x350
 2371 02bd 3C020000 		.4byte	0x23c
 2372 02c1 CE000000 		.4byte	.LLST5
 2373 02c5 0D       		.uleb128 0xd
 2374 02c6 C3020000 		.4byte	.LASF43
 2375 02ca 01       		.byte	0x1
 2376 02cb 5103     		.2byte	0x351
 2377 02cd 3C020000 		.4byte	0x23c
 2378 02d1 01       		.uleb128 0x1
 2379 02d2 52       		.byte	0x52
 2380 02d3 12       		.uleb128 0x12
 2381 02d4 2B050000 		.4byte	.LASF35
 2382 02d8 01       		.byte	0x1
 2383 02d9 5203     		.2byte	0x352
 2384 02db 42020000 		.4byte	0x242
 2385 02df 08010000 		.4byte	.LLST6
 2386 02e3 00       		.byte	0
 2387 02e4 11       		.uleb128 0x11
 2388 02e5 FB050000 		.4byte	.LASF45
 2389 02e9 01       		.byte	0x1
 2390 02ea 9B03     		.2byte	0x39b
 2391 02ec 6B000000 		.4byte	0x6b
 2392 02f0 00000000 		.4byte	.LFB9
ARM GAS  C:\Users\Larry\AppData\Local\Temp\ccxlVo0w.s 			page 72


 2393 02f4 3A000000 		.4byte	.LFE9-.LFB9
 2394 02f8 01       		.uleb128 0x1
 2395 02f9 9C       		.byte	0x9c
 2396 02fa 4B030000 		.4byte	0x34b
 2397 02fe 12       		.uleb128 0x12
 2398 02ff 08060000 		.4byte	.LASF46
 2399 0303 01       		.byte	0x1
 2400 0304 9B03     		.2byte	0x39b
 2401 0306 4B030000 		.4byte	0x34b
 2402 030a 42010000 		.4byte	.LLST7
 2403 030e 13       		.uleb128 0x13
 2404 030f 6C656E00 		.ascii	"len\000"
 2405 0313 01       		.byte	0x1
 2406 0314 9B03     		.2byte	0x39b
 2407 0316 83000000 		.4byte	0x83
 2408 031a 01       		.uleb128 0x1
 2409 031b 51       		.byte	0x51
 2410 031c 14       		.uleb128 0x14
 2411 031d 63726300 		.ascii	"crc\000"
 2412 0321 01       		.byte	0x1
 2413 0322 9D03     		.2byte	0x39d
 2414 0324 6B000000 		.4byte	0x6b
 2415 0328 6E010000 		.4byte	.LLST8
 2416 032c 14       		.uleb128 0x14
 2417 032d 6900     		.ascii	"i\000"
 2418 032f 01       		.byte	0x1
 2419 0330 9E03     		.2byte	0x39e
 2420 0332 6B000000 		.4byte	0x6b
 2421 0336 BA010000 		.4byte	.LLST9
 2422 033a 14       		.uleb128 0x14
 2423 033b 636E7400 		.ascii	"cnt\000"
 2424 033f 01       		.byte	0x1
 2425 0340 9F03     		.2byte	0x39f
 2426 0342 77000000 		.4byte	0x77
 2427 0346 E4010000 		.4byte	.LLST10
 2428 034a 00       		.byte	0
 2429 034b 10       		.uleb128 0x10
 2430 034c 04       		.byte	0x4
 2431 034d 6B000000 		.4byte	0x6b
 2432 0351 11       		.uleb128 0x11
 2433 0352 DD030000 		.4byte	.LASF47
 2434 0356 01       		.byte	0x1
 2435 0357 BC03     		.2byte	0x3bc
 2436 0359 BF010000 		.4byte	0x1bf
 2437 035d 00000000 		.4byte	.LFB10
 2438 0361 38000000 		.4byte	.LFE10-.LFB10
 2439 0365 01       		.uleb128 0x1
 2440 0366 9C       		.byte	0x9c
 2441 0367 AA030000 		.4byte	0x3aa
 2442 036b 12       		.uleb128 0x12
 2443 036c FF040000 		.4byte	.LASF48
 2444 0370 01       		.byte	0x1
 2445 0371 BC03     		.2byte	0x3bc
 2446 0373 AA030000 		.4byte	0x3aa
 2447 0377 0E020000 		.4byte	.LLST11
 2448 037b 14       		.uleb128 0x14
 2449 037c 72657400 		.ascii	"ret\000"
ARM GAS  C:\Users\Larry\AppData\Local\Temp\ccxlVo0w.s 			page 73


 2450 0380 01       		.byte	0x1
 2451 0381 BE03     		.2byte	0x3be
 2452 0383 BF010000 		.4byte	0x1bf
 2453 0387 61020000 		.4byte	.LLST12
 2454 038b 0E       		.uleb128 0xe
 2455 038c 15050000 		.4byte	.LASF49
 2456 0390 01       		.byte	0x1
 2457 0391 BF03     		.2byte	0x3bf
 2458 0393 83000000 		.4byte	0x83
 2459 0397 80020000 		.4byte	.LLST13
 2460 039b 0F       		.uleb128 0xf
 2461 039c FC030000 		.4byte	.LASF50
 2462 03a0 01       		.byte	0x1
 2463 03a1 C003     		.2byte	0x3c0
 2464 03a3 83000000 		.4byte	0x83
 2465 03a7 01       		.uleb128 0x1
 2466 03a8 53       		.byte	0x53
 2467 03a9 00       		.byte	0
 2468 03aa 10       		.uleb128 0x10
 2469 03ab 04       		.byte	0x4
 2470 03ac 09010000 		.4byte	0x109
 2471 03b0 11       		.uleb128 0x11
 2472 03b1 65020000 		.4byte	.LASF51
 2473 03b5 01       		.byte	0x1
 2474 03b6 0D05     		.2byte	0x50d
 2475 03b8 83000000 		.4byte	0x83
 2476 03bc 00000000 		.4byte	.LFB14
 2477 03c0 A2000000 		.4byte	.LFE14-.LFB14
 2478 03c4 01       		.uleb128 0x1
 2479 03c5 9C       		.byte	0x9c
 2480 03c6 37040000 		.4byte	0x437
 2481 03ca 12       		.uleb128 0x12
 2482 03cb 15050000 		.4byte	.LASF49
 2483 03cf 01       		.byte	0x1
 2484 03d0 0D05     		.2byte	0x50d
 2485 03d2 3C020000 		.4byte	0x23c
 2486 03d6 A2020000 		.4byte	.LLST14
 2487 03da 0D       		.uleb128 0xd
 2488 03db FC030000 		.4byte	.LASF50
 2489 03df 01       		.byte	0x1
 2490 03e0 0E05     		.2byte	0x50e
 2491 03e2 3C020000 		.4byte	0x23c
 2492 03e6 01       		.uleb128 0x1
 2493 03e7 51       		.byte	0x51
 2494 03e8 12       		.uleb128 0x12
 2495 03e9 24050000 		.4byte	.LASF52
 2496 03ed 01       		.byte	0x1
 2497 03ee 0F05     		.2byte	0x50f
 2498 03f0 3C020000 		.4byte	0x23c
 2499 03f4 F5020000 		.4byte	.LLST15
 2500 03f8 12       		.uleb128 0x12
 2501 03f9 40000000 		.4byte	.LASF53
 2502 03fd 01       		.byte	0x1
 2503 03fe 1005     		.2byte	0x510
 2504 0400 83000000 		.4byte	0x83
 2505 0404 2F030000 		.4byte	.LLST16
 2506 0408 0D       		.uleb128 0xd
ARM GAS  C:\Users\Larry\AppData\Local\Temp\ccxlVo0w.s 			page 74


 2507 0409 03010000 		.4byte	.LASF54
 2508 040d 01       		.byte	0x1
 2509 040e 1105     		.2byte	0x511
 2510 0410 83000000 		.4byte	0x83
 2511 0414 02       		.uleb128 0x2
 2512 0415 91       		.byte	0x91
 2513 0416 00       		.sleb128 0
 2514 0417 13       		.uleb128 0x13
 2515 0418 6C656E00 		.ascii	"len\000"
 2516 041c 01       		.byte	0x1
 2517 041d 1205     		.2byte	0x512
 2518 041f 83000000 		.4byte	0x83
 2519 0423 02       		.uleb128 0x2
 2520 0424 91       		.byte	0x91
 2521 0425 04       		.sleb128 4
 2522 0426 0E       		.uleb128 0xe
 2523 0427 1F050000 		.4byte	.LASF55
 2524 042b 01       		.byte	0x1
 2525 042c 1405     		.2byte	0x514
 2526 042e 83000000 		.4byte	0x83
 2527 0432 9C030000 		.4byte	.LLST17
 2528 0436 00       		.byte	0
 2529 0437 11       		.uleb128 0x11
 2530 0438 2D010000 		.4byte	.LASF56
 2531 043c 01       		.byte	0x1
 2532 043d DF03     		.2byte	0x3df
 2533 043f BF010000 		.4byte	0x1bf
 2534 0443 00000000 		.4byte	.LFB11
 2535 0447 18000000 		.4byte	.LFE11-.LFB11
 2536 044b 01       		.uleb128 0x1
 2537 044c 9C       		.byte	0x9c
 2538 044d CF040000 		.4byte	0x4cf
 2539 0451 12       		.uleb128 0x12
 2540 0452 32040000 		.4byte	.LASF57
 2541 0456 01       		.byte	0x1
 2542 0457 DF03     		.2byte	0x3df
 2543 0459 83000000 		.4byte	0x83
 2544 045d BB030000 		.4byte	.LLST18
 2545 0461 12       		.uleb128 0x12
 2546 0462 08060000 		.4byte	.LASF46
 2547 0466 01       		.byte	0x1
 2548 0467 E003     		.2byte	0x3e0
 2549 0469 3C020000 		.4byte	0x23c
 2550 046d DC030000 		.4byte	.LLST19
 2551 0471 12       		.uleb128 0x12
 2552 0472 2B050000 		.4byte	.LASF35
 2553 0476 01       		.byte	0x1
 2554 0477 E103     		.2byte	0x3e1
 2555 0479 42020000 		.4byte	0x242
 2556 047d FD030000 		.4byte	.LLST20
 2557 0481 14       		.uleb128 0x14
 2558 0482 72657400 		.ascii	"ret\000"
 2559 0486 01       		.byte	0x1
 2560 0487 E303     		.2byte	0x3e3
 2561 0489 BF010000 		.4byte	0x1bf
 2562 048d 1E040000 		.4byte	.LLST21
 2563 0491 14       		.uleb128 0x14
ARM GAS  C:\Users\Larry\AppData\Local\Temp\ccxlVo0w.s 			page 75


 2564 0492 726300   		.ascii	"rc\000"
 2565 0495 01       		.byte	0x1
 2566 0496 E503     		.2byte	0x3e5
 2567 0498 A4000000 		.4byte	0xa4
 2568 049c 3D040000 		.4byte	.LLST22
 2569 04a0 0E       		.uleb128 0xe
 2570 04a1 24030000 		.4byte	.LASF58
 2571 04a5 01       		.byte	0x1
 2572 04a6 E603     		.2byte	0x3e6
 2573 04a8 83000000 		.4byte	0x83
 2574 04ac 5B040000 		.4byte	.LLST23
 2575 04b0 15       		.uleb128 0x15
 2576 04b1 0C000000 		.4byte	.LVL69
 2577 04b5 B10E0000 		.4byte	0xeb1
 2578 04b9 16       		.uleb128 0x16
 2579 04ba 01       		.uleb128 0x1
 2580 04bb 50       		.byte	0x50
 2581 04bc 09       		.uleb128 0x9
 2582 04bd F3       		.byte	0xf3
 2583 04be 01       		.uleb128 0x1
 2584 04bf 50       		.byte	0x50
 2585 04c0 37       		.byte	0x37
 2586 04c1 25       		.byte	0x25
 2587 04c2 47       		.byte	0x47
 2588 04c3 24       		.byte	0x24
 2589 04c4 47       		.byte	0x47
 2590 04c5 25       		.byte	0x25
 2591 04c6 16       		.uleb128 0x16
 2592 04c7 01       		.uleb128 0x1
 2593 04c8 51       		.byte	0x51
 2594 04c9 03       		.uleb128 0x3
 2595 04ca F3       		.byte	0xf3
 2596 04cb 01       		.uleb128 0x1
 2597 04cc 51       		.byte	0x51
 2598 04cd 00       		.byte	0
 2599 04ce 00       		.byte	0
 2600 04cf 11       		.uleb128 0x11
 2601 04d0 D0030000 		.4byte	.LASF59
 2602 04d4 01       		.byte	0x1
 2603 04d5 5405     		.2byte	0x554
 2604 04d7 BF010000 		.4byte	0x1bf
 2605 04db 00000000 		.4byte	.LFB15
 2606 04df 6A000000 		.4byte	.LFE15-.LFB15
 2607 04e3 01       		.uleb128 0x1
 2608 04e4 9C       		.byte	0x9c
 2609 04e5 01060000 		.4byte	0x601
 2610 04e9 12       		.uleb128 0x12
 2611 04ea 2B050000 		.4byte	.LASF35
 2612 04ee 01       		.byte	0x1
 2613 04ef 5405     		.2byte	0x554
 2614 04f1 42020000 		.4byte	0x242
 2615 04f5 82040000 		.4byte	.LLST24
 2616 04f9 14       		.uleb128 0x14
 2617 04fa 6900     		.ascii	"i\000"
 2618 04fc 01       		.byte	0x1
 2619 04fd 5605     		.2byte	0x556
 2620 04ff 83000000 		.4byte	0x83
ARM GAS  C:\Users\Larry\AppData\Local\Temp\ccxlVo0w.s 			page 76


 2621 0503 AE040000 		.4byte	.LLST25
 2622 0507 0F       		.uleb128 0xf
 2623 0508 86050000 		.4byte	.LASF60
 2624 050c 01       		.byte	0x1
 2625 050d 5705     		.2byte	0x557
 2626 050f 83000000 		.4byte	0x83
 2627 0513 02       		.uleb128 0x2
 2628 0514 91       		.byte	0x91
 2629 0515 64       		.sleb128 -28
 2630 0516 0F       		.uleb128 0xf
 2631 0517 D2040000 		.4byte	.LASF61
 2632 051b 01       		.byte	0x1
 2633 051c 5805     		.2byte	0x558
 2634 051e 01060000 		.4byte	0x601
 2635 0522 03       		.uleb128 0x3
 2636 0523 91       		.byte	0x91
 2637 0524 E47E     		.sleb128 -156
 2638 0526 0F       		.uleb128 0xf
 2639 0527 E9030000 		.4byte	.LASF62
 2640 052b 01       		.byte	0x1
 2641 052c 5905     		.2byte	0x559
 2642 052e 83000000 		.4byte	0x83
 2643 0532 03       		.uleb128 0x3
 2644 0533 91       		.byte	0x91
 2645 0534 E07E     		.sleb128 -160
 2646 0536 0E       		.uleb128 0xe
 2647 0537 0F020000 		.4byte	.LASF63
 2648 053b 01       		.byte	0x1
 2649 053c 5A05     		.2byte	0x55a
 2650 053e 83000000 		.4byte	0x83
 2651 0542 CD040000 		.4byte	.LLST26
 2652 0546 0E       		.uleb128 0xe
 2653 0547 9F030000 		.4byte	.LASF36
 2654 054b 01       		.byte	0x1
 2655 054c 5C05     		.2byte	0x55c
 2656 054e 83000000 		.4byte	0x83
 2657 0552 E0040000 		.4byte	.LLST27
 2658 0556 14       		.uleb128 0x14
 2659 0557 72657400 		.ascii	"ret\000"
 2660 055b 01       		.byte	0x1
 2661 055c 5D05     		.2byte	0x55d
 2662 055e BF010000 		.4byte	0x1bf
 2663 0562 F3040000 		.4byte	.LLST28
 2664 0566 17       		.uleb128 0x17
 2665 0567 1E000000 		.4byte	.LVL77
 2666 056b BC0E0000 		.4byte	0xebc
 2667 056f 87050000 		.4byte	0x587
 2668 0573 16       		.uleb128 0x16
 2669 0574 01       		.uleb128 0x1
 2670 0575 50       		.byte	0x50
 2671 0576 03       		.uleb128 0x3
 2672 0577 91       		.byte	0x91
 2673 0578 E47E     		.sleb128 -156
 2674 057a 16       		.uleb128 0x16
 2675 057b 01       		.uleb128 0x1
 2676 057c 51       		.byte	0x51
 2677 057d 02       		.uleb128 0x2
ARM GAS  C:\Users\Larry\AppData\Local\Temp\ccxlVo0w.s 			page 77


 2678 057e 76       		.byte	0x76
 2679 057f 00       		.sleb128 0
 2680 0580 16       		.uleb128 0x16
 2681 0581 01       		.uleb128 0x1
 2682 0582 52       		.byte	0x52
 2683 0583 02       		.uleb128 0x2
 2684 0584 08       		.byte	0x8
 2685 0585 80       		.byte	0x80
 2686 0586 00       		.byte	0
 2687 0587 17       		.uleb128 0x17
 2688 0588 2A000000 		.4byte	.LVL79
 2689 058c E4020000 		.4byte	0x2e4
 2690 0590 A2050000 		.4byte	0x5a2
 2691 0594 16       		.uleb128 0x16
 2692 0595 01       		.uleb128 0x1
 2693 0596 50       		.byte	0x50
 2694 0597 03       		.uleb128 0x3
 2695 0598 91       		.byte	0x91
 2696 0599 A47F     		.sleb128 -92
 2697 059b 16       		.uleb128 0x16
 2698 059c 01       		.uleb128 0x1
 2699 059d 51       		.byte	0x51
 2700 059e 02       		.uleb128 0x2
 2701 059f 08       		.byte	0x8
 2702 05a0 40       		.byte	0x40
 2703 05a1 00       		.byte	0
 2704 05a2 17       		.uleb128 0x17
 2705 05a3 36000000 		.4byte	.LVL80
 2706 05a7 37040000 		.4byte	0x437
 2707 05ab C3050000 		.4byte	0x5c3
 2708 05af 16       		.uleb128 0x16
 2709 05b0 01       		.uleb128 0x1
 2710 05b1 50       		.byte	0x50
 2711 05b2 02       		.uleb128 0x2
 2712 05b3 76       		.byte	0x76
 2713 05b4 00       		.sleb128 0
 2714 05b5 16       		.uleb128 0x16
 2715 05b6 01       		.uleb128 0x1
 2716 05b7 51       		.byte	0x51
 2717 05b8 03       		.uleb128 0x3
 2718 05b9 91       		.byte	0x91
 2719 05ba E47E     		.sleb128 -156
 2720 05bc 16       		.uleb128 0x16
 2721 05bd 01       		.uleb128 0x1
 2722 05be 52       		.byte	0x52
 2723 05bf 02       		.uleb128 0x2
 2724 05c0 74       		.byte	0x74
 2725 05c1 00       		.sleb128 0
 2726 05c2 00       		.byte	0
 2727 05c3 17       		.uleb128 0x17
 2728 05c4 4A000000 		.4byte	.LVL82
 2729 05c8 37040000 		.4byte	0x437
 2730 05cc DE050000 		.4byte	0x5de
 2731 05d0 16       		.uleb128 0x16
 2732 05d1 01       		.uleb128 0x1
 2733 05d2 51       		.byte	0x51
 2734 05d3 03       		.uleb128 0x3
ARM GAS  C:\Users\Larry\AppData\Local\Temp\ccxlVo0w.s 			page 78


 2735 05d4 91       		.byte	0x91
 2736 05d5 E47E     		.sleb128 -156
 2737 05d7 16       		.uleb128 0x16
 2738 05d8 01       		.uleb128 0x1
 2739 05d9 52       		.byte	0x52
 2740 05da 02       		.uleb128 0x2
 2741 05db 74       		.byte	0x74
 2742 05dc 00       		.sleb128 0
 2743 05dd 00       		.byte	0
 2744 05de 15       		.uleb128 0x15
 2745 05df 58000000 		.4byte	.LVL85
 2746 05e3 8F020000 		.4byte	0x28f
 2747 05e7 16       		.uleb128 0x16
 2748 05e8 01       		.uleb128 0x1
 2749 05e9 50       		.byte	0x50
 2750 05ea 02       		.uleb128 0x2
 2751 05eb 75       		.byte	0x75
 2752 05ec 00       		.sleb128 0
 2753 05ed 16       		.uleb128 0x16
 2754 05ee 01       		.uleb128 0x1
 2755 05ef 51       		.byte	0x51
 2756 05f0 02       		.uleb128 0x2
 2757 05f1 7D       		.byte	0x7d
 2758 05f2 00       		.sleb128 0
 2759 05f3 16       		.uleb128 0x16
 2760 05f4 01       		.uleb128 0x1
 2761 05f5 52       		.byte	0x52
 2762 05f6 02       		.uleb128 0x2
 2763 05f7 91       		.byte	0x91
 2764 05f8 64       		.sleb128 -28
 2765 05f9 16       		.uleb128 0x16
 2766 05fa 01       		.uleb128 0x1
 2767 05fb 53       		.byte	0x53
 2768 05fc 02       		.uleb128 0x2
 2769 05fd 74       		.byte	0x74
 2770 05fe 00       		.sleb128 0
 2771 05ff 00       		.byte	0
 2772 0600 00       		.byte	0
 2773 0601 18       		.uleb128 0x18
 2774 0602 83000000 		.4byte	0x83
 2775 0606 11060000 		.4byte	0x611
 2776 060a 19       		.uleb128 0x19
 2777 060b B7000000 		.4byte	0xb7
 2778 060f 1F       		.byte	0x1f
 2779 0610 00       		.byte	0
 2780 0611 11       		.uleb128 0x11
 2781 0612 7F020000 		.4byte	.LASF64
 2782 0616 01       		.byte	0x1
 2783 0617 B904     		.2byte	0x4b9
 2784 0619 BF010000 		.4byte	0x1bf
 2785 061d 00000000 		.4byte	.LFB13
 2786 0621 7A000000 		.4byte	.LFE13-.LFB13
 2787 0625 01       		.uleb128 0x1
 2788 0626 9C       		.byte	0x9c
 2789 0627 76070000 		.4byte	0x776
 2790 062b 12       		.uleb128 0x12
 2791 062c 15050000 		.4byte	.LASF49
ARM GAS  C:\Users\Larry\AppData\Local\Temp\ccxlVo0w.s 			page 79


 2792 0630 01       		.byte	0x1
 2793 0631 B904     		.2byte	0x4b9
 2794 0633 83000000 		.4byte	0x83
 2795 0637 28050000 		.4byte	.LLST29
 2796 063b 12       		.uleb128 0x12
 2797 063c EB020000 		.4byte	.LASF65
 2798 0640 01       		.byte	0x1
 2799 0641 BA04     		.2byte	0x4ba
 2800 0643 83000000 		.4byte	0x83
 2801 0647 54050000 		.4byte	.LLST30
 2802 064b 12       		.uleb128 0x12
 2803 064c E1040000 		.4byte	.LASF66
 2804 0650 01       		.byte	0x1
 2805 0651 BB04     		.2byte	0x4bb
 2806 0653 83000000 		.4byte	0x83
 2807 0657 74050000 		.4byte	.LLST31
 2808 065b 12       		.uleb128 0x12
 2809 065c 4A020000 		.4byte	.LASF67
 2810 0660 01       		.byte	0x1
 2811 0661 BC04     		.2byte	0x4bc
 2812 0663 83000000 		.4byte	0x83
 2813 0667 94050000 		.4byte	.LLST32
 2814 066b 0D       		.uleb128 0xd
 2815 066c 2B050000 		.4byte	.LASF35
 2816 0670 01       		.byte	0x1
 2817 0671 BD04     		.2byte	0x4bd
 2818 0673 42020000 		.4byte	0x242
 2819 0677 02       		.uleb128 0x2
 2820 0678 91       		.byte	0x91
 2821 0679 00       		.sleb128 0
 2822 067a 14       		.uleb128 0x14
 2823 067b 72657400 		.ascii	"ret\000"
 2824 067f 01       		.byte	0x1
 2825 0680 BF04     		.2byte	0x4bf
 2826 0682 BF010000 		.4byte	0x1bf
 2827 0686 B4050000 		.4byte	.LLST33
 2828 068a 0F       		.uleb128 0xf
 2829 068b D2040000 		.4byte	.LASF61
 2830 068f 01       		.byte	0x1
 2831 0690 C004     		.2byte	0x4c0
 2832 0692 01060000 		.4byte	0x601
 2833 0696 03       		.uleb128 0x3
 2834 0697 91       		.byte	0x91
 2835 0698 E87E     		.sleb128 -152
 2836 069a 0E       		.uleb128 0xe
 2837 069b EB040000 		.4byte	.LASF68
 2838 069f 01       		.byte	0x1
 2839 06a0 C304     		.2byte	0x4c3
 2840 06a2 83000000 		.4byte	0x83
 2841 06a6 E9050000 		.4byte	.LLST34
 2842 06aa 17       		.uleb128 0x17
 2843 06ab 22000000 		.4byte	.LVL96
 2844 06af E4020000 		.4byte	0x2e4
 2845 06b3 C5060000 		.4byte	0x6c5
 2846 06b7 16       		.uleb128 0x16
 2847 06b8 01       		.uleb128 0x1
 2848 06b9 50       		.byte	0x50
ARM GAS  C:\Users\Larry\AppData\Local\Temp\ccxlVo0w.s 			page 80


 2849 06ba 03       		.uleb128 0x3
 2850 06bb 76       		.byte	0x76
 2851 06bc C000     		.sleb128 64
 2852 06be 16       		.uleb128 0x16
 2853 06bf 01       		.uleb128 0x1
 2854 06c0 51       		.byte	0x51
 2855 06c1 02       		.uleb128 0x2
 2856 06c2 08       		.byte	0x8
 2857 06c3 40       		.byte	0x40
 2858 06c4 00       		.byte	0
 2859 06c5 17       		.uleb128 0x17
 2860 06c6 32000000 		.4byte	.LVL97
 2861 06ca BC0E0000 		.4byte	0xebc
 2862 06ce EE060000 		.4byte	0x6ee
 2863 06d2 16       		.uleb128 0x16
 2864 06d3 01       		.uleb128 0x1
 2865 06d4 50       		.byte	0x50
 2866 06d5 04       		.uleb128 0x4
 2867 06d6 91       		.byte	0x91
 2868 06d7 DC7E     		.sleb128 -164
 2869 06d9 06       		.byte	0x6
 2870 06da 16       		.uleb128 0x16
 2871 06db 01       		.uleb128 0x1
 2872 06dc 51       		.byte	0x51
 2873 06dd 07       		.uleb128 0x7
 2874 06de 76       		.byte	0x76
 2875 06df 00       		.sleb128 0
 2876 06e0 91       		.byte	0x91
 2877 06e1 E07E     		.sleb128 -160
 2878 06e3 06       		.byte	0x6
 2879 06e4 22       		.byte	0x22
 2880 06e5 16       		.uleb128 0x16
 2881 06e6 01       		.uleb128 0x1
 2882 06e7 52       		.byte	0x52
 2883 06e8 04       		.uleb128 0x4
 2884 06e9 91       		.byte	0x91
 2885 06ea E47E     		.sleb128 -156
 2886 06ec 06       		.byte	0x6
 2887 06ed 00       		.byte	0
 2888 06ee 17       		.uleb128 0x17
 2889 06ef 42000000 		.4byte	.LVL100
 2890 06f3 E4020000 		.4byte	0x2e4
 2891 06f7 09070000 		.4byte	0x709
 2892 06fb 16       		.uleb128 0x16
 2893 06fc 01       		.uleb128 0x1
 2894 06fd 50       		.byte	0x50
 2895 06fe 03       		.uleb128 0x3
 2896 06ff 74       		.byte	0x74
 2897 0700 C000     		.sleb128 64
 2898 0702 16       		.uleb128 0x16
 2899 0703 01       		.uleb128 0x1
 2900 0704 51       		.byte	0x51
 2901 0705 02       		.uleb128 0x2
 2902 0706 08       		.byte	0x8
 2903 0707 40       		.byte	0x40
 2904 0708 00       		.byte	0
 2905 0709 17       		.uleb128 0x17
ARM GAS  C:\Users\Larry\AppData\Local\Temp\ccxlVo0w.s 			page 81


 2906 070a 50000000 		.4byte	.LVL101
 2907 070e BC0E0000 		.4byte	0xebc
 2908 0712 2A070000 		.4byte	0x72a
 2909 0716 16       		.uleb128 0x16
 2910 0717 01       		.uleb128 0x1
 2911 0718 50       		.byte	0x50
 2912 0719 03       		.uleb128 0x3
 2913 071a 91       		.byte	0x91
 2914 071b E87E     		.sleb128 -152
 2915 071d 16       		.uleb128 0x16
 2916 071e 01       		.uleb128 0x1
 2917 071f 51       		.byte	0x51
 2918 0720 02       		.uleb128 0x2
 2919 0721 74       		.byte	0x74
 2920 0722 00       		.sleb128 0
 2921 0723 16       		.uleb128 0x16
 2922 0724 01       		.uleb128 0x1
 2923 0725 52       		.byte	0x52
 2924 0726 02       		.uleb128 0x2
 2925 0727 08       		.byte	0x8
 2926 0728 80       		.byte	0x80
 2927 0729 00       		.byte	0
 2928 072a 17       		.uleb128 0x17
 2929 072b 5A000000 		.4byte	.LVL102
 2930 072f 37040000 		.4byte	0x437
 2931 0733 4B070000 		.4byte	0x74b
 2932 0737 16       		.uleb128 0x16
 2933 0738 01       		.uleb128 0x1
 2934 0739 50       		.byte	0x50
 2935 073a 02       		.uleb128 0x2
 2936 073b 76       		.byte	0x76
 2937 073c 00       		.sleb128 0
 2938 073d 16       		.uleb128 0x16
 2939 073e 01       		.uleb128 0x1
 2940 073f 51       		.byte	0x51
 2941 0740 03       		.uleb128 0x3
 2942 0741 91       		.byte	0x91
 2943 0742 E87E     		.sleb128 -152
 2944 0744 16       		.uleb128 0x16
 2945 0745 01       		.uleb128 0x1
 2946 0746 52       		.byte	0x52
 2947 0747 02       		.uleb128 0x2
 2948 0748 77       		.byte	0x77
 2949 0749 00       		.sleb128 0
 2950 074a 00       		.byte	0
 2951 074b 15       		.uleb128 0x15
 2952 074c 70000000 		.4byte	.LVL105
 2953 0750 BC0E0000 		.4byte	0xebc
 2954 0754 16       		.uleb128 0x16
 2955 0755 01       		.uleb128 0x1
 2956 0756 50       		.byte	0x50
 2957 0757 04       		.uleb128 0x4
 2958 0758 91       		.byte	0x91
 2959 0759 DC7E     		.sleb128 -164
 2960 075b 06       		.byte	0x6
 2961 075c 16       		.uleb128 0x16
 2962 075d 01       		.uleb128 0x1
ARM GAS  C:\Users\Larry\AppData\Local\Temp\ccxlVo0w.s 			page 82


 2963 075e 51       		.byte	0x51
 2964 075f 0C       		.uleb128 0xc
 2965 0760 91       		.byte	0x91
 2966 0761 E07E     		.sleb128 -160
 2967 0763 06       		.byte	0x6
 2968 0764 32       		.byte	0x32
 2969 0765 24       		.byte	0x24
 2970 0766 91       		.byte	0x91
 2971 0767 00       		.sleb128 0
 2972 0768 22       		.byte	0x22
 2973 0769 08       		.byte	0x8
 2974 076a 98       		.byte	0x98
 2975 076b 1C       		.byte	0x1c
 2976 076c 16       		.uleb128 0x16
 2977 076d 01       		.uleb128 0x1
 2978 076e 52       		.byte	0x52
 2979 076f 04       		.uleb128 0x4
 2980 0770 91       		.byte	0x91
 2981 0771 E47E     		.sleb128 -156
 2982 0773 06       		.byte	0x6
 2983 0774 00       		.byte	0
 2984 0775 00       		.byte	0
 2985 0776 11       		.uleb128 0x11
 2986 0777 2A030000 		.4byte	.LASF69
 2987 077b 01       		.byte	0x1
 2988 077c 4504     		.2byte	0x445
 2989 077e BF010000 		.4byte	0x1bf
 2990 0782 00000000 		.4byte	.LFB12
 2991 0786 30000000 		.4byte	.LFE12-.LFB12
 2992 078a 01       		.uleb128 0x1
 2993 078b 9C       		.byte	0x9c
 2994 078c 17080000 		.4byte	0x817
 2995 0790 12       		.uleb128 0x12
 2996 0791 32040000 		.4byte	.LASF57
 2997 0795 01       		.byte	0x1
 2998 0796 4504     		.2byte	0x445
 2999 0798 83000000 		.4byte	0x83
 3000 079c 12060000 		.4byte	.LLST35
 3001 07a0 12       		.uleb128 0x12
 3002 07a1 1A020000 		.4byte	.LASF70
 3003 07a5 01       		.byte	0x1
 3004 07a6 4604     		.2byte	0x446
 3005 07a8 83000000 		.4byte	0x83
 3006 07ac 3E060000 		.4byte	.LLST36
 3007 07b0 12       		.uleb128 0x12
 3008 07b1 2B050000 		.4byte	.LASF35
 3009 07b5 01       		.byte	0x1
 3010 07b6 4704     		.2byte	0x447
 3011 07b8 42020000 		.4byte	0x242
 3012 07bc 6A060000 		.4byte	.LLST37
 3013 07c0 0E       		.uleb128 0xe
 3014 07c1 30060000 		.4byte	.LASF71
 3015 07c5 01       		.byte	0x1
 3016 07c6 4904     		.2byte	0x449
 3017 07c8 83000000 		.4byte	0x83
 3018 07cc 96060000 		.4byte	.LLST38
 3019 07d0 14       		.uleb128 0x14
ARM GAS  C:\Users\Larry\AppData\Local\Temp\ccxlVo0w.s 			page 83


 3020 07d1 72657400 		.ascii	"ret\000"
 3021 07d5 01       		.byte	0x1
 3022 07d6 4A04     		.2byte	0x44a
 3023 07d8 BF010000 		.4byte	0x1bf
 3024 07dc BF060000 		.4byte	.LLST39
 3025 07e0 17       		.uleb128 0x17
 3026 07e1 0C000000 		.4byte	.LVL112
 3027 07e5 37040000 		.4byte	0x437
 3028 07e9 00080000 		.4byte	0x800
 3029 07ed 16       		.uleb128 0x16
 3030 07ee 01       		.uleb128 0x1
 3031 07ef 50       		.byte	0x50
 3032 07f0 02       		.uleb128 0x2
 3033 07f1 74       		.byte	0x74
 3034 07f2 00       		.sleb128 0
 3035 07f3 16       		.uleb128 0x16
 3036 07f4 01       		.uleb128 0x1
 3037 07f5 51       		.byte	0x51
 3038 07f6 02       		.uleb128 0x2
 3039 07f7 75       		.byte	0x75
 3040 07f8 00       		.sleb128 0
 3041 07f9 16       		.uleb128 0x16
 3042 07fa 01       		.uleb128 0x1
 3043 07fb 52       		.byte	0x52
 3044 07fc 02       		.uleb128 0x2
 3045 07fd 76       		.byte	0x76
 3046 07fe 00       		.sleb128 0
 3047 07ff 00       		.byte	0
 3048 0800 15       		.uleb128 0x15
 3049 0801 28000000 		.4byte	.LVL115
 3050 0805 37040000 		.4byte	0x437
 3051 0809 16       		.uleb128 0x16
 3052 080a 01       		.uleb128 0x1
 3053 080b 51       		.byte	0x51
 3054 080c 02       		.uleb128 0x2
 3055 080d 75       		.byte	0x75
 3056 080e 00       		.sleb128 0
 3057 080f 16       		.uleb128 0x16
 3058 0810 01       		.uleb128 0x1
 3059 0811 52       		.byte	0x52
 3060 0812 02       		.uleb128 0x2
 3061 0813 76       		.byte	0x76
 3062 0814 00       		.sleb128 0
 3063 0815 00       		.byte	0
 3064 0816 00       		.byte	0
 3065 0817 1A       		.uleb128 0x1a
 3066 0818 73040000 		.4byte	.LASF72
 3067 081c 01       		.byte	0x1
 3068 081d 5F       		.byte	0x5f
 3069 081e BF010000 		.4byte	0x1bf
 3070 0822 00000000 		.4byte	.LFB1
 3071 0826 96000000 		.4byte	.LFE1-.LFB1
 3072 082a 01       		.uleb128 0x1
 3073 082b 9C       		.byte	0x9c
 3074 082c B6080000 		.4byte	0x8b6
 3075 0830 1B       		.uleb128 0x1b
 3076 0831 FF040000 		.4byte	.LASF48
ARM GAS  C:\Users\Larry\AppData\Local\Temp\ccxlVo0w.s 			page 84


 3077 0835 01       		.byte	0x1
 3078 0836 5F       		.byte	0x5f
 3079 0837 AA030000 		.4byte	0x3aa
 3080 083b E9060000 		.4byte	.LLST40
 3081 083f 1B       		.uleb128 0x1b
 3082 0840 2B050000 		.4byte	.LASF35
 3083 0844 01       		.byte	0x1
 3084 0845 5F       		.byte	0x5f
 3085 0846 42020000 		.4byte	0x242
 3086 084a 2E070000 		.4byte	.LLST41
 3087 084e 1C       		.uleb128 0x1c
 3088 084f 72657400 		.ascii	"ret\000"
 3089 0853 01       		.byte	0x1
 3090 0854 61       		.byte	0x61
 3091 0855 BF010000 		.4byte	0x1bf
 3092 0859 70070000 		.4byte	.LLST42
 3093 085d 17       		.uleb128 0x17
 3094 085e 22000000 		.4byte	.LVL121
 3095 0862 51030000 		.4byte	0x351
 3096 0866 71080000 		.4byte	0x871
 3097 086a 16       		.uleb128 0x16
 3098 086b 01       		.uleb128 0x1
 3099 086c 50       		.byte	0x50
 3100 086d 02       		.uleb128 0x2
 3101 086e 74       		.byte	0x74
 3102 086f 00       		.sleb128 0
 3103 0870 00       		.byte	0
 3104 0871 17       		.uleb128 0x17
 3105 0872 60000000 		.4byte	.LVL125
 3106 0876 CB010000 		.4byte	0x1cb
 3107 087a 8B080000 		.4byte	0x88b
 3108 087e 16       		.uleb128 0x16
 3109 087f 01       		.uleb128 0x1
 3110 0880 50       		.byte	0x50
 3111 0881 02       		.uleb128 0x2
 3112 0882 74       		.byte	0x74
 3113 0883 00       		.sleb128 0
 3114 0884 16       		.uleb128 0x16
 3115 0885 01       		.uleb128 0x1
 3116 0886 51       		.byte	0x51
 3117 0887 02       		.uleb128 0x2
 3118 0888 75       		.byte	0x75
 3119 0889 00       		.sleb128 0
 3120 088a 00       		.byte	0
 3121 088b 17       		.uleb128 0x17
 3122 088c 74000000 		.4byte	.LVL126
 3123 0890 CF040000 		.4byte	0x4cf
 3124 0894 9F080000 		.4byte	0x89f
 3125 0898 16       		.uleb128 0x16
 3126 0899 01       		.uleb128 0x1
 3127 089a 50       		.byte	0x50
 3128 089b 02       		.uleb128 0x2
 3129 089c 75       		.byte	0x75
 3130 089d 00       		.sleb128 0
 3131 089e 00       		.byte	0
 3132 089f 15       		.uleb128 0x15
 3133 08a0 7E000000 		.4byte	.LVL129
ARM GAS  C:\Users\Larry\AppData\Local\Temp\ccxlVo0w.s 			page 85


 3134 08a4 CB010000 		.4byte	0x1cb
 3135 08a8 16       		.uleb128 0x16
 3136 08a9 01       		.uleb128 0x1
 3137 08aa 50       		.byte	0x50
 3138 08ab 02       		.uleb128 0x2
 3139 08ac 74       		.byte	0x74
 3140 08ad 00       		.sleb128 0
 3141 08ae 16       		.uleb128 0x16
 3142 08af 01       		.uleb128 0x1
 3143 08b0 51       		.byte	0x51
 3144 08b1 02       		.uleb128 0x2
 3145 08b2 75       		.byte	0x75
 3146 08b3 00       		.sleb128 0
 3147 08b4 00       		.byte	0
 3148 08b5 00       		.byte	0
 3149 08b6 1D       		.uleb128 0x1d
 3150 08b7 12030000 		.4byte	.LASF73
 3151 08bb 01       		.byte	0x1
 3152 08bc A9       		.byte	0xa9
 3153 08bd BF010000 		.4byte	0x1bf
 3154 08c1 00000000 		.4byte	.LFB2
 3155 08c5 2E020000 		.4byte	.LFE2-.LFB2
 3156 08c9 01       		.uleb128 0x1
 3157 08ca 9C       		.byte	0x9c
 3158 08cb DA0A0000 		.4byte	0xada
 3159 08cf 1B       		.uleb128 0x1b
 3160 08d0 03010000 		.4byte	.LASF54
 3161 08d4 01       		.byte	0x1
 3162 08d5 A9       		.byte	0xa9
 3163 08d6 83000000 		.4byte	0x83
 3164 08da C7070000 		.4byte	.LLST43
 3165 08de 1B       		.uleb128 0x1b
 3166 08df E0020000 		.4byte	.LASF74
 3167 08e3 01       		.byte	0x1
 3168 08e4 AA       		.byte	0xaa
 3169 08e5 BE000000 		.4byte	0xbe
 3170 08e9 36080000 		.4byte	.LLST44
 3171 08ed 1B       		.uleb128 0x1b
 3172 08ee 99020000 		.4byte	.LASF75
 3173 08f2 01       		.byte	0x1
 3174 08f3 AB       		.byte	0xab
 3175 08f4 83000000 		.4byte	0x83
 3176 08f8 78080000 		.4byte	.LLST45
 3177 08fc 1B       		.uleb128 0x1b
 3178 08fd 2B050000 		.4byte	.LASF35
 3179 0901 01       		.byte	0x1
 3180 0902 AC       		.byte	0xac
 3181 0903 42020000 		.4byte	0x242
 3182 0907 E1080000 		.4byte	.LLST46
 3183 090b 1C       		.uleb128 0x1c
 3184 090c 72657400 		.ascii	"ret\000"
 3185 0910 01       		.byte	0x1
 3186 0911 AE       		.byte	0xae
 3187 0912 BF010000 		.4byte	0x1bf
 3188 0916 51090000 		.4byte	.LLST47
 3189 091a 1C       		.uleb128 0x1c
 3190 091b 6900     		.ascii	"i\000"
ARM GAS  C:\Users\Larry\AppData\Local\Temp\ccxlVo0w.s 			page 86


 3191 091d 01       		.byte	0x1
 3192 091e AF       		.byte	0xaf
 3193 091f 83000000 		.4byte	0x83
 3194 0923 CA090000 		.4byte	.LLST48
 3195 0927 1E       		.uleb128 0x1e
 3196 0928 06050000 		.4byte	.LASF76
 3197 092c 01       		.byte	0x1
 3198 092d B0       		.byte	0xb0
 3199 092e 83000000 		.4byte	0x83
 3200 0932 2E0A0000 		.4byte	.LLST49
 3201 0936 1E       		.uleb128 0x1e
 3202 0937 00030000 		.4byte	.LASF77
 3203 093b 01       		.byte	0x1
 3204 093c B1       		.byte	0xb1
 3205 093d 83000000 		.4byte	0x83
 3206 0941 620A0000 		.4byte	.LLST50
 3207 0945 1E       		.uleb128 0x1e
 3208 0946 41050000 		.4byte	.LASF78
 3209 094a 01       		.byte	0x1
 3210 094b B2       		.byte	0xb2
 3211 094c 83000000 		.4byte	0x83
 3212 0950 820A0000 		.4byte	.LLST51
 3213 0954 1E       		.uleb128 0x1e
 3214 0955 F3020000 		.4byte	.LASF79
 3215 0959 01       		.byte	0x1
 3216 095a B3       		.byte	0xb3
 3217 095b 83000000 		.4byte	0x83
 3218 095f C40A0000 		.4byte	.LLST52
 3219 0963 1E       		.uleb128 0x1e
 3220 0964 D5010000 		.4byte	.LASF80
 3221 0968 01       		.byte	0x1
 3222 0969 B4       		.byte	0xb4
 3223 096a 83000000 		.4byte	0x83
 3224 096e 320B0000 		.4byte	.LLST53
 3225 0972 1E       		.uleb128 0x1e
 3226 0973 E0050000 		.4byte	.LASF81
 3227 0977 01       		.byte	0x1
 3228 0978 B5       		.byte	0xb5
 3229 0979 83000000 		.4byte	0x83
 3230 097d 510B0000 		.4byte	.LLST54
 3231 0981 1E       		.uleb128 0x1e
 3232 0982 5D040000 		.4byte	.LASF82
 3233 0986 01       		.byte	0x1
 3234 0987 B6       		.byte	0xb6
 3235 0988 83000000 		.4byte	0x83
 3236 098c 7C0B0000 		.4byte	.LLST55
 3237 0990 1E       		.uleb128 0x1e
 3238 0991 40060000 		.4byte	.LASF83
 3239 0995 01       		.byte	0x1
 3240 0996 B7       		.byte	0xb7
 3241 0997 83000000 		.4byte	0x83
 3242 099b A70B0000 		.4byte	.LLST56
 3243 099f 1F       		.uleb128 0x1f
 3244 09a0 00000000 		.4byte	.Ldebug_ranges0+0
 3245 09a4 1E       		.uleb128 0x1e
 3246 09a5 86050000 		.4byte	.LASF60
 3247 09a9 01       		.byte	0x1
ARM GAS  C:\Users\Larry\AppData\Local\Temp\ccxlVo0w.s 			page 87


 3248 09aa BC       		.byte	0xbc
 3249 09ab 83000000 		.4byte	0x83
 3250 09af FE0B0000 		.4byte	.LLST57
 3251 09b3 1E       		.uleb128 0x1e
 3252 09b4 65050000 		.4byte	.LASF84
 3253 09b8 01       		.byte	0x1
 3254 09b9 BD       		.byte	0xbd
 3255 09ba 83000000 		.4byte	0x83
 3256 09be 530C0000 		.4byte	.LLST58
 3257 09c2 1E       		.uleb128 0x1e
 3258 09c3 9F030000 		.4byte	.LASF36
 3259 09c7 01       		.byte	0x1
 3260 09c8 BF       		.byte	0xbf
 3261 09c9 83000000 		.4byte	0x83
 3262 09cd 870C0000 		.4byte	.LLST59
 3263 09d1 1E       		.uleb128 0x1e
 3264 09d2 F8010000 		.4byte	.LASF85
 3265 09d6 01       		.byte	0x1
 3266 09d7 C0       		.byte	0xc0
 3267 09d8 83000000 		.4byte	0x83
 3268 09dc B20C0000 		.4byte	.LLST60
 3269 09e0 1E       		.uleb128 0x1e
 3270 09e1 24060000 		.4byte	.LASF86
 3271 09e5 01       		.byte	0x1
 3272 09e6 C5       		.byte	0xc5
 3273 09e7 83000000 		.4byte	0x83
 3274 09eb D20C0000 		.4byte	.LLST61
 3275 09ef 20       		.uleb128 0x20
 3276 09f0 28000000 		.4byte	.Ldebug_ranges0+0x28
 3277 09f4 080A0000 		.4byte	0xa08
 3278 09f8 1E       		.uleb128 0x1e
 3279 09f9 10060000 		.4byte	.LASF87
 3280 09fd 01       		.byte	0x1
 3281 09fe E2       		.byte	0xe2
 3282 09ff 83000000 		.4byte	0x83
 3283 0a03 FB0C0000 		.4byte	.LLST62
 3284 0a07 00       		.byte	0
 3285 0a08 20       		.uleb128 0x20
 3286 0a09 40000000 		.4byte	.Ldebug_ranges0+0x40
 3287 0a0d 850A0000 		.4byte	0xa85
 3288 0a11 0E       		.uleb128 0xe
 3289 0a12 15050000 		.4byte	.LASF49
 3290 0a16 01       		.byte	0x1
 3291 0a17 3B01     		.2byte	0x13b
 3292 0a19 83000000 		.4byte	0x83
 3293 0a1d 5A0D0000 		.4byte	.LLST63
 3294 0a21 0E       		.uleb128 0xe
 3295 0a22 FC030000 		.4byte	.LASF50
 3296 0a26 01       		.byte	0x1
 3297 0a27 3C01     		.2byte	0x13c
 3298 0a29 83000000 		.4byte	0x83
 3299 0a2d 850D0000 		.4byte	.LLST64
 3300 0a31 1F       		.uleb128 0x1f
 3301 0a32 58000000 		.4byte	.Ldebug_ranges0+0x58
 3302 0a36 0E       		.uleb128 0xe
 3303 0a37 8F020000 		.4byte	.LASF88
 3304 0a3b 01       		.byte	0x1
ARM GAS  C:\Users\Larry\AppData\Local\Temp\ccxlVo0w.s 			page 88


 3305 0a3c 4101     		.2byte	0x141
 3306 0a3e 83000000 		.4byte	0x83
 3307 0a42 BC0D0000 		.4byte	.LLST65
 3308 0a46 0E       		.uleb128 0xe
 3309 0a47 8D050000 		.4byte	.LASF89
 3310 0a4b 01       		.byte	0x1
 3311 0a4c 4201     		.2byte	0x142
 3312 0a4e 83000000 		.4byte	0x83
 3313 0a52 DA0D0000 		.4byte	.LLST66
 3314 0a56 17       		.uleb128 0x17
 3315 0a57 F4010000 		.4byte	.LVL214
 3316 0a5b 11060000 		.4byte	0x611
 3317 0a5f 730A0000 		.4byte	0xa73
 3318 0a63 16       		.uleb128 0x16
 3319 0a64 01       		.uleb128 0x1
 3320 0a65 51       		.byte	0x51
 3321 0a66 02       		.uleb128 0x2
 3322 0a67 76       		.byte	0x76
 3323 0a68 00       		.sleb128 0
 3324 0a69 16       		.uleb128 0x16
 3325 0a6a 02       		.uleb128 0x2
 3326 0a6b 7D       		.byte	0x7d
 3327 0a6c 00       		.sleb128 0
 3328 0a6d 04       		.uleb128 0x4
 3329 0a6e 91       		.byte	0x91
 3330 0a6f BC7F     		.sleb128 -68
 3331 0a71 06       		.byte	0x6
 3332 0a72 00       		.byte	0
 3333 0a73 15       		.uleb128 0x15
 3334 0a74 06020000 		.4byte	.LVL219
 3335 0a78 BC0E0000 		.4byte	0xebc
 3336 0a7c 16       		.uleb128 0x16
 3337 0a7d 01       		.uleb128 0x1
 3338 0a7e 50       		.byte	0x50
 3339 0a7f 02       		.uleb128 0x2
 3340 0a80 76       		.byte	0x76
 3341 0a81 00       		.sleb128 0
 3342 0a82 00       		.byte	0
 3343 0a83 00       		.byte	0
 3344 0a84 00       		.byte	0
 3345 0a85 17       		.uleb128 0x17
 3346 0a86 2E010000 		.4byte	.LVL178
 3347 0a8a 11060000 		.4byte	0x611
 3348 0a8e A60A0000 		.4byte	0xaa6
 3349 0a92 16       		.uleb128 0x16
 3350 0a93 01       		.uleb128 0x1
 3351 0a94 51       		.byte	0x51
 3352 0a95 02       		.uleb128 0x2
 3353 0a96 78       		.byte	0x78
 3354 0a97 00       		.sleb128 0
 3355 0a98 16       		.uleb128 0x16
 3356 0a99 01       		.uleb128 0x1
 3357 0a9a 53       		.byte	0x53
 3358 0a9b 02       		.uleb128 0x2
 3359 0a9c 74       		.byte	0x74
 3360 0a9d 00       		.sleb128 0
 3361 0a9e 16       		.uleb128 0x16
ARM GAS  C:\Users\Larry\AppData\Local\Temp\ccxlVo0w.s 			page 89


 3362 0a9f 02       		.uleb128 0x2
 3363 0aa0 7D       		.byte	0x7d
 3364 0aa1 00       		.sleb128 0
 3365 0aa2 02       		.uleb128 0x2
 3366 0aa3 79       		.byte	0x79
 3367 0aa4 00       		.sleb128 0
 3368 0aa5 00       		.byte	0
 3369 0aa6 17       		.uleb128 0x17
 3370 0aa7 46010000 		.4byte	.LVL185
 3371 0aab BC0E0000 		.4byte	0xebc
 3372 0aaf C00A0000 		.4byte	0xac0
 3373 0ab3 16       		.uleb128 0x16
 3374 0ab4 01       		.uleb128 0x1
 3375 0ab5 50       		.byte	0x50
 3376 0ab6 02       		.uleb128 0x2
 3377 0ab7 78       		.byte	0x78
 3378 0ab8 00       		.sleb128 0
 3379 0ab9 16       		.uleb128 0x16
 3380 0aba 01       		.uleb128 0x1
 3381 0abb 52       		.byte	0x52
 3382 0abc 02       		.uleb128 0x2
 3383 0abd 74       		.byte	0x74
 3384 0abe 00       		.sleb128 0
 3385 0abf 00       		.byte	0
 3386 0ac0 15       		.uleb128 0x15
 3387 0ac1 90010000 		.4byte	.LVL201
 3388 0ac5 48020000 		.4byte	0x248
 3389 0ac9 16       		.uleb128 0x16
 3390 0aca 01       		.uleb128 0x1
 3391 0acb 50       		.byte	0x50
 3392 0acc 02       		.uleb128 0x2
 3393 0acd 74       		.byte	0x74
 3394 0ace 00       		.sleb128 0
 3395 0acf 16       		.uleb128 0x16
 3396 0ad0 01       		.uleb128 0x1
 3397 0ad1 51       		.byte	0x51
 3398 0ad2 04       		.uleb128 0x4
 3399 0ad3 91       		.byte	0x91
 3400 0ad4 BC7F     		.sleb128 -68
 3401 0ad6 06       		.byte	0x6
 3402 0ad7 00       		.byte	0
 3403 0ad8 00       		.byte	0
 3404 0ad9 00       		.byte	0
 3405 0ada 21       		.uleb128 0x21
 3406 0adb 8C030000 		.4byte	.LASF90
 3407 0adf 01       		.byte	0x1
 3408 0ae0 9B01     		.2byte	0x19b
 3409 0ae2 BF010000 		.4byte	0x1bf
 3410 0ae6 00000000 		.4byte	.LFB3
 3411 0aea 8E010000 		.4byte	.LFE3-.LFB3
 3412 0aee 01       		.uleb128 0x1
 3413 0aef 9C       		.byte	0x9c
 3414 0af0 730D0000 		.4byte	0xd73
 3415 0af4 12       		.uleb128 0x12
 3416 0af5 03010000 		.4byte	.LASF54
 3417 0af9 01       		.byte	0x1
 3418 0afa 9B01     		.2byte	0x19b
ARM GAS  C:\Users\Larry\AppData\Local\Temp\ccxlVo0w.s 			page 90


 3419 0afc 83000000 		.4byte	0x83
 3420 0b00 F80D0000 		.4byte	.LLST67
 3421 0b04 12       		.uleb128 0x12
 3422 0b05 E0020000 		.4byte	.LASF74
 3423 0b09 01       		.byte	0x1
 3424 0b0a 9C01     		.2byte	0x19c
 3425 0b0c BE000000 		.4byte	0xbe
 3426 0b10 580E0000 		.4byte	.LLST68
 3427 0b14 12       		.uleb128 0x12
 3428 0b15 99020000 		.4byte	.LASF75
 3429 0b19 01       		.byte	0x1
 3430 0b1a 9D01     		.2byte	0x19d
 3431 0b1c 83000000 		.4byte	0x83
 3432 0b20 9F0E0000 		.4byte	.LLST69
 3433 0b24 12       		.uleb128 0x12
 3434 0b25 2B050000 		.4byte	.LASF35
 3435 0b29 01       		.byte	0x1
 3436 0b2a 9E01     		.2byte	0x19e
 3437 0b2c 42020000 		.4byte	0x242
 3438 0b30 D30E0000 		.4byte	.LLST70
 3439 0b34 14       		.uleb128 0x14
 3440 0b35 72657400 		.ascii	"ret\000"
 3441 0b39 01       		.byte	0x1
 3442 0b3a A001     		.2byte	0x1a0
 3443 0b3c BF010000 		.4byte	0x1bf
 3444 0b40 FF0E0000 		.4byte	.LLST71
 3445 0b44 14       		.uleb128 0x14
 3446 0b45 6900     		.ascii	"i\000"
 3447 0b47 01       		.byte	0x1
 3448 0b48 A101     		.2byte	0x1a1
 3449 0b4a 83000000 		.4byte	0x83
 3450 0b4e 4B0F0000 		.4byte	.LLST72
 3451 0b52 0E       		.uleb128 0xe
 3452 0b53 F0030000 		.4byte	.LASF91
 3453 0b57 01       		.byte	0x1
 3454 0b58 A201     		.2byte	0x1a2
 3455 0b5a 83000000 		.4byte	0x83
 3456 0b5e 5E0F0000 		.4byte	.LLST73
 3457 0b62 0E       		.uleb128 0xe
 3458 0b63 B1020000 		.4byte	.LASF92
 3459 0b67 01       		.byte	0x1
 3460 0b68 A301     		.2byte	0x1a3
 3461 0b6a 83000000 		.4byte	0x83
 3462 0b6e 7D0F0000 		.4byte	.LLST74
 3463 0b72 0F       		.uleb128 0xf
 3464 0b73 D2040000 		.4byte	.LASF61
 3465 0b77 01       		.byte	0x1
 3466 0b78 A401     		.2byte	0x1a4
 3467 0b7a 01060000 		.4byte	0x601
 3468 0b7e 03       		.uleb128 0x3
 3469 0b7f 91       		.byte	0x91
 3470 0b80 D87E     		.sleb128 -168
 3471 0b82 0F       		.uleb128 0xf
 3472 0b83 15050000 		.4byte	.LASF49
 3473 0b87 01       		.byte	0x1
 3474 0b88 A501     		.2byte	0x1a5
 3475 0b8a 83000000 		.4byte	0x83
ARM GAS  C:\Users\Larry\AppData\Local\Temp\ccxlVo0w.s 			page 91


 3476 0b8e 03       		.uleb128 0x3
 3477 0b8f 91       		.byte	0x91
 3478 0b90 D47E     		.sleb128 -172
 3479 0b92 0F       		.uleb128 0xf
 3480 0b93 FC030000 		.4byte	.LASF50
 3481 0b97 01       		.byte	0x1
 3482 0b98 A601     		.2byte	0x1a6
 3483 0b9a 83000000 		.4byte	0x83
 3484 0b9e 03       		.uleb128 0x3
 3485 0b9f 91       		.byte	0x91
 3486 0ba0 D07E     		.sleb128 -176
 3487 0ba2 0E       		.uleb128 0xe
 3488 0ba3 0F020000 		.4byte	.LASF63
 3489 0ba7 01       		.byte	0x1
 3490 0ba8 A701     		.2byte	0x1a7
 3491 0baa 83000000 		.4byte	0x83
 3492 0bae A60F0000 		.4byte	.LLST75
 3493 0bb2 0F       		.uleb128 0xf
 3494 0bb3 30060000 		.4byte	.LASF71
 3495 0bb7 01       		.byte	0x1
 3496 0bb8 A801     		.2byte	0x1a8
 3497 0bba 83000000 		.4byte	0x83
 3498 0bbe 03       		.uleb128 0x3
 3499 0bbf 91       		.byte	0x91
 3500 0bc0 CC7E     		.sleb128 -180
 3501 0bc2 0F       		.uleb128 0xf
 3502 0bc3 CE020000 		.4byte	.LASF93
 3503 0bc7 01       		.byte	0x1
 3504 0bc8 A901     		.2byte	0x1a9
 3505 0bca 83000000 		.4byte	0x83
 3506 0bce 03       		.uleb128 0x3
 3507 0bcf 91       		.byte	0x91
 3508 0bd0 C87E     		.sleb128 -184
 3509 0bd2 0E       		.uleb128 0xe
 3510 0bd3 12000000 		.4byte	.LASF94
 3511 0bd7 01       		.byte	0x1
 3512 0bd8 AA01     		.2byte	0x1aa
 3513 0bda BE000000 		.4byte	0xbe
 3514 0bde F40F0000 		.4byte	.LLST76
 3515 0be2 0E       		.uleb128 0xe
 3516 0be3 40060000 		.4byte	.LASF83
 3517 0be7 01       		.byte	0x1
 3518 0be8 AB01     		.2byte	0x1ab
 3519 0bea 83000000 		.4byte	0x83
 3520 0bee 07100000 		.4byte	.LLST77
 3521 0bf2 1F       		.uleb128 0x1f
 3522 0bf3 70000000 		.4byte	.Ldebug_ranges0+0x70
 3523 0bf7 0E       		.uleb128 0xe
 3524 0bf8 E2000000 		.4byte	.LASF95
 3525 0bfc 01       		.byte	0x1
 3526 0bfd B001     		.2byte	0x1b0
 3527 0bff 83000000 		.4byte	0x83
 3528 0c03 3F100000 		.4byte	.LLST78
 3529 0c07 0F       		.uleb128 0xf
 3530 0c08 E5010000 		.4byte	.LASF96
 3531 0c0c 01       		.byte	0x1
 3532 0c0d B101     		.2byte	0x1b1
ARM GAS  C:\Users\Larry\AppData\Local\Temp\ccxlVo0w.s 			page 92


 3533 0c0f 83000000 		.4byte	0x83
 3534 0c13 03       		.uleb128 0x3
 3535 0c14 91       		.byte	0x91
 3536 0c15 C47E     		.sleb128 -188
 3537 0c17 22       		.uleb128 0x22
 3538 0c18 52000000 		.4byte	.LBB13
 3539 0c1c 14010000 		.4byte	.LBE13-.LBB13
 3540 0c20 0E       		.uleb128 0xe
 3541 0c21 4F040000 		.4byte	.LASF97
 3542 0c25 01       		.byte	0x1
 3543 0c26 B501     		.2byte	0x1b5
 3544 0c28 83000000 		.4byte	0x83
 3545 0c2c 5F100000 		.4byte	.LLST79
 3546 0c30 0E       		.uleb128 0xe
 3547 0c31 9F030000 		.4byte	.LASF36
 3548 0c35 01       		.byte	0x1
 3549 0c36 B701     		.2byte	0x1b7
 3550 0c38 83000000 		.4byte	0x83
 3551 0c3c 94100000 		.4byte	.LLST80
 3552 0c40 23       		.uleb128 0x23
 3553 0c41 08010000 		.4byte	.LBB14
 3554 0c45 18000000 		.4byte	.LBE14-.LBB14
 3555 0c49 6E0C0000 		.4byte	0xc6e
 3556 0c4d 0E       		.uleb128 0xe
 3557 0c4e 34020000 		.4byte	.LASF98
 3558 0c52 01       		.byte	0x1
 3559 0c53 1702     		.2byte	0x217
 3560 0c55 83000000 		.4byte	0x83
 3561 0c59 BD100000 		.4byte	.LLST81
 3562 0c5d 15       		.uleb128 0x15
 3563 0c5e 20010000 		.4byte	.LVL265
 3564 0c62 BC0E0000 		.4byte	0xebc
 3565 0c66 16       		.uleb128 0x16
 3566 0c67 01       		.uleb128 0x1
 3567 0c68 51       		.byte	0x51
 3568 0c69 02       		.uleb128 0x2
 3569 0c6a 76       		.byte	0x76
 3570 0c6b 0C       		.sleb128 12
 3571 0c6c 00       		.byte	0
 3572 0c6d 00       		.byte	0
 3573 0c6e 17       		.uleb128 0x17
 3574 0c6f 62000000 		.4byte	.LVL241
 3575 0c73 8F020000 		.4byte	0x28f
 3576 0c77 960C0000 		.4byte	0xc96
 3577 0c7b 16       		.uleb128 0x16
 3578 0c7c 01       		.uleb128 0x1
 3579 0c7d 50       		.byte	0x50
 3580 0c7e 02       		.uleb128 0x2
 3581 0c7f 74       		.byte	0x74
 3582 0c80 00       		.sleb128 0
 3583 0c81 16       		.uleb128 0x16
 3584 0c82 01       		.uleb128 0x1
 3585 0c83 51       		.byte	0x51
 3586 0c84 03       		.uleb128 0x3
 3587 0c85 91       		.byte	0x91
 3588 0c86 CC7E     		.sleb128 -180
 3589 0c88 16       		.uleb128 0x16
ARM GAS  C:\Users\Larry\AppData\Local\Temp\ccxlVo0w.s 			page 93


 3590 0c89 01       		.uleb128 0x1
 3591 0c8a 52       		.byte	0x52
 3592 0c8b 03       		.uleb128 0x3
 3593 0c8c 91       		.byte	0x91
 3594 0c8d C87E     		.sleb128 -184
 3595 0c8f 16       		.uleb128 0x16
 3596 0c90 01       		.uleb128 0x1
 3597 0c91 53       		.byte	0x53
 3598 0c92 02       		.uleb128 0x2
 3599 0c93 75       		.byte	0x75
 3600 0c94 00       		.sleb128 0
 3601 0c95 00       		.byte	0
 3602 0c96 17       		.uleb128 0x17
 3603 0c97 6C000000 		.4byte	.LVL242
 3604 0c9b C50E0000 		.4byte	0xec5
 3605 0c9f B60C0000 		.4byte	0xcb6
 3606 0ca3 16       		.uleb128 0x16
 3607 0ca4 01       		.uleb128 0x1
 3608 0ca5 50       		.byte	0x50
 3609 0ca6 03       		.uleb128 0x3
 3610 0ca7 91       		.byte	0x91
 3611 0ca8 D87E     		.sleb128 -168
 3612 0caa 16       		.uleb128 0x16
 3613 0cab 01       		.uleb128 0x1
 3614 0cac 51       		.byte	0x51
 3615 0cad 01       		.uleb128 0x1
 3616 0cae 30       		.byte	0x30
 3617 0caf 16       		.uleb128 0x16
 3618 0cb0 01       		.uleb128 0x1
 3619 0cb1 52       		.byte	0x52
 3620 0cb2 02       		.uleb128 0x2
 3621 0cb3 08       		.byte	0x8
 3622 0cb4 80       		.byte	0x80
 3623 0cb5 00       		.byte	0
 3624 0cb6 17       		.uleb128 0x17
 3625 0cb7 A2000000 		.4byte	.LVL249
 3626 0cbb BC0E0000 		.4byte	0xebc
 3627 0cbf CB0C0000 		.4byte	0xccb
 3628 0cc3 16       		.uleb128 0x16
 3629 0cc4 01       		.uleb128 0x1
 3630 0cc5 50       		.byte	0x50
 3631 0cc6 03       		.uleb128 0x3
 3632 0cc7 91       		.byte	0x91
 3633 0cc8 E47E     		.sleb128 -156
 3634 0cca 00       		.byte	0
 3635 0ccb 17       		.uleb128 0x17
 3636 0ccc B2000000 		.4byte	.LVL250
 3637 0cd0 BC0E0000 		.4byte	0xebc
 3638 0cd4 E60C0000 		.4byte	0xce6
 3639 0cd8 16       		.uleb128 0x16
 3640 0cd9 01       		.uleb128 0x1
 3641 0cda 50       		.byte	0x50
 3642 0cdb 03       		.uleb128 0x3
 3643 0cdc 91       		.byte	0x91
 3644 0cdd 987F     		.sleb128 -104
 3645 0cdf 16       		.uleb128 0x16
 3646 0ce0 01       		.uleb128 0x1
ARM GAS  C:\Users\Larry\AppData\Local\Temp\ccxlVo0w.s 			page 94


 3647 0ce1 52       		.byte	0x52
 3648 0ce2 02       		.uleb128 0x2
 3649 0ce3 08       		.byte	0x8
 3650 0ce4 40       		.byte	0x40
 3651 0ce5 00       		.byte	0
 3652 0ce6 17       		.uleb128 0x17
 3653 0ce7 D6000000 		.4byte	.LVL254
 3654 0ceb 48020000 		.4byte	0x248
 3655 0cef 000D0000 		.4byte	0xd00
 3656 0cf3 16       		.uleb128 0x16
 3657 0cf4 01       		.uleb128 0x1
 3658 0cf5 50       		.byte	0x50
 3659 0cf6 02       		.uleb128 0x2
 3660 0cf7 74       		.byte	0x74
 3661 0cf8 00       		.sleb128 0
 3662 0cf9 16       		.uleb128 0x16
 3663 0cfa 01       		.uleb128 0x1
 3664 0cfb 51       		.byte	0x51
 3665 0cfc 02       		.uleb128 0x2
 3666 0cfd 75       		.byte	0x75
 3667 0cfe 00       		.sleb128 0
 3668 0cff 00       		.byte	0
 3669 0d00 17       		.uleb128 0x17
 3670 0d01 FE000000 		.4byte	.LVL258
 3671 0d05 B0030000 		.4byte	0x3b0
 3672 0d09 230D0000 		.4byte	0xd23
 3673 0d0d 16       		.uleb128 0x16
 3674 0d0e 01       		.uleb128 0x1
 3675 0d0f 50       		.byte	0x50
 3676 0d10 03       		.uleb128 0x3
 3677 0d11 91       		.byte	0x91
 3678 0d12 D47E     		.sleb128 -172
 3679 0d14 16       		.uleb128 0x16
 3680 0d15 01       		.uleb128 0x1
 3681 0d16 51       		.byte	0x51
 3682 0d17 03       		.uleb128 0x3
 3683 0d18 91       		.byte	0x91
 3684 0d19 D07E     		.sleb128 -176
 3685 0d1b 16       		.uleb128 0x16
 3686 0d1c 01       		.uleb128 0x1
 3687 0d1d 52       		.byte	0x52
 3688 0d1e 03       		.uleb128 0x3
 3689 0d1f 91       		.byte	0x91
 3690 0d20 C47E     		.sleb128 -188
 3691 0d22 00       		.byte	0
 3692 0d23 17       		.uleb128 0x17
 3693 0d24 2E010000 		.4byte	.LVL266
 3694 0d28 E4020000 		.4byte	0x2e4
 3695 0d2c 3E0D0000 		.4byte	0xd3e
 3696 0d30 16       		.uleb128 0x16
 3697 0d31 01       		.uleb128 0x1
 3698 0d32 50       		.byte	0x50
 3699 0d33 03       		.uleb128 0x3
 3700 0d34 91       		.byte	0x91
 3701 0d35 987F     		.sleb128 -104
 3702 0d37 16       		.uleb128 0x16
 3703 0d38 01       		.uleb128 0x1
ARM GAS  C:\Users\Larry\AppData\Local\Temp\ccxlVo0w.s 			page 95


 3704 0d39 51       		.byte	0x51
 3705 0d3a 02       		.uleb128 0x2
 3706 0d3b 08       		.byte	0x8
 3707 0d3c 40       		.byte	0x40
 3708 0d3d 00       		.byte	0
 3709 0d3e 17       		.uleb128 0x17
 3710 0d3f 40010000 		.4byte	.LVL268
 3711 0d43 37040000 		.4byte	0x437
 3712 0d47 590D0000 		.4byte	0xd59
 3713 0d4b 16       		.uleb128 0x16
 3714 0d4c 01       		.uleb128 0x1
 3715 0d4d 51       		.byte	0x51
 3716 0d4e 03       		.uleb128 0x3
 3717 0d4f 91       		.byte	0x91
 3718 0d50 D87E     		.sleb128 -168
 3719 0d52 16       		.uleb128 0x16
 3720 0d53 01       		.uleb128 0x1
 3721 0d54 52       		.byte	0x52
 3722 0d55 02       		.uleb128 0x2
 3723 0d56 75       		.byte	0x75
 3724 0d57 00       		.sleb128 0
 3725 0d58 00       		.byte	0
 3726 0d59 15       		.uleb128 0x15
 3727 0d5a 5E010000 		.4byte	.LVL271
 3728 0d5e 37040000 		.4byte	0x437
 3729 0d62 16       		.uleb128 0x16
 3730 0d63 01       		.uleb128 0x1
 3731 0d64 51       		.byte	0x51
 3732 0d65 03       		.uleb128 0x3
 3733 0d66 91       		.byte	0x91
 3734 0d67 D87E     		.sleb128 -168
 3735 0d69 16       		.uleb128 0x16
 3736 0d6a 01       		.uleb128 0x1
 3737 0d6b 52       		.byte	0x52
 3738 0d6c 02       		.uleb128 0x2
 3739 0d6d 75       		.byte	0x75
 3740 0d6e 00       		.sleb128 0
 3741 0d6f 00       		.byte	0
 3742 0d70 00       		.byte	0
 3743 0d71 00       		.byte	0
 3744 0d72 00       		.byte	0
 3745 0d73 24       		.uleb128 0x24
 3746 0d74 79030000 		.4byte	.LASF99
 3747 0d78 01       		.byte	0x1
 3748 0d79 7502     		.2byte	0x275
 3749 0d7b BF010000 		.4byte	0x1bf
 3750 0d7f 00000000 		.4byte	.LFB4
 3751 0d83 62000000 		.4byte	.LFE4-.LFB4
 3752 0d87 01       		.uleb128 0x1
 3753 0d88 9C       		.byte	0x9c
 3754 0d89 860E0000 		.4byte	0xe86
 3755 0d8d 12       		.uleb128 0x12
 3756 0d8e 2B050000 		.4byte	.LASF35
 3757 0d92 01       		.byte	0x1
 3758 0d93 7502     		.2byte	0x275
 3759 0d95 42020000 		.4byte	0x242
 3760 0d99 D0100000 		.4byte	.LLST82
ARM GAS  C:\Users\Larry\AppData\Local\Temp\ccxlVo0w.s 			page 96


 3761 0d9d 14       		.uleb128 0x14
 3762 0d9e 6900     		.ascii	"i\000"
 3763 0da0 01       		.byte	0x1
 3764 0da1 7702     		.2byte	0x277
 3765 0da3 83000000 		.4byte	0x83
 3766 0da7 FC100000 		.4byte	.LLST83
 3767 0dab 0E       		.uleb128 0xe
 3768 0dac 9F030000 		.4byte	.LASF36
 3769 0db0 01       		.byte	0x1
 3770 0db1 7802     		.2byte	0x278
 3771 0db3 83000000 		.4byte	0x83
 3772 0db7 0F110000 		.4byte	.LLST84
 3773 0dbb 0F       		.uleb128 0xf
 3774 0dbc 30060000 		.4byte	.LASF71
 3775 0dc0 01       		.byte	0x1
 3776 0dc1 7902     		.2byte	0x279
 3777 0dc3 83000000 		.4byte	0x83
 3778 0dc7 02       		.uleb128 0x2
 3779 0dc8 91       		.byte	0x91
 3780 0dc9 64       		.sleb128 -28
 3781 0dca 0F       		.uleb128 0xf
 3782 0dcb CE020000 		.4byte	.LASF93
 3783 0dcf 01       		.byte	0x1
 3784 0dd0 7A02     		.2byte	0x27a
 3785 0dd2 83000000 		.4byte	0x83
 3786 0dd6 02       		.uleb128 0x2
 3787 0dd7 91       		.byte	0x91
 3788 0dd8 60       		.sleb128 -32
 3789 0dd9 14       		.uleb128 0x14
 3790 0dda 72657400 		.ascii	"ret\000"
 3791 0dde 01       		.byte	0x1
 3792 0ddf 7B02     		.2byte	0x27b
 3793 0de1 BF010000 		.4byte	0x1bf
 3794 0de5 44110000 		.4byte	.LLST85
 3795 0de9 0F       		.uleb128 0xf
 3796 0dea D2040000 		.4byte	.LASF61
 3797 0dee 01       		.byte	0x1
 3798 0def 7C02     		.2byte	0x27c
 3799 0df1 01060000 		.4byte	0x601
 3800 0df5 03       		.uleb128 0x3
 3801 0df6 91       		.byte	0x91
 3802 0df7 E07E     		.sleb128 -160
 3803 0df9 20       		.uleb128 0x20
 3804 0dfa 88000000 		.4byte	.Ldebug_ranges0+0x88
 3805 0dfe 6A0E0000 		.4byte	0xe6a
 3806 0e02 0E       		.uleb128 0xe
 3807 0e03 E2000000 		.4byte	.LASF95
 3808 0e07 01       		.byte	0x1
 3809 0e08 8902     		.2byte	0x289
 3810 0e0a 83000000 		.4byte	0x83
 3811 0e0e 85110000 		.4byte	.LLST86
 3812 0e12 17       		.uleb128 0x17
 3813 0e13 2E000000 		.4byte	.LVL289
 3814 0e17 E4020000 		.4byte	0x2e4
 3815 0e1b 2D0E0000 		.4byte	0xe2d
 3816 0e1f 16       		.uleb128 0x16
 3817 0e20 01       		.uleb128 0x1
ARM GAS  C:\Users\Larry\AppData\Local\Temp\ccxlVo0w.s 			page 97


 3818 0e21 50       		.byte	0x50
 3819 0e22 03       		.uleb128 0x3
 3820 0e23 91       		.byte	0x91
 3821 0e24 A07F     		.sleb128 -96
 3822 0e26 16       		.uleb128 0x16
 3823 0e27 01       		.uleb128 0x1
 3824 0e28 51       		.byte	0x51
 3825 0e29 02       		.uleb128 0x2
 3826 0e2a 08       		.byte	0x8
 3827 0e2b 40       		.byte	0x40
 3828 0e2c 00       		.byte	0
 3829 0e2d 17       		.uleb128 0x17
 3830 0e2e 46000000 		.4byte	.LVL293
 3831 0e32 8F020000 		.4byte	0x28f
 3832 0e36 530E0000 		.4byte	0xe53
 3833 0e3a 16       		.uleb128 0x16
 3834 0e3b 01       		.uleb128 0x1
 3835 0e3c 50       		.byte	0x50
 3836 0e3d 02       		.uleb128 0x2
 3837 0e3e 74       		.byte	0x74
 3838 0e3f 00       		.sleb128 0
 3839 0e40 16       		.uleb128 0x16
 3840 0e41 01       		.uleb128 0x1
 3841 0e42 51       		.byte	0x51
 3842 0e43 02       		.uleb128 0x2
 3843 0e44 91       		.byte	0x91
 3844 0e45 64       		.sleb128 -28
 3845 0e46 16       		.uleb128 0x16
 3846 0e47 01       		.uleb128 0x1
 3847 0e48 52       		.byte	0x52
 3848 0e49 02       		.uleb128 0x2
 3849 0e4a 91       		.byte	0x91
 3850 0e4b 60       		.sleb128 -32
 3851 0e4c 16       		.uleb128 0x16
 3852 0e4d 01       		.uleb128 0x1
 3853 0e4e 53       		.byte	0x53
 3854 0e4f 02       		.uleb128 0x2
 3855 0e50 76       		.byte	0x76
 3856 0e51 00       		.sleb128 0
 3857 0e52 00       		.byte	0
 3858 0e53 15       		.uleb128 0x15
 3859 0e54 54000000 		.4byte	.LVL295
 3860 0e58 76070000 		.4byte	0x776
 3861 0e5c 16       		.uleb128 0x16
 3862 0e5d 01       		.uleb128 0x1
 3863 0e5e 51       		.byte	0x51
 3864 0e5f 02       		.uleb128 0x2
 3865 0e60 7D       		.byte	0x7d
 3866 0e61 00       		.sleb128 0
 3867 0e62 16       		.uleb128 0x16
 3868 0e63 01       		.uleb128 0x1
 3869 0e64 52       		.byte	0x52
 3870 0e65 02       		.uleb128 0x2
 3871 0e66 76       		.byte	0x76
 3872 0e67 00       		.sleb128 0
 3873 0e68 00       		.byte	0
 3874 0e69 00       		.byte	0
ARM GAS  C:\Users\Larry\AppData\Local\Temp\ccxlVo0w.s 			page 98


 3875 0e6a 15       		.uleb128 0x15
 3876 0e6b 14000000 		.4byte	.LVL285
 3877 0e6f C50E0000 		.4byte	0xec5
 3878 0e73 16       		.uleb128 0x16
 3879 0e74 01       		.uleb128 0x1
 3880 0e75 50       		.byte	0x50
 3881 0e76 02       		.uleb128 0x2
 3882 0e77 7D       		.byte	0x7d
 3883 0e78 00       		.sleb128 0
 3884 0e79 16       		.uleb128 0x16
 3885 0e7a 01       		.uleb128 0x1
 3886 0e7b 51       		.byte	0x51
 3887 0e7c 01       		.uleb128 0x1
 3888 0e7d 30       		.byte	0x30
 3889 0e7e 16       		.uleb128 0x16
 3890 0e7f 01       		.uleb128 0x1
 3891 0e80 52       		.byte	0x52
 3892 0e81 02       		.uleb128 0x2
 3893 0e82 08       		.byte	0x8
 3894 0e83 80       		.byte	0x80
 3895 0e84 00       		.byte	0
 3896 0e85 00       		.byte	0
 3897 0e86 24       		.uleb128 0x24
 3898 0e87 87010000 		.4byte	.LASF100
 3899 0e8b 01       		.byte	0x1
 3900 0e8c DC02     		.2byte	0x2dc
 3901 0e8e 83000000 		.4byte	0x83
 3902 0e92 00000000 		.4byte	.LFB5
 3903 0e96 06000000 		.4byte	.LFE5-.LFB5
 3904 0e9a 01       		.uleb128 0x1
 3905 0e9b 9C       		.byte	0x9c
 3906 0e9c B10E0000 		.4byte	0xeb1
 3907 0ea0 12       		.uleb128 0x12
 3908 0ea1 2B050000 		.4byte	.LASF35
 3909 0ea5 01       		.byte	0x1
 3910 0ea6 DC02     		.2byte	0x2dc
 3911 0ea8 42020000 		.4byte	0x242
 3912 0eac 98110000 		.4byte	.LLST87
 3913 0eb0 00       		.byte	0
 3914 0eb1 25       		.uleb128 0x25
 3915 0eb2 97050000 		.4byte	.LASF106
 3916 0eb6 97050000 		.4byte	.LASF106
 3917 0eba 04       		.byte	0x4
 3918 0ebb 4E       		.byte	0x4e
 3919 0ebc 26       		.uleb128 0x26
 3920 0ebd BA010000 		.4byte	.LASF101
 3921 0ec1 BA010000 		.4byte	.LASF101
 3922 0ec5 26       		.uleb128 0x26
 3923 0ec6 7F050000 		.4byte	.LASF102
 3924 0eca 7F050000 		.4byte	.LASF102
 3925 0ece 00       		.byte	0
 3926              		.section	.debug_abbrev,"",%progbits
 3927              	.Ldebug_abbrev0:
 3928 0000 01       		.uleb128 0x1
 3929 0001 11       		.uleb128 0x11
 3930 0002 01       		.byte	0x1
 3931 0003 25       		.uleb128 0x25
ARM GAS  C:\Users\Larry\AppData\Local\Temp\ccxlVo0w.s 			page 99


 3932 0004 0E       		.uleb128 0xe
 3933 0005 13       		.uleb128 0x13
 3934 0006 0B       		.uleb128 0xb
 3935 0007 03       		.uleb128 0x3
 3936 0008 0E       		.uleb128 0xe
 3937 0009 1B       		.uleb128 0x1b
 3938 000a 0E       		.uleb128 0xe
 3939 000b 55       		.uleb128 0x55
 3940 000c 17       		.uleb128 0x17
 3941 000d 11       		.uleb128 0x11
 3942 000e 01       		.uleb128 0x1
 3943 000f 10       		.uleb128 0x10
 3944 0010 17       		.uleb128 0x17
 3945 0011 00       		.byte	0
 3946 0012 00       		.byte	0
 3947 0013 02       		.uleb128 0x2
 3948 0014 24       		.uleb128 0x24
 3949 0015 00       		.byte	0
 3950 0016 0B       		.uleb128 0xb
 3951 0017 0B       		.uleb128 0xb
 3952 0018 3E       		.uleb128 0x3e
 3953 0019 0B       		.uleb128 0xb
 3954 001a 03       		.uleb128 0x3
 3955 001b 0E       		.uleb128 0xe
 3956 001c 00       		.byte	0
 3957 001d 00       		.byte	0
 3958 001e 03       		.uleb128 0x3
 3959 001f 24       		.uleb128 0x24
 3960 0020 00       		.byte	0
 3961 0021 0B       		.uleb128 0xb
 3962 0022 0B       		.uleb128 0xb
 3963 0023 3E       		.uleb128 0x3e
 3964 0024 0B       		.uleb128 0xb
 3965 0025 03       		.uleb128 0x3
 3966 0026 08       		.uleb128 0x8
 3967 0027 00       		.byte	0
 3968 0028 00       		.byte	0
 3969 0029 04       		.uleb128 0x4
 3970 002a 16       		.uleb128 0x16
 3971 002b 00       		.byte	0
 3972 002c 03       		.uleb128 0x3
 3973 002d 0E       		.uleb128 0xe
 3974 002e 3A       		.uleb128 0x3a
 3975 002f 0B       		.uleb128 0xb
 3976 0030 3B       		.uleb128 0x3b
 3977 0031 05       		.uleb128 0x5
 3978 0032 49       		.uleb128 0x49
 3979 0033 13       		.uleb128 0x13
 3980 0034 00       		.byte	0
 3981 0035 00       		.byte	0
 3982 0036 05       		.uleb128 0x5
 3983 0037 0F       		.uleb128 0xf
 3984 0038 00       		.byte	0
 3985 0039 0B       		.uleb128 0xb
 3986 003a 0B       		.uleb128 0xb
 3987 003b 00       		.byte	0
 3988 003c 00       		.byte	0
ARM GAS  C:\Users\Larry\AppData\Local\Temp\ccxlVo0w.s 			page 100


 3989 003d 06       		.uleb128 0x6
 3990 003e 13       		.uleb128 0x13
 3991 003f 01       		.byte	0x1
 3992 0040 0B       		.uleb128 0xb
 3993 0041 0B       		.uleb128 0xb
 3994 0042 3A       		.uleb128 0x3a
 3995 0043 0B       		.uleb128 0xb
 3996 0044 3B       		.uleb128 0x3b
 3997 0045 0B       		.uleb128 0xb
 3998 0046 01       		.uleb128 0x1
 3999 0047 13       		.uleb128 0x13
 4000 0048 00       		.byte	0
 4001 0049 00       		.byte	0
 4002 004a 07       		.uleb128 0x7
 4003 004b 0D       		.uleb128 0xd
 4004 004c 00       		.byte	0
 4005 004d 03       		.uleb128 0x3
 4006 004e 0E       		.uleb128 0xe
 4007 004f 3A       		.uleb128 0x3a
 4008 0050 0B       		.uleb128 0xb
 4009 0051 3B       		.uleb128 0x3b
 4010 0052 0B       		.uleb128 0xb
 4011 0053 49       		.uleb128 0x49
 4012 0054 13       		.uleb128 0x13
 4013 0055 38       		.uleb128 0x38
 4014 0056 0B       		.uleb128 0xb
 4015 0057 00       		.byte	0
 4016 0058 00       		.byte	0
 4017 0059 08       		.uleb128 0x8
 4018 005a 0D       		.uleb128 0xd
 4019 005b 00       		.byte	0
 4020 005c 03       		.uleb128 0x3
 4021 005d 0E       		.uleb128 0xe
 4022 005e 3A       		.uleb128 0x3a
 4023 005f 0B       		.uleb128 0xb
 4024 0060 3B       		.uleb128 0x3b
 4025 0061 05       		.uleb128 0x5
 4026 0062 49       		.uleb128 0x49
 4027 0063 13       		.uleb128 0x13
 4028 0064 38       		.uleb128 0x38
 4029 0065 0B       		.uleb128 0xb
 4030 0066 00       		.byte	0
 4031 0067 00       		.byte	0
 4032 0068 09       		.uleb128 0x9
 4033 0069 13       		.uleb128 0x13
 4034 006a 01       		.byte	0x1
 4035 006b 0B       		.uleb128 0xb
 4036 006c 0B       		.uleb128 0xb
 4037 006d 3A       		.uleb128 0x3a
 4038 006e 0B       		.uleb128 0xb
 4039 006f 3B       		.uleb128 0x3b
 4040 0070 05       		.uleb128 0x5
 4041 0071 01       		.uleb128 0x1
 4042 0072 13       		.uleb128 0x13
 4043 0073 00       		.byte	0
 4044 0074 00       		.byte	0
 4045 0075 0A       		.uleb128 0xa
ARM GAS  C:\Users\Larry\AppData\Local\Temp\ccxlVo0w.s 			page 101


 4046 0076 04       		.uleb128 0x4
 4047 0077 01       		.byte	0x1
 4048 0078 0B       		.uleb128 0xb
 4049 0079 0B       		.uleb128 0xb
 4050 007a 49       		.uleb128 0x49
 4051 007b 13       		.uleb128 0x13
 4052 007c 3A       		.uleb128 0x3a
 4053 007d 0B       		.uleb128 0xb
 4054 007e 3B       		.uleb128 0x3b
 4055 007f 05       		.uleb128 0x5
 4056 0080 01       		.uleb128 0x1
 4057 0081 13       		.uleb128 0x13
 4058 0082 00       		.byte	0
 4059 0083 00       		.byte	0
 4060 0084 0B       		.uleb128 0xb
 4061 0085 28       		.uleb128 0x28
 4062 0086 00       		.byte	0
 4063 0087 03       		.uleb128 0x3
 4064 0088 0E       		.uleb128 0xe
 4065 0089 1C       		.uleb128 0x1c
 4066 008a 0B       		.uleb128 0xb
 4067 008b 00       		.byte	0
 4068 008c 00       		.byte	0
 4069 008d 0C       		.uleb128 0xc
 4070 008e 2E       		.uleb128 0x2e
 4071 008f 01       		.byte	0x1
 4072 0090 03       		.uleb128 0x3
 4073 0091 0E       		.uleb128 0xe
 4074 0092 3A       		.uleb128 0x3a
 4075 0093 0B       		.uleb128 0xb
 4076 0094 3B       		.uleb128 0x3b
 4077 0095 05       		.uleb128 0x5
 4078 0096 27       		.uleb128 0x27
 4079 0097 19       		.uleb128 0x19
 4080 0098 11       		.uleb128 0x11
 4081 0099 01       		.uleb128 0x1
 4082 009a 12       		.uleb128 0x12
 4083 009b 06       		.uleb128 0x6
 4084 009c 40       		.uleb128 0x40
 4085 009d 18       		.uleb128 0x18
 4086 009e 9742     		.uleb128 0x2117
 4087 00a0 19       		.uleb128 0x19
 4088 00a1 01       		.uleb128 0x1
 4089 00a2 13       		.uleb128 0x13
 4090 00a3 00       		.byte	0
 4091 00a4 00       		.byte	0
 4092 00a5 0D       		.uleb128 0xd
 4093 00a6 05       		.uleb128 0x5
 4094 00a7 00       		.byte	0
 4095 00a8 03       		.uleb128 0x3
 4096 00a9 0E       		.uleb128 0xe
 4097 00aa 3A       		.uleb128 0x3a
 4098 00ab 0B       		.uleb128 0xb
 4099 00ac 3B       		.uleb128 0x3b
 4100 00ad 05       		.uleb128 0x5
 4101 00ae 49       		.uleb128 0x49
 4102 00af 13       		.uleb128 0x13
ARM GAS  C:\Users\Larry\AppData\Local\Temp\ccxlVo0w.s 			page 102


 4103 00b0 02       		.uleb128 0x2
 4104 00b1 18       		.uleb128 0x18
 4105 00b2 00       		.byte	0
 4106 00b3 00       		.byte	0
 4107 00b4 0E       		.uleb128 0xe
 4108 00b5 34       		.uleb128 0x34
 4109 00b6 00       		.byte	0
 4110 00b7 03       		.uleb128 0x3
 4111 00b8 0E       		.uleb128 0xe
 4112 00b9 3A       		.uleb128 0x3a
 4113 00ba 0B       		.uleb128 0xb
 4114 00bb 3B       		.uleb128 0x3b
 4115 00bc 05       		.uleb128 0x5
 4116 00bd 49       		.uleb128 0x49
 4117 00be 13       		.uleb128 0x13
 4118 00bf 02       		.uleb128 0x2
 4119 00c0 17       		.uleb128 0x17
 4120 00c1 00       		.byte	0
 4121 00c2 00       		.byte	0
 4122 00c3 0F       		.uleb128 0xf
 4123 00c4 34       		.uleb128 0x34
 4124 00c5 00       		.byte	0
 4125 00c6 03       		.uleb128 0x3
 4126 00c7 0E       		.uleb128 0xe
 4127 00c8 3A       		.uleb128 0x3a
 4128 00c9 0B       		.uleb128 0xb
 4129 00ca 3B       		.uleb128 0x3b
 4130 00cb 05       		.uleb128 0x5
 4131 00cc 49       		.uleb128 0x49
 4132 00cd 13       		.uleb128 0x13
 4133 00ce 02       		.uleb128 0x2
 4134 00cf 18       		.uleb128 0x18
 4135 00d0 00       		.byte	0
 4136 00d1 00       		.byte	0
 4137 00d2 10       		.uleb128 0x10
 4138 00d3 0F       		.uleb128 0xf
 4139 00d4 00       		.byte	0
 4140 00d5 0B       		.uleb128 0xb
 4141 00d6 0B       		.uleb128 0xb
 4142 00d7 49       		.uleb128 0x49
 4143 00d8 13       		.uleb128 0x13
 4144 00d9 00       		.byte	0
 4145 00da 00       		.byte	0
 4146 00db 11       		.uleb128 0x11
 4147 00dc 2E       		.uleb128 0x2e
 4148 00dd 01       		.byte	0x1
 4149 00de 03       		.uleb128 0x3
 4150 00df 0E       		.uleb128 0xe
 4151 00e0 3A       		.uleb128 0x3a
 4152 00e1 0B       		.uleb128 0xb
 4153 00e2 3B       		.uleb128 0x3b
 4154 00e3 05       		.uleb128 0x5
 4155 00e4 27       		.uleb128 0x27
 4156 00e5 19       		.uleb128 0x19
 4157 00e6 49       		.uleb128 0x49
 4158 00e7 13       		.uleb128 0x13
 4159 00e8 11       		.uleb128 0x11
ARM GAS  C:\Users\Larry\AppData\Local\Temp\ccxlVo0w.s 			page 103


 4160 00e9 01       		.uleb128 0x1
 4161 00ea 12       		.uleb128 0x12
 4162 00eb 06       		.uleb128 0x6
 4163 00ec 40       		.uleb128 0x40
 4164 00ed 18       		.uleb128 0x18
 4165 00ee 9742     		.uleb128 0x2117
 4166 00f0 19       		.uleb128 0x19
 4167 00f1 01       		.uleb128 0x1
 4168 00f2 13       		.uleb128 0x13
 4169 00f3 00       		.byte	0
 4170 00f4 00       		.byte	0
 4171 00f5 12       		.uleb128 0x12
 4172 00f6 05       		.uleb128 0x5
 4173 00f7 00       		.byte	0
 4174 00f8 03       		.uleb128 0x3
 4175 00f9 0E       		.uleb128 0xe
 4176 00fa 3A       		.uleb128 0x3a
 4177 00fb 0B       		.uleb128 0xb
 4178 00fc 3B       		.uleb128 0x3b
 4179 00fd 05       		.uleb128 0x5
 4180 00fe 49       		.uleb128 0x49
 4181 00ff 13       		.uleb128 0x13
 4182 0100 02       		.uleb128 0x2
 4183 0101 17       		.uleb128 0x17
 4184 0102 00       		.byte	0
 4185 0103 00       		.byte	0
 4186 0104 13       		.uleb128 0x13
 4187 0105 05       		.uleb128 0x5
 4188 0106 00       		.byte	0
 4189 0107 03       		.uleb128 0x3
 4190 0108 08       		.uleb128 0x8
 4191 0109 3A       		.uleb128 0x3a
 4192 010a 0B       		.uleb128 0xb
 4193 010b 3B       		.uleb128 0x3b
 4194 010c 05       		.uleb128 0x5
 4195 010d 49       		.uleb128 0x49
 4196 010e 13       		.uleb128 0x13
 4197 010f 02       		.uleb128 0x2
 4198 0110 18       		.uleb128 0x18
 4199 0111 00       		.byte	0
 4200 0112 00       		.byte	0
 4201 0113 14       		.uleb128 0x14
 4202 0114 34       		.uleb128 0x34
 4203 0115 00       		.byte	0
 4204 0116 03       		.uleb128 0x3
 4205 0117 08       		.uleb128 0x8
 4206 0118 3A       		.uleb128 0x3a
 4207 0119 0B       		.uleb128 0xb
 4208 011a 3B       		.uleb128 0x3b
 4209 011b 05       		.uleb128 0x5
 4210 011c 49       		.uleb128 0x49
 4211 011d 13       		.uleb128 0x13
 4212 011e 02       		.uleb128 0x2
 4213 011f 17       		.uleb128 0x17
 4214 0120 00       		.byte	0
 4215 0121 00       		.byte	0
 4216 0122 15       		.uleb128 0x15
ARM GAS  C:\Users\Larry\AppData\Local\Temp\ccxlVo0w.s 			page 104


 4217 0123 898201   		.uleb128 0x4109
 4218 0126 01       		.byte	0x1
 4219 0127 11       		.uleb128 0x11
 4220 0128 01       		.uleb128 0x1
 4221 0129 31       		.uleb128 0x31
 4222 012a 13       		.uleb128 0x13
 4223 012b 00       		.byte	0
 4224 012c 00       		.byte	0
 4225 012d 16       		.uleb128 0x16
 4226 012e 8A8201   		.uleb128 0x410a
 4227 0131 00       		.byte	0
 4228 0132 02       		.uleb128 0x2
 4229 0133 18       		.uleb128 0x18
 4230 0134 9142     		.uleb128 0x2111
 4231 0136 18       		.uleb128 0x18
 4232 0137 00       		.byte	0
 4233 0138 00       		.byte	0
 4234 0139 17       		.uleb128 0x17
 4235 013a 898201   		.uleb128 0x4109
 4236 013d 01       		.byte	0x1
 4237 013e 11       		.uleb128 0x11
 4238 013f 01       		.uleb128 0x1
 4239 0140 31       		.uleb128 0x31
 4240 0141 13       		.uleb128 0x13
 4241 0142 01       		.uleb128 0x1
 4242 0143 13       		.uleb128 0x13
 4243 0144 00       		.byte	0
 4244 0145 00       		.byte	0
 4245 0146 18       		.uleb128 0x18
 4246 0147 01       		.uleb128 0x1
 4247 0148 01       		.byte	0x1
 4248 0149 49       		.uleb128 0x49
 4249 014a 13       		.uleb128 0x13
 4250 014b 01       		.uleb128 0x1
 4251 014c 13       		.uleb128 0x13
 4252 014d 00       		.byte	0
 4253 014e 00       		.byte	0
 4254 014f 19       		.uleb128 0x19
 4255 0150 21       		.uleb128 0x21
 4256 0151 00       		.byte	0
 4257 0152 49       		.uleb128 0x49
 4258 0153 13       		.uleb128 0x13
 4259 0154 2F       		.uleb128 0x2f
 4260 0155 0B       		.uleb128 0xb
 4261 0156 00       		.byte	0
 4262 0157 00       		.byte	0
 4263 0158 1A       		.uleb128 0x1a
 4264 0159 2E       		.uleb128 0x2e
 4265 015a 01       		.byte	0x1
 4266 015b 3F       		.uleb128 0x3f
 4267 015c 19       		.uleb128 0x19
 4268 015d 03       		.uleb128 0x3
 4269 015e 0E       		.uleb128 0xe
 4270 015f 3A       		.uleb128 0x3a
 4271 0160 0B       		.uleb128 0xb
 4272 0161 3B       		.uleb128 0x3b
 4273 0162 0B       		.uleb128 0xb
ARM GAS  C:\Users\Larry\AppData\Local\Temp\ccxlVo0w.s 			page 105


 4274 0163 27       		.uleb128 0x27
 4275 0164 19       		.uleb128 0x19
 4276 0165 49       		.uleb128 0x49
 4277 0166 13       		.uleb128 0x13
 4278 0167 11       		.uleb128 0x11
 4279 0168 01       		.uleb128 0x1
 4280 0169 12       		.uleb128 0x12
 4281 016a 06       		.uleb128 0x6
 4282 016b 40       		.uleb128 0x40
 4283 016c 18       		.uleb128 0x18
 4284 016d 9742     		.uleb128 0x2117
 4285 016f 19       		.uleb128 0x19
 4286 0170 01       		.uleb128 0x1
 4287 0171 13       		.uleb128 0x13
 4288 0172 00       		.byte	0
 4289 0173 00       		.byte	0
 4290 0174 1B       		.uleb128 0x1b
 4291 0175 05       		.uleb128 0x5
 4292 0176 00       		.byte	0
 4293 0177 03       		.uleb128 0x3
 4294 0178 0E       		.uleb128 0xe
 4295 0179 3A       		.uleb128 0x3a
 4296 017a 0B       		.uleb128 0xb
 4297 017b 3B       		.uleb128 0x3b
 4298 017c 0B       		.uleb128 0xb
 4299 017d 49       		.uleb128 0x49
 4300 017e 13       		.uleb128 0x13
 4301 017f 02       		.uleb128 0x2
 4302 0180 17       		.uleb128 0x17
 4303 0181 00       		.byte	0
 4304 0182 00       		.byte	0
 4305 0183 1C       		.uleb128 0x1c
 4306 0184 34       		.uleb128 0x34
 4307 0185 00       		.byte	0
 4308 0186 03       		.uleb128 0x3
 4309 0187 08       		.uleb128 0x8
 4310 0188 3A       		.uleb128 0x3a
 4311 0189 0B       		.uleb128 0xb
 4312 018a 3B       		.uleb128 0x3b
 4313 018b 0B       		.uleb128 0xb
 4314 018c 49       		.uleb128 0x49
 4315 018d 13       		.uleb128 0x13
 4316 018e 02       		.uleb128 0x2
 4317 018f 17       		.uleb128 0x17
 4318 0190 00       		.byte	0
 4319 0191 00       		.byte	0
 4320 0192 1D       		.uleb128 0x1d
 4321 0193 2E       		.uleb128 0x2e
 4322 0194 01       		.byte	0x1
 4323 0195 3F       		.uleb128 0x3f
 4324 0196 19       		.uleb128 0x19
 4325 0197 03       		.uleb128 0x3
 4326 0198 0E       		.uleb128 0xe
 4327 0199 3A       		.uleb128 0x3a
 4328 019a 0B       		.uleb128 0xb
 4329 019b 3B       		.uleb128 0x3b
 4330 019c 0B       		.uleb128 0xb
ARM GAS  C:\Users\Larry\AppData\Local\Temp\ccxlVo0w.s 			page 106


 4331 019d 27       		.uleb128 0x27
 4332 019e 19       		.uleb128 0x19
 4333 019f 49       		.uleb128 0x49
 4334 01a0 13       		.uleb128 0x13
 4335 01a1 11       		.uleb128 0x11
 4336 01a2 01       		.uleb128 0x1
 4337 01a3 12       		.uleb128 0x12
 4338 01a4 06       		.uleb128 0x6
 4339 01a5 40       		.uleb128 0x40
 4340 01a6 18       		.uleb128 0x18
 4341 01a7 9642     		.uleb128 0x2116
 4342 01a9 19       		.uleb128 0x19
 4343 01aa 01       		.uleb128 0x1
 4344 01ab 13       		.uleb128 0x13
 4345 01ac 00       		.byte	0
 4346 01ad 00       		.byte	0
 4347 01ae 1E       		.uleb128 0x1e
 4348 01af 34       		.uleb128 0x34
 4349 01b0 00       		.byte	0
 4350 01b1 03       		.uleb128 0x3
 4351 01b2 0E       		.uleb128 0xe
 4352 01b3 3A       		.uleb128 0x3a
 4353 01b4 0B       		.uleb128 0xb
 4354 01b5 3B       		.uleb128 0x3b
 4355 01b6 0B       		.uleb128 0xb
 4356 01b7 49       		.uleb128 0x49
 4357 01b8 13       		.uleb128 0x13
 4358 01b9 02       		.uleb128 0x2
 4359 01ba 17       		.uleb128 0x17
 4360 01bb 00       		.byte	0
 4361 01bc 00       		.byte	0
 4362 01bd 1F       		.uleb128 0x1f
 4363 01be 0B       		.uleb128 0xb
 4364 01bf 01       		.byte	0x1
 4365 01c0 55       		.uleb128 0x55
 4366 01c1 17       		.uleb128 0x17
 4367 01c2 00       		.byte	0
 4368 01c3 00       		.byte	0
 4369 01c4 20       		.uleb128 0x20
 4370 01c5 0B       		.uleb128 0xb
 4371 01c6 01       		.byte	0x1
 4372 01c7 55       		.uleb128 0x55
 4373 01c8 17       		.uleb128 0x17
 4374 01c9 01       		.uleb128 0x1
 4375 01ca 13       		.uleb128 0x13
 4376 01cb 00       		.byte	0
 4377 01cc 00       		.byte	0
 4378 01cd 21       		.uleb128 0x21
 4379 01ce 2E       		.uleb128 0x2e
 4380 01cf 01       		.byte	0x1
 4381 01d0 3F       		.uleb128 0x3f
 4382 01d1 19       		.uleb128 0x19
 4383 01d2 03       		.uleb128 0x3
 4384 01d3 0E       		.uleb128 0xe
 4385 01d4 3A       		.uleb128 0x3a
 4386 01d5 0B       		.uleb128 0xb
 4387 01d6 3B       		.uleb128 0x3b
ARM GAS  C:\Users\Larry\AppData\Local\Temp\ccxlVo0w.s 			page 107


 4388 01d7 05       		.uleb128 0x5
 4389 01d8 27       		.uleb128 0x27
 4390 01d9 19       		.uleb128 0x19
 4391 01da 49       		.uleb128 0x49
 4392 01db 13       		.uleb128 0x13
 4393 01dc 11       		.uleb128 0x11
 4394 01dd 01       		.uleb128 0x1
 4395 01de 12       		.uleb128 0x12
 4396 01df 06       		.uleb128 0x6
 4397 01e0 40       		.uleb128 0x40
 4398 01e1 18       		.uleb128 0x18
 4399 01e2 9642     		.uleb128 0x2116
 4400 01e4 19       		.uleb128 0x19
 4401 01e5 01       		.uleb128 0x1
 4402 01e6 13       		.uleb128 0x13
 4403 01e7 00       		.byte	0
 4404 01e8 00       		.byte	0
 4405 01e9 22       		.uleb128 0x22
 4406 01ea 0B       		.uleb128 0xb
 4407 01eb 01       		.byte	0x1
 4408 01ec 11       		.uleb128 0x11
 4409 01ed 01       		.uleb128 0x1
 4410 01ee 12       		.uleb128 0x12
 4411 01ef 06       		.uleb128 0x6
 4412 01f0 00       		.byte	0
 4413 01f1 00       		.byte	0
 4414 01f2 23       		.uleb128 0x23
 4415 01f3 0B       		.uleb128 0xb
 4416 01f4 01       		.byte	0x1
 4417 01f5 11       		.uleb128 0x11
 4418 01f6 01       		.uleb128 0x1
 4419 01f7 12       		.uleb128 0x12
 4420 01f8 06       		.uleb128 0x6
 4421 01f9 01       		.uleb128 0x1
 4422 01fa 13       		.uleb128 0x13
 4423 01fb 00       		.byte	0
 4424 01fc 00       		.byte	0
 4425 01fd 24       		.uleb128 0x24
 4426 01fe 2E       		.uleb128 0x2e
 4427 01ff 01       		.byte	0x1
 4428 0200 3F       		.uleb128 0x3f
 4429 0201 19       		.uleb128 0x19
 4430 0202 03       		.uleb128 0x3
 4431 0203 0E       		.uleb128 0xe
 4432 0204 3A       		.uleb128 0x3a
 4433 0205 0B       		.uleb128 0xb
 4434 0206 3B       		.uleb128 0x3b
 4435 0207 05       		.uleb128 0x5
 4436 0208 27       		.uleb128 0x27
 4437 0209 19       		.uleb128 0x19
 4438 020a 49       		.uleb128 0x49
 4439 020b 13       		.uleb128 0x13
 4440 020c 11       		.uleb128 0x11
 4441 020d 01       		.uleb128 0x1
 4442 020e 12       		.uleb128 0x12
 4443 020f 06       		.uleb128 0x6
 4444 0210 40       		.uleb128 0x40
ARM GAS  C:\Users\Larry\AppData\Local\Temp\ccxlVo0w.s 			page 108


 4445 0211 18       		.uleb128 0x18
 4446 0212 9742     		.uleb128 0x2117
 4447 0214 19       		.uleb128 0x19
 4448 0215 01       		.uleb128 0x1
 4449 0216 13       		.uleb128 0x13
 4450 0217 00       		.byte	0
 4451 0218 00       		.byte	0
 4452 0219 25       		.uleb128 0x25
 4453 021a 2E       		.uleb128 0x2e
 4454 021b 00       		.byte	0
 4455 021c 3F       		.uleb128 0x3f
 4456 021d 19       		.uleb128 0x19
 4457 021e 3C       		.uleb128 0x3c
 4458 021f 19       		.uleb128 0x19
 4459 0220 6E       		.uleb128 0x6e
 4460 0221 0E       		.uleb128 0xe
 4461 0222 03       		.uleb128 0x3
 4462 0223 0E       		.uleb128 0xe
 4463 0224 3A       		.uleb128 0x3a
 4464 0225 0B       		.uleb128 0xb
 4465 0226 3B       		.uleb128 0x3b
 4466 0227 0B       		.uleb128 0xb
 4467 0228 00       		.byte	0
 4468 0229 00       		.byte	0
 4469 022a 26       		.uleb128 0x26
 4470 022b 2E       		.uleb128 0x2e
 4471 022c 00       		.byte	0
 4472 022d 3F       		.uleb128 0x3f
 4473 022e 19       		.uleb128 0x19
 4474 022f 3C       		.uleb128 0x3c
 4475 0230 19       		.uleb128 0x19
 4476 0231 6E       		.uleb128 0x6e
 4477 0232 0E       		.uleb128 0xe
 4478 0233 03       		.uleb128 0x3
 4479 0234 0E       		.uleb128 0xe
 4480 0235 00       		.byte	0
 4481 0236 00       		.byte	0
 4482 0237 00       		.byte	0
 4483              		.section	.debug_loc,"",%progbits
 4484              	.Ldebug_loc0:
 4485              	.LLST0:
 4486 0000 02000000 		.4byte	.LVL1
 4487 0004 0C000000 		.4byte	.LVL4
 4488 0008 0200     		.2byte	0x2
 4489 000a 30       		.byte	0x30
 4490 000b 9F       		.byte	0x9f
 4491 000c 0E000000 		.4byte	.LVL5
 4492 0010 1E000000 		.4byte	.LVL9
 4493 0014 0100     		.2byte	0x1
 4494 0016 53       		.byte	0x53
 4495 0017 00000000 		.4byte	0
 4496 001b 00000000 		.4byte	0
 4497              	.LLST1:
 4498 001f 02000000 		.4byte	.LVL1
 4499 0023 0C000000 		.4byte	.LVL4
 4500 0027 0200     		.2byte	0x2
 4501 0029 30       		.byte	0x30
ARM GAS  C:\Users\Larry\AppData\Local\Temp\ccxlVo0w.s 			page 109


 4502 002a 9F       		.byte	0x9f
 4503 002b 0C000000 		.4byte	.LVL4
 4504 002f 16000000 		.4byte	.LVL6
 4505 0033 0100     		.2byte	0x1
 4506 0035 55       		.byte	0x55
 4507 0036 16000000 		.4byte	.LVL6
 4508 003a 1A000000 		.4byte	.LVL7
 4509 003e 0100     		.2byte	0x1
 4510 0040 53       		.byte	0x53
 4511 0041 1A000000 		.4byte	.LVL7
 4512 0045 28000000 		.4byte	.LVL11
 4513 0049 0100     		.2byte	0x1
 4514 004b 55       		.byte	0x55
 4515 004c 00000000 		.4byte	0
 4516 0050 00000000 		.4byte	0
 4517              	.LLST2:
 4518 0054 06000000 		.4byte	.LVL3
 4519 0058 0C000000 		.4byte	.LVL4
 4520 005c 0200     		.2byte	0x2
 4521 005e 30       		.byte	0x30
 4522 005f 9F       		.byte	0x9f
 4523 0060 0C000000 		.4byte	.LVL4
 4524 0064 28000000 		.4byte	.LVL10
 4525 0068 0100     		.2byte	0x1
 4526 006a 54       		.byte	0x54
 4527 006b 00000000 		.4byte	0
 4528 006f 00000000 		.4byte	0
 4529              	.LLST3:
 4530 0073 00000000 		.4byte	.LVL12
 4531 0077 18000000 		.4byte	.LVL16
 4532 007b 0100     		.2byte	0x1
 4533 007d 50       		.byte	0x50
 4534 007e 18000000 		.4byte	.LVL16
 4535 0082 1A000000 		.4byte	.LFE7
 4536 0086 0400     		.2byte	0x4
 4537 0088 F3       		.byte	0xf3
 4538 0089 01       		.uleb128 0x1
 4539 008a 50       		.byte	0x50
 4540 008b 9F       		.byte	0x9f
 4541 008c 00000000 		.4byte	0
 4542 0090 00000000 		.4byte	0
 4543              	.LLST4:
 4544 0094 00000000 		.4byte	.LVL17
 4545 0098 2A000000 		.4byte	.LVL18
 4546 009c 0100     		.2byte	0x1
 4547 009e 50       		.byte	0x50
 4548 009f 2A000000 		.4byte	.LVL18
 4549 00a3 4C000000 		.4byte	.LVL21
 4550 00a7 0400     		.2byte	0x4
 4551 00a9 F3       		.byte	0xf3
 4552 00aa 01       		.uleb128 0x1
 4553 00ab 50       		.byte	0x50
 4554 00ac 9F       		.byte	0x9f
 4555 00ad 4C000000 		.4byte	.LVL21
 4556 00b1 50000000 		.4byte	.LVL23
 4557 00b5 0100     		.2byte	0x1
 4558 00b7 50       		.byte	0x50
ARM GAS  C:\Users\Larry\AppData\Local\Temp\ccxlVo0w.s 			page 110


 4559 00b8 50000000 		.4byte	.LVL23
 4560 00bc 58000000 		.4byte	.LFE8
 4561 00c0 0400     		.2byte	0x4
 4562 00c2 F3       		.byte	0xf3
 4563 00c3 01       		.uleb128 0x1
 4564 00c4 50       		.byte	0x50
 4565 00c5 9F       		.byte	0x9f
 4566 00c6 00000000 		.4byte	0
 4567 00ca 00000000 		.4byte	0
 4568              	.LLST5:
 4569 00ce 00000000 		.4byte	.LVL17
 4570 00d2 2C000000 		.4byte	.LVL19
 4571 00d6 0100     		.2byte	0x1
 4572 00d8 51       		.byte	0x51
 4573 00d9 2C000000 		.4byte	.LVL19
 4574 00dd 4C000000 		.4byte	.LVL21
 4575 00e1 0400     		.2byte	0x4
 4576 00e3 F3       		.byte	0xf3
 4577 00e4 01       		.uleb128 0x1
 4578 00e5 51       		.byte	0x51
 4579 00e6 9F       		.byte	0x9f
 4580 00e7 4C000000 		.4byte	.LVL21
 4581 00eb 50000000 		.4byte	.LVL23
 4582 00ef 0100     		.2byte	0x1
 4583 00f1 51       		.byte	0x51
 4584 00f2 50000000 		.4byte	.LVL23
 4585 00f6 58000000 		.4byte	.LFE8
 4586 00fa 0400     		.2byte	0x4
 4587 00fc F3       		.byte	0xf3
 4588 00fd 01       		.uleb128 0x1
 4589 00fe 51       		.byte	0x51
 4590 00ff 9F       		.byte	0x9f
 4591 0100 00000000 		.4byte	0
 4592 0104 00000000 		.4byte	0
 4593              	.LLST6:
 4594 0108 00000000 		.4byte	.LVL17
 4595 010c 30000000 		.4byte	.LVL20
 4596 0110 0100     		.2byte	0x1
 4597 0112 53       		.byte	0x53
 4598 0113 30000000 		.4byte	.LVL20
 4599 0117 4C000000 		.4byte	.LVL21
 4600 011b 0400     		.2byte	0x4
 4601 011d F3       		.byte	0xf3
 4602 011e 01       		.uleb128 0x1
 4603 011f 53       		.byte	0x53
 4604 0120 9F       		.byte	0x9f
 4605 0121 4C000000 		.4byte	.LVL21
 4606 0125 4E000000 		.4byte	.LVL22
 4607 0129 0100     		.2byte	0x1
 4608 012b 53       		.byte	0x53
 4609 012c 4E000000 		.4byte	.LVL22
 4610 0130 58000000 		.4byte	.LFE8
 4611 0134 0400     		.2byte	0x4
 4612 0136 F3       		.byte	0xf3
 4613 0137 01       		.uleb128 0x1
 4614 0138 53       		.byte	0x53
 4615 0139 9F       		.byte	0x9f
ARM GAS  C:\Users\Larry\AppData\Local\Temp\ccxlVo0w.s 			page 111


 4616 013a 00000000 		.4byte	0
 4617 013e 00000000 		.4byte	0
 4618              	.LLST7:
 4619 0142 00000000 		.4byte	.LVL24
 4620 0146 08000000 		.4byte	.LVL26
 4621 014a 0100     		.2byte	0x1
 4622 014c 50       		.byte	0x50
 4623 014d 08000000 		.4byte	.LVL26
 4624 0151 38000000 		.4byte	.LVL40
 4625 0155 0100     		.2byte	0x1
 4626 0157 55       		.byte	0x55
 4627 0158 38000000 		.4byte	.LVL40
 4628 015c 3A000000 		.4byte	.LFE9
 4629 0160 0400     		.2byte	0x4
 4630 0162 F3       		.byte	0xf3
 4631 0163 01       		.uleb128 0x1
 4632 0164 50       		.byte	0x50
 4633 0165 9F       		.byte	0x9f
 4634 0166 00000000 		.4byte	0
 4635 016a 00000000 		.4byte	0
 4636              	.LLST8:
 4637 016e 04000000 		.4byte	.LVL25
 4638 0172 0A000000 		.4byte	.LVL27
 4639 0176 0300     		.2byte	0x3
 4640 0178 09       		.byte	0x9
 4641 0179 FF       		.byte	0xff
 4642 017a 9F       		.byte	0x9f
 4643 017b 0A000000 		.4byte	.LVL27
 4644 017f 1A000000 		.4byte	.LVL30
 4645 0183 0100     		.2byte	0x1
 4646 0185 50       		.byte	0x50
 4647 0186 1A000000 		.4byte	.LVL30
 4648 018a 1C000000 		.4byte	.LVL31
 4649 018e 0100     		.2byte	0x1
 4650 0190 53       		.byte	0x53
 4651 0191 24000000 		.4byte	.LVL32
 4652 0195 26000000 		.4byte	.LVL33
 4653 0199 0100     		.2byte	0x1
 4654 019b 50       		.byte	0x50
 4655 019c 26000000 		.4byte	.LVL33
 4656 01a0 28000000 		.4byte	.LVL34
 4657 01a4 0100     		.2byte	0x1
 4658 01a6 53       		.byte	0x53
 4659 01a7 28000000 		.4byte	.LVL34
 4660 01ab 3A000000 		.4byte	.LFE9
 4661 01af 0100     		.2byte	0x1
 4662 01b1 50       		.byte	0x50
 4663 01b2 00000000 		.4byte	0
 4664 01b6 00000000 		.4byte	0
 4665              	.LLST9:
 4666 01ba 0E000000 		.4byte	.LVL28
 4667 01be 12000000 		.4byte	.LVL29
 4668 01c2 0200     		.2byte	0x2
 4669 01c4 30       		.byte	0x30
 4670 01c5 9F       		.byte	0x9f
 4671 01c6 12000000 		.4byte	.LVL29
 4672 01ca 2A000000 		.4byte	.LVL35
ARM GAS  C:\Users\Larry\AppData\Local\Temp\ccxlVo0w.s 			page 112


 4673 01ce 0100     		.2byte	0x1
 4674 01d0 52       		.byte	0x52
 4675 01d1 2C000000 		.4byte	.LVL36
 4676 01d5 34000000 		.4byte	.LVL38
 4677 01d9 0100     		.2byte	0x1
 4678 01db 52       		.byte	0x52
 4679 01dc 00000000 		.4byte	0
 4680 01e0 00000000 		.4byte	0
 4681              	.LLST10:
 4682 01e4 04000000 		.4byte	.LVL25
 4683 01e8 0A000000 		.4byte	.LVL27
 4684 01ec 0200     		.2byte	0x2
 4685 01ee 30       		.byte	0x30
 4686 01ef 9F       		.byte	0x9f
 4687 01f0 0A000000 		.4byte	.LVL27
 4688 01f4 32000000 		.4byte	.LVL37
 4689 01f8 0100     		.2byte	0x1
 4690 01fa 54       		.byte	0x54
 4691 01fb 34000000 		.4byte	.LVL38
 4692 01ff 38000000 		.4byte	.LVL39
 4693 0203 0100     		.2byte	0x1
 4694 0205 54       		.byte	0x54
 4695 0206 00000000 		.4byte	0
 4696 020a 00000000 		.4byte	0
 4697              	.LLST11:
 4698 020e 00000000 		.4byte	.LVL41
 4699 0212 2E000000 		.4byte	.LVL45
 4700 0216 0100     		.2byte	0x1
 4701 0218 50       		.byte	0x50
 4702 0219 2E000000 		.4byte	.LVL45
 4703 021d 30000000 		.4byte	.LVL46
 4704 0221 0400     		.2byte	0x4
 4705 0223 F3       		.byte	0xf3
 4706 0224 01       		.uleb128 0x1
 4707 0225 50       		.byte	0x50
 4708 0226 9F       		.byte	0x9f
 4709 0227 30000000 		.4byte	.LVL46
 4710 022b 32000000 		.4byte	.LVL47
 4711 022f 0100     		.2byte	0x1
 4712 0231 50       		.byte	0x50
 4713 0232 32000000 		.4byte	.LVL47
 4714 0236 34000000 		.4byte	.LVL48
 4715 023a 0400     		.2byte	0x4
 4716 023c F3       		.byte	0xf3
 4717 023d 01       		.uleb128 0x1
 4718 023e 50       		.byte	0x50
 4719 023f 9F       		.byte	0x9f
 4720 0240 34000000 		.4byte	.LVL48
 4721 0244 36000000 		.4byte	.LVL49
 4722 0248 0100     		.2byte	0x1
 4723 024a 50       		.byte	0x50
 4724 024b 36000000 		.4byte	.LVL49
 4725 024f 38000000 		.4byte	.LFE10
 4726 0253 0400     		.2byte	0x4
 4727 0255 F3       		.byte	0xf3
 4728 0256 01       		.uleb128 0x1
 4729 0257 50       		.byte	0x50
ARM GAS  C:\Users\Larry\AppData\Local\Temp\ccxlVo0w.s 			page 113


 4730 0258 9F       		.byte	0x9f
 4731 0259 00000000 		.4byte	0
 4732 025d 00000000 		.4byte	0
 4733              	.LLST12:
 4734 0261 02000000 		.4byte	.LVL42
 4735 0265 36000000 		.4byte	.LVL49
 4736 0269 0200     		.2byte	0x2
 4737 026b 33       		.byte	0x33
 4738 026c 9F       		.byte	0x9f
 4739 026d 36000000 		.4byte	.LVL49
 4740 0271 38000000 		.4byte	.LFE10
 4741 0275 0100     		.2byte	0x1
 4742 0277 50       		.byte	0x50
 4743 0278 00000000 		.4byte	0
 4744 027c 00000000 		.4byte	0
 4745              	.LLST13:
 4746 0280 04000000 		.4byte	.LVL43
 4747 0284 36000000 		.4byte	.LVL50
 4748 0288 0100     		.2byte	0x1
 4749 028a 54       		.byte	0x54
 4750 028b 36000000 		.4byte	.LVL50
 4751 028f 38000000 		.4byte	.LFE10
 4752 0293 0500     		.2byte	0x5
 4753 0295 F3       		.byte	0xf3
 4754 0296 01       		.uleb128 0x1
 4755 0297 50       		.byte	0x50
 4756 0298 23       		.byte	0x23
 4757 0299 0C       		.uleb128 0xc
 4758 029a 00000000 		.4byte	0
 4759 029e 00000000 		.4byte	0
 4760              	.LLST14:
 4761 02a2 00000000 		.4byte	.LVL51
 4762 02a6 30000000 		.4byte	.LVL54
 4763 02aa 0100     		.2byte	0x1
 4764 02ac 50       		.byte	0x50
 4765 02ad 30000000 		.4byte	.LVL54
 4766 02b1 64000000 		.4byte	.LVL59
 4767 02b5 0400     		.2byte	0x4
 4768 02b7 F3       		.byte	0xf3
 4769 02b8 01       		.uleb128 0x1
 4770 02b9 50       		.byte	0x50
 4771 02ba 9F       		.byte	0x9f
 4772 02bb 64000000 		.4byte	.LVL59
 4773 02bf 9C000000 		.4byte	.LVL62
 4774 02c3 0100     		.2byte	0x1
 4775 02c5 50       		.byte	0x50
 4776 02c6 9C000000 		.4byte	.LVL62
 4777 02ca 9E000000 		.4byte	.LVL63
 4778 02ce 0400     		.2byte	0x4
 4779 02d0 F3       		.byte	0xf3
 4780 02d1 01       		.uleb128 0x1
 4781 02d2 50       		.byte	0x50
 4782 02d3 9F       		.byte	0x9f
 4783 02d4 9E000000 		.4byte	.LVL63
 4784 02d8 A0000000 		.4byte	.LVL64
 4785 02dc 0100     		.2byte	0x1
 4786 02de 50       		.byte	0x50
ARM GAS  C:\Users\Larry\AppData\Local\Temp\ccxlVo0w.s 			page 114


 4787 02df A0000000 		.4byte	.LVL64
 4788 02e3 A2000000 		.4byte	.LFE14
 4789 02e7 0400     		.2byte	0x4
 4790 02e9 F3       		.byte	0xf3
 4791 02ea 01       		.uleb128 0x1
 4792 02eb 50       		.byte	0x50
 4793 02ec 9F       		.byte	0x9f
 4794 02ed 00000000 		.4byte	0
 4795 02f1 00000000 		.4byte	0
 4796              	.LLST15:
 4797 02f5 00000000 		.4byte	.LVL51
 4798 02f9 28000000 		.4byte	.LVL53
 4799 02fd 0100     		.2byte	0x1
 4800 02ff 52       		.byte	0x52
 4801 0300 28000000 		.4byte	.LVL53
 4802 0304 64000000 		.4byte	.LVL59
 4803 0308 0400     		.2byte	0x4
 4804 030a F3       		.byte	0xf3
 4805 030b 01       		.uleb128 0x1
 4806 030c 52       		.byte	0x52
 4807 030d 9F       		.byte	0x9f
 4808 030e 64000000 		.4byte	.LVL59
 4809 0312 A0000000 		.4byte	.LVL64
 4810 0316 0100     		.2byte	0x1
 4811 0318 52       		.byte	0x52
 4812 0319 A0000000 		.4byte	.LVL64
 4813 031d A2000000 		.4byte	.LFE14
 4814 0321 0400     		.2byte	0x4
 4815 0323 F3       		.byte	0xf3
 4816 0324 01       		.uleb128 0x1
 4817 0325 52       		.byte	0x52
 4818 0326 9F       		.byte	0x9f
 4819 0327 00000000 		.4byte	0
 4820 032b 00000000 		.4byte	0
 4821              	.LLST16:
 4822 032f 00000000 		.4byte	.LVL51
 4823 0333 3A000000 		.4byte	.LVL55
 4824 0337 0100     		.2byte	0x1
 4825 0339 53       		.byte	0x53
 4826 033a 3A000000 		.4byte	.LVL55
 4827 033e 3C000000 		.4byte	.LVL56
 4828 0342 0300     		.2byte	0x3
 4829 0344 73       		.byte	0x73
 4830 0345 7F       		.sleb128 -1
 4831 0346 9F       		.byte	0x9f
 4832 0347 3C000000 		.4byte	.LVL56
 4833 034b 46000000 		.4byte	.LVL57
 4834 034f 0400     		.2byte	0x4
 4835 0351 F3       		.byte	0xf3
 4836 0352 01       		.uleb128 0x1
 4837 0353 53       		.byte	0x53
 4838 0354 9F       		.byte	0x9f
 4839 0355 46000000 		.4byte	.LVL57
 4840 0359 48000000 		.4byte	.LVL58
 4841 035d 0100     		.2byte	0x1
 4842 035f 53       		.byte	0x53
 4843 0360 48000000 		.4byte	.LVL58
ARM GAS  C:\Users\Larry\AppData\Local\Temp\ccxlVo0w.s 			page 115


 4844 0364 64000000 		.4byte	.LVL59
 4845 0368 0400     		.2byte	0x4
 4846 036a F3       		.byte	0xf3
 4847 036b 01       		.uleb128 0x1
 4848 036c 53       		.byte	0x53
 4849 036d 9F       		.byte	0x9f
 4850 036e 64000000 		.4byte	.LVL59
 4851 0372 6E000000 		.4byte	.LVL60
 4852 0376 0100     		.2byte	0x1
 4853 0378 53       		.byte	0x53
 4854 0379 6E000000 		.4byte	.LVL60
 4855 037d 70000000 		.4byte	.LVL61
 4856 0381 0300     		.2byte	0x3
 4857 0383 73       		.byte	0x73
 4858 0384 7F       		.sleb128 -1
 4859 0385 9F       		.byte	0x9f
 4860 0386 70000000 		.4byte	.LVL61
 4861 038a A2000000 		.4byte	.LFE14
 4862 038e 0400     		.2byte	0x4
 4863 0390 F3       		.byte	0xf3
 4864 0391 01       		.uleb128 0x1
 4865 0392 53       		.byte	0x53
 4866 0393 9F       		.byte	0x9f
 4867 0394 00000000 		.4byte	0
 4868 0398 00000000 		.4byte	0
 4869              	.LLST17:
 4870 039c 04000000 		.4byte	.LVL52
 4871 03a0 A0000000 		.4byte	.LVL64
 4872 03a4 0200     		.2byte	0x2
 4873 03a6 30       		.byte	0x30
 4874 03a7 9F       		.byte	0x9f
 4875 03a8 A0000000 		.4byte	.LVL64
 4876 03ac A2000000 		.4byte	.LFE14
 4877 03b0 0100     		.2byte	0x1
 4878 03b2 50       		.byte	0x50
 4879 03b3 00000000 		.4byte	0
 4880 03b7 00000000 		.4byte	0
 4881              	.LLST18:
 4882 03bb 00000000 		.4byte	.LVL65
 4883 03bf 04000000 		.4byte	.LVL67
 4884 03c3 0100     		.2byte	0x1
 4885 03c5 50       		.byte	0x50
 4886 03c6 04000000 		.4byte	.LVL67
 4887 03ca 18000000 		.4byte	.LFE11
 4888 03ce 0400     		.2byte	0x4
 4889 03d0 F3       		.byte	0xf3
 4890 03d1 01       		.uleb128 0x1
 4891 03d2 50       		.byte	0x50
 4892 03d3 9F       		.byte	0x9f
 4893 03d4 00000000 		.4byte	0
 4894 03d8 00000000 		.4byte	0
 4895              	.LLST19:
 4896 03dc 00000000 		.4byte	.LVL65
 4897 03e0 0B000000 		.4byte	.LVL69-1
 4898 03e4 0100     		.2byte	0x1
 4899 03e6 51       		.byte	0x51
 4900 03e7 0B000000 		.4byte	.LVL69-1
ARM GAS  C:\Users\Larry\AppData\Local\Temp\ccxlVo0w.s 			page 116


 4901 03eb 18000000 		.4byte	.LFE11
 4902 03ef 0400     		.2byte	0x4
 4903 03f1 F3       		.byte	0xf3
 4904 03f2 01       		.uleb128 0x1
 4905 03f3 51       		.byte	0x51
 4906 03f4 9F       		.byte	0x9f
 4907 03f5 00000000 		.4byte	0
 4908 03f9 00000000 		.4byte	0
 4909              	.LLST20:
 4910 03fd 00000000 		.4byte	.LVL65
 4911 0401 0B000000 		.4byte	.LVL69-1
 4912 0405 0100     		.2byte	0x1
 4913 0407 52       		.byte	0x52
 4914 0408 0B000000 		.4byte	.LVL69-1
 4915 040c 18000000 		.4byte	.LFE11
 4916 0410 0400     		.2byte	0x4
 4917 0412 F3       		.byte	0xf3
 4918 0413 01       		.uleb128 0x1
 4919 0414 52       		.byte	0x52
 4920 0415 9F       		.byte	0x9f
 4921 0416 00000000 		.4byte	0
 4922 041a 00000000 		.4byte	0
 4923              	.LLST21:
 4924 041e 02000000 		.4byte	.LVL66
 4925 0422 16000000 		.4byte	.LVL72
 4926 0426 0200     		.2byte	0x2
 4927 0428 34       		.byte	0x34
 4928 0429 9F       		.byte	0x9f
 4929 042a 16000000 		.4byte	.LVL72
 4930 042e 18000000 		.4byte	.LFE11
 4931 0432 0100     		.2byte	0x1
 4932 0434 50       		.byte	0x50
 4933 0435 00000000 		.4byte	0
 4934 0439 00000000 		.4byte	0
 4935              	.LLST22:
 4936 043d 0C000000 		.4byte	.LVL69
 4937 0441 12000000 		.4byte	.LVL70
 4938 0445 0100     		.2byte	0x1
 4939 0447 50       		.byte	0x50
 4940 0448 14000000 		.4byte	.LVL71
 4941 044c 16000000 		.4byte	.LVL72
 4942 0450 0100     		.2byte	0x1
 4943 0452 50       		.byte	0x50
 4944 0453 00000000 		.4byte	0
 4945 0457 00000000 		.4byte	0
 4946              	.LLST23:
 4947 045b 08000000 		.4byte	.LVL68
 4948 045f 0B000000 		.4byte	.LVL69-1
 4949 0463 0100     		.2byte	0x1
 4950 0465 50       		.byte	0x50
 4951 0466 0B000000 		.4byte	.LVL69-1
 4952 046a 18000000 		.4byte	.LFE11
 4953 046e 0A00     		.2byte	0xa
 4954 0470 F3       		.byte	0xf3
 4955 0471 01       		.uleb128 0x1
 4956 0472 50       		.byte	0x50
 4957 0473 37       		.byte	0x37
ARM GAS  C:\Users\Larry\AppData\Local\Temp\ccxlVo0w.s 			page 117


 4958 0474 25       		.byte	0x25
 4959 0475 47       		.byte	0x47
 4960 0476 24       		.byte	0x24
 4961 0477 47       		.byte	0x47
 4962 0478 25       		.byte	0x25
 4963 0479 9F       		.byte	0x9f
 4964 047a 00000000 		.4byte	0
 4965 047e 00000000 		.4byte	0
 4966              	.LLST24:
 4967 0482 00000000 		.4byte	.LVL73
 4968 0486 12000000 		.4byte	.LVL75
 4969 048a 0100     		.2byte	0x1
 4970 048c 50       		.byte	0x50
 4971 048d 12000000 		.4byte	.LVL75
 4972 0491 68000000 		.4byte	.LVL87
 4973 0495 0100     		.2byte	0x1
 4974 0497 54       		.byte	0x54
 4975 0498 68000000 		.4byte	.LVL87
 4976 049c 6A000000 		.4byte	.LFE15
 4977 04a0 0400     		.2byte	0x4
 4978 04a2 F3       		.byte	0xf3
 4979 04a3 01       		.uleb128 0x1
 4980 04a4 50       		.byte	0x50
 4981 04a5 9F       		.byte	0x9f
 4982 04a6 00000000 		.4byte	0
 4983 04aa 00000000 		.4byte	0
 4984              	.LLST25:
 4985 04ae 0C000000 		.4byte	.LVL74
 4986 04b2 12000000 		.4byte	.LVL75
 4987 04b6 0200     		.2byte	0x2
 4988 04b8 30       		.byte	0x30
 4989 04b9 9F       		.byte	0x9f
 4990 04ba 12000000 		.4byte	.LVL75
 4991 04be 68000000 		.4byte	.LVL90
 4992 04c2 0100     		.2byte	0x1
 4993 04c4 57       		.byte	0x57
 4994 04c5 00000000 		.4byte	0
 4995 04c9 00000000 		.4byte	0
 4996              	.LLST26:
 4997 04cd 42000000 		.4byte	.LVL81
 4998 04d1 49000000 		.4byte	.LVL82-1
 4999 04d5 0100     		.2byte	0x1
 5000 04d7 50       		.byte	0x50
 5001 04d8 00000000 		.4byte	0
 5002 04dc 00000000 		.4byte	0
 5003              	.LLST27:
 5004 04e0 0C000000 		.4byte	.LVL74
 5005 04e4 68000000 		.4byte	.LVL88
 5006 04e8 0100     		.2byte	0x1
 5007 04ea 55       		.byte	0x55
 5008 04eb 00000000 		.4byte	0
 5009 04ef 00000000 		.4byte	0
 5010              	.LLST28:
 5011 04f3 0C000000 		.4byte	.LVL74
 5012 04f7 12000000 		.4byte	.LVL75
 5013 04fb 0200     		.2byte	0x2
 5014 04fd 31       		.byte	0x31
ARM GAS  C:\Users\Larry\AppData\Local\Temp\ccxlVo0w.s 			page 118


 5015 04fe 9F       		.byte	0x9f
 5016 04ff 12000000 		.4byte	.LVL75
 5017 0503 14000000 		.4byte	.LVL76
 5018 0507 0100     		.2byte	0x1
 5019 0509 56       		.byte	0x56
 5020 050a 4C000000 		.4byte	.LVL83
 5021 050e 54000000 		.4byte	.LVL84
 5022 0512 0100     		.2byte	0x1
 5023 0514 50       		.byte	0x50
 5024 0515 54000000 		.4byte	.LVL84
 5025 0519 68000000 		.4byte	.LVL89
 5026 051d 0100     		.2byte	0x1
 5027 051f 56       		.byte	0x56
 5028 0520 00000000 		.4byte	0
 5029 0524 00000000 		.4byte	0
 5030              	.LLST29:
 5031 0528 00000000 		.4byte	.LVL91
 5032 052c 1C000000 		.4byte	.LVL94
 5033 0530 0100     		.2byte	0x1
 5034 0532 50       		.byte	0x50
 5035 0533 1C000000 		.4byte	.LVL94
 5036 0537 78000000 		.4byte	.LVL109
 5037 053b 0100     		.2byte	0x1
 5038 053d 56       		.byte	0x56
 5039 053e 78000000 		.4byte	.LVL109
 5040 0542 7A000000 		.4byte	.LFE13
 5041 0546 0400     		.2byte	0x4
 5042 0548 F3       		.byte	0xf3
 5043 0549 01       		.uleb128 0x1
 5044 054a 50       		.byte	0x50
 5045 054b 9F       		.byte	0x9f
 5046 054c 00000000 		.4byte	0
 5047 0550 00000000 		.4byte	0
 5048              	.LLST30:
 5049 0554 00000000 		.4byte	.LVL91
 5050 0558 1E000000 		.4byte	.LVL95
 5051 055c 0100     		.2byte	0x1
 5052 055e 51       		.byte	0x51
 5053 055f 1E000000 		.4byte	.LVL95
 5054 0563 7A000000 		.4byte	.LFE13
 5055 0567 0300     		.2byte	0x3
 5056 0569 91       		.byte	0x91
 5057 056a DC7E     		.sleb128 -164
 5058 056c 00000000 		.4byte	0
 5059 0570 00000000 		.4byte	0
 5060              	.LLST31:
 5061 0574 00000000 		.4byte	.LVL91
 5062 0578 21000000 		.4byte	.LVL96-1
 5063 057c 0100     		.2byte	0x1
 5064 057e 52       		.byte	0x52
 5065 057f 21000000 		.4byte	.LVL96-1
 5066 0583 7A000000 		.4byte	.LFE13
 5067 0587 0300     		.2byte	0x3
 5068 0589 91       		.byte	0x91
 5069 058a E07E     		.sleb128 -160
 5070 058c 00000000 		.4byte	0
 5071 0590 00000000 		.4byte	0
ARM GAS  C:\Users\Larry\AppData\Local\Temp\ccxlVo0w.s 			page 119


 5072              	.LLST32:
 5073 0594 00000000 		.4byte	.LVL91
 5074 0598 10000000 		.4byte	.LVL92
 5075 059c 0100     		.2byte	0x1
 5076 059e 53       		.byte	0x53
 5077 059f 10000000 		.4byte	.LVL92
 5078 05a3 7A000000 		.4byte	.LFE13
 5079 05a7 0300     		.2byte	0x3
 5080 05a9 91       		.byte	0x91
 5081 05aa E47E     		.sleb128 -156
 5082 05ac 00000000 		.4byte	0
 5083 05b0 00000000 		.4byte	0
 5084              	.LLST33:
 5085 05b4 32000000 		.4byte	.LVL97
 5086 05b8 36000000 		.4byte	.LVL99
 5087 05bc 0200     		.2byte	0x2
 5088 05be 30       		.byte	0x30
 5089 05bf 9F       		.byte	0x9f
 5090 05c0 5C000000 		.4byte	.LVL103
 5091 05c4 6C000000 		.4byte	.LVL104
 5092 05c8 0100     		.2byte	0x1
 5093 05ca 50       		.byte	0x50
 5094 05cb 6C000000 		.4byte	.LVL104
 5095 05cf 72000000 		.4byte	.LVL106
 5096 05d3 0100     		.2byte	0x1
 5097 05d5 54       		.byte	0x54
 5098 05d6 74000000 		.4byte	.LVL107
 5099 05da 78000000 		.4byte	.LVL108
 5100 05de 0100     		.2byte	0x1
 5101 05e0 54       		.byte	0x54
 5102 05e1 00000000 		.4byte	0
 5103 05e5 00000000 		.4byte	0
 5104              	.LLST34:
 5105 05e9 18000000 		.4byte	.LVL93
 5106 05ed 34000000 		.4byte	.LVL98
 5107 05f1 0100     		.2byte	0x1
 5108 05f3 54       		.byte	0x54
 5109 05f4 36000000 		.4byte	.LVL99
 5110 05f8 5C000000 		.4byte	.LVL103
 5111 05fc 0100     		.2byte	0x1
 5112 05fe 54       		.byte	0x54
 5113 05ff 72000000 		.4byte	.LVL106
 5114 0603 74000000 		.4byte	.LVL107
 5115 0607 0100     		.2byte	0x1
 5116 0609 54       		.byte	0x54
 5117 060a 00000000 		.4byte	0
 5118 060e 00000000 		.4byte	0
 5119              	.LLST35:
 5120 0612 00000000 		.4byte	.LVL110
 5121 0616 0B000000 		.4byte	.LVL112-1
 5122 061a 0100     		.2byte	0x1
 5123 061c 50       		.byte	0x50
 5124 061d 0B000000 		.4byte	.LVL112-1
 5125 0621 2E000000 		.4byte	.LVL116
 5126 0625 0100     		.2byte	0x1
 5127 0627 54       		.byte	0x54
 5128 0628 2E000000 		.4byte	.LVL116
ARM GAS  C:\Users\Larry\AppData\Local\Temp\ccxlVo0w.s 			page 120


 5129 062c 30000000 		.4byte	.LFE12
 5130 0630 0400     		.2byte	0x4
 5131 0632 F3       		.byte	0xf3
 5132 0633 01       		.uleb128 0x1
 5133 0634 50       		.byte	0x50
 5134 0635 9F       		.byte	0x9f
 5135 0636 00000000 		.4byte	0
 5136 063a 00000000 		.4byte	0
 5137              	.LLST36:
 5138 063e 00000000 		.4byte	.LVL110
 5139 0642 0B000000 		.4byte	.LVL112-1
 5140 0646 0100     		.2byte	0x1
 5141 0648 51       		.byte	0x51
 5142 0649 0B000000 		.4byte	.LVL112-1
 5143 064d 2E000000 		.4byte	.LVL117
 5144 0651 0100     		.2byte	0x1
 5145 0653 55       		.byte	0x55
 5146 0654 2E000000 		.4byte	.LVL117
 5147 0658 30000000 		.4byte	.LFE12
 5148 065c 0400     		.2byte	0x4
 5149 065e F3       		.byte	0xf3
 5150 065f 01       		.uleb128 0x1
 5151 0660 51       		.byte	0x51
 5152 0661 9F       		.byte	0x9f
 5153 0662 00000000 		.4byte	0
 5154 0666 00000000 		.4byte	0
 5155              	.LLST37:
 5156 066a 00000000 		.4byte	.LVL110
 5157 066e 0B000000 		.4byte	.LVL112-1
 5158 0672 0100     		.2byte	0x1
 5159 0674 52       		.byte	0x52
 5160 0675 0B000000 		.4byte	.LVL112-1
 5161 0679 2E000000 		.4byte	.LVL118
 5162 067d 0100     		.2byte	0x1
 5163 067f 56       		.byte	0x56
 5164 0680 2E000000 		.4byte	.LVL118
 5165 0684 30000000 		.4byte	.LFE12
 5166 0688 0400     		.2byte	0x4
 5167 068a F3       		.byte	0xf3
 5168 068b 01       		.uleb128 0x1
 5169 068c 52       		.byte	0x52
 5170 068d 9F       		.byte	0x9f
 5171 068e 00000000 		.4byte	0
 5172 0692 00000000 		.4byte	0
 5173              	.LLST38:
 5174 0696 08000000 		.4byte	.LVL111
 5175 069a 0B000000 		.4byte	.LVL112-1
 5176 069e 0100     		.2byte	0x1
 5177 06a0 50       		.byte	0x50
 5178 06a1 0B000000 		.4byte	.LVL112-1
 5179 06a5 20000000 		.4byte	.LVL114
 5180 06a9 0100     		.2byte	0x1
 5181 06ab 54       		.byte	0x54
 5182 06ac 20000000 		.4byte	.LVL114
 5183 06b0 27000000 		.4byte	.LVL115-1
 5184 06b4 0100     		.2byte	0x1
 5185 06b6 50       		.byte	0x50
ARM GAS  C:\Users\Larry\AppData\Local\Temp\ccxlVo0w.s 			page 121


 5186 06b7 00000000 		.4byte	0
 5187 06bb 00000000 		.4byte	0
 5188              	.LLST39:
 5189 06bf 08000000 		.4byte	.LVL111
 5190 06c3 0C000000 		.4byte	.LVL112
 5191 06c7 0200     		.2byte	0x2
 5192 06c9 34       		.byte	0x34
 5193 06ca 9F       		.byte	0x9f
 5194 06cb 0C000000 		.4byte	.LVL112
 5195 06cf 1A000000 		.4byte	.LVL113
 5196 06d3 0100     		.2byte	0x1
 5197 06d5 50       		.byte	0x50
 5198 06d6 28000000 		.4byte	.LVL115
 5199 06da 30000000 		.4byte	.LFE12
 5200 06de 0100     		.2byte	0x1
 5201 06e0 50       		.byte	0x50
 5202 06e1 00000000 		.4byte	0
 5203 06e5 00000000 		.4byte	0
 5204              	.LLST40:
 5205 06e9 00000000 		.4byte	.LVL119
 5206 06ed 21000000 		.4byte	.LVL121-1
 5207 06f1 0100     		.2byte	0x1
 5208 06f3 50       		.byte	0x50
 5209 06f4 21000000 		.4byte	.LVL121-1
 5210 06f8 56000000 		.4byte	.LVL123
 5211 06fc 0100     		.2byte	0x1
 5212 06fe 54       		.byte	0x54
 5213 06ff 56000000 		.4byte	.LVL123
 5214 0703 80000000 		.4byte	.LVL130
 5215 0707 0400     		.2byte	0x4
 5216 0709 F3       		.byte	0xf3
 5217 070a 01       		.uleb128 0x1
 5218 070b 50       		.byte	0x50
 5219 070c 9F       		.byte	0x9f
 5220 070d 80000000 		.4byte	.LVL130
 5221 0711 92000000 		.4byte	.LVL131
 5222 0715 0100     		.2byte	0x1
 5223 0717 50       		.byte	0x50
 5224 0718 92000000 		.4byte	.LVL131
 5225 071c 96000000 		.4byte	.LFE1
 5226 0720 0400     		.2byte	0x4
 5227 0722 F3       		.byte	0xf3
 5228 0723 01       		.uleb128 0x1
 5229 0724 50       		.byte	0x50
 5230 0725 9F       		.byte	0x9f
 5231 0726 00000000 		.4byte	0
 5232 072a 00000000 		.4byte	0
 5233              	.LLST41:
 5234 072e 00000000 		.4byte	.LVL119
 5235 0732 21000000 		.4byte	.LVL121-1
 5236 0736 0100     		.2byte	0x1
 5237 0738 51       		.byte	0x51
 5238 0739 21000000 		.4byte	.LVL121-1
 5239 073d 80000000 		.4byte	.LVL130
 5240 0741 0100     		.2byte	0x1
 5241 0743 55       		.byte	0x55
 5242 0744 80000000 		.4byte	.LVL130
ARM GAS  C:\Users\Larry\AppData\Local\Temp\ccxlVo0w.s 			page 122


 5243 0748 92000000 		.4byte	.LVL131
 5244 074c 0100     		.2byte	0x1
 5245 074e 51       		.byte	0x51
 5246 074f 92000000 		.4byte	.LVL131
 5247 0753 94000000 		.4byte	.LVL132
 5248 0757 0100     		.2byte	0x1
 5249 0759 55       		.byte	0x55
 5250 075a 94000000 		.4byte	.LVL132
 5251 075e 96000000 		.4byte	.LFE1
 5252 0762 0400     		.2byte	0x4
 5253 0764 F3       		.byte	0xf3
 5254 0765 01       		.uleb128 0x1
 5255 0766 51       		.byte	0x51
 5256 0767 9F       		.byte	0x9f
 5257 0768 00000000 		.4byte	0
 5258 076c 00000000 		.4byte	0
 5259              	.LLST42:
 5260 0770 06000000 		.4byte	.LVL120
 5261 0774 24000000 		.4byte	.LVL122
 5262 0778 0200     		.2byte	0x2
 5263 077a 31       		.byte	0x31
 5264 077b 9F       		.byte	0x9f
 5265 077c 24000000 		.4byte	.LVL122
 5266 0780 5C000000 		.4byte	.LVL124
 5267 0784 0100     		.2byte	0x1
 5268 0786 50       		.byte	0x50
 5269 0787 5C000000 		.4byte	.LVL124
 5270 078b 76000000 		.4byte	.LVL127
 5271 078f 0100     		.2byte	0x1
 5272 0791 56       		.byte	0x56
 5273 0792 76000000 		.4byte	.LVL127
 5274 0796 7A000000 		.4byte	.LVL128
 5275 079a 0100     		.2byte	0x1
 5276 079c 50       		.byte	0x50
 5277 079d 7A000000 		.4byte	.LVL128
 5278 07a1 80000000 		.4byte	.LVL130
 5279 07a5 0100     		.2byte	0x1
 5280 07a7 56       		.byte	0x56
 5281 07a8 80000000 		.4byte	.LVL130
 5282 07ac 92000000 		.4byte	.LVL131
 5283 07b0 0200     		.2byte	0x2
 5284 07b2 31       		.byte	0x31
 5285 07b3 9F       		.byte	0x9f
 5286 07b4 92000000 		.4byte	.LVL131
 5287 07b8 94000000 		.4byte	.LVL133
 5288 07bc 0100     		.2byte	0x1
 5289 07be 56       		.byte	0x56
 5290 07bf 00000000 		.4byte	0
 5291 07c3 00000000 		.4byte	0
 5292              	.LLST43:
 5293 07c7 00000000 		.4byte	.LVL134
 5294 07cb 26000000 		.4byte	.LVL139
 5295 07cf 0100     		.2byte	0x1
 5296 07d1 50       		.byte	0x50
 5297 07d2 26000000 		.4byte	.LVL139
 5298 07d6 86000000 		.4byte	.LVL149
 5299 07da 0100     		.2byte	0x1
ARM GAS  C:\Users\Larry\AppData\Local\Temp\ccxlVo0w.s 			page 123


 5300 07dc 59       		.byte	0x59
 5301 07dd 86000000 		.4byte	.LVL149
 5302 07e1 C8000000 		.4byte	.LVL162
 5303 07e5 0100     		.2byte	0x1
 5304 07e7 52       		.byte	0x52
 5305 07e8 C8000000 		.4byte	.LVL162
 5306 07ec D0000000 		.4byte	.LVL164
 5307 07f0 0100     		.2byte	0x1
 5308 07f2 59       		.byte	0x59
 5309 07f3 D0000000 		.4byte	.LVL164
 5310 07f7 D6000000 		.4byte	.LVL166
 5311 07fb 0100     		.2byte	0x1
 5312 07fd 52       		.byte	0x52
 5313 07fe D6000000 		.4byte	.LVL166
 5314 0802 0E020000 		.4byte	.LVL221
 5315 0806 0200     		.2byte	0x2
 5316 0808 91       		.byte	0x91
 5317 0809 4C       		.sleb128 -52
 5318 080a 0E020000 		.4byte	.LVL221
 5319 080e 14020000 		.4byte	.LVL222
 5320 0812 0100     		.2byte	0x1
 5321 0814 50       		.byte	0x50
 5322 0815 14020000 		.4byte	.LVL222
 5323 0819 1E020000 		.4byte	.LVL225
 5324 081d 0100     		.2byte	0x1
 5325 081f 59       		.byte	0x59
 5326 0820 1E020000 		.4byte	.LVL225
 5327 0824 2E020000 		.4byte	.LFE2
 5328 0828 0400     		.2byte	0x4
 5329 082a F3       		.byte	0xf3
 5330 082b 01       		.uleb128 0x1
 5331 082c 50       		.byte	0x50
 5332 082d 9F       		.byte	0x9f
 5333 082e 00000000 		.4byte	0
 5334 0832 00000000 		.4byte	0
 5335              	.LLST44:
 5336 0836 00000000 		.4byte	.LVL134
 5337 083a 4E000000 		.4byte	.LVL144
 5338 083e 0100     		.2byte	0x1
 5339 0840 51       		.byte	0x51
 5340 0841 4E000000 		.4byte	.LVL144
 5341 0845 CE000000 		.4byte	.LVL163
 5342 0849 0200     		.2byte	0x2
 5343 084b 91       		.byte	0x91
 5344 084c 4C       		.sleb128 -52
 5345 084d CE000000 		.4byte	.LVL163
 5346 0851 0E020000 		.4byte	.LVL221
 5347 0855 0200     		.2byte	0x2
 5348 0857 91       		.byte	0x91
 5349 0858 48       		.sleb128 -56
 5350 0859 0E020000 		.4byte	.LVL221
 5351 085d 1E020000 		.4byte	.LVL225
 5352 0861 0100     		.2byte	0x1
 5353 0863 51       		.byte	0x51
 5354 0864 1E020000 		.4byte	.LVL225
 5355 0868 2E020000 		.4byte	.LFE2
 5356 086c 0200     		.2byte	0x2
ARM GAS  C:\Users\Larry\AppData\Local\Temp\ccxlVo0w.s 			page 124


 5357 086e 91       		.byte	0x91
 5358 086f 48       		.sleb128 -56
 5359 0870 00000000 		.4byte	0
 5360 0874 00000000 		.4byte	0
 5361              	.LLST45:
 5362 0878 00000000 		.4byte	.LVL134
 5363 087c 22000000 		.4byte	.LVL138
 5364 0880 0100     		.2byte	0x1
 5365 0882 52       		.byte	0x52
 5366 0883 22000000 		.4byte	.LVL138
 5367 0887 D6000000 		.4byte	.LVL166
 5368 088b 0100     		.2byte	0x1
 5369 088d 5A       		.byte	0x5a
 5370 088e D6000000 		.4byte	.LVL166
 5371 0892 0E020000 		.4byte	.LVL221
 5372 0896 0400     		.2byte	0x4
 5373 0898 F3       		.byte	0xf3
 5374 0899 01       		.uleb128 0x1
 5375 089a 52       		.byte	0x52
 5376 089b 9F       		.byte	0x9f
 5377 089c 0E020000 		.4byte	.LVL221
 5378 08a0 14020000 		.4byte	.LVL222
 5379 08a4 0100     		.2byte	0x1
 5380 08a6 52       		.byte	0x52
 5381 08a7 14020000 		.4byte	.LVL222
 5382 08ab 18020000 		.4byte	.LVL223
 5383 08af 0100     		.2byte	0x1
 5384 08b1 5A       		.byte	0x5a
 5385 08b2 18020000 		.4byte	.LVL223
 5386 08b6 1A020000 		.4byte	.LVL224
 5387 08ba 0400     		.2byte	0x4
 5388 08bc F3       		.byte	0xf3
 5389 08bd 01       		.uleb128 0x1
 5390 08be 52       		.byte	0x52
 5391 08bf 9F       		.byte	0x9f
 5392 08c0 1A020000 		.4byte	.LVL224
 5393 08c4 1E020000 		.4byte	.LVL225
 5394 08c8 0100     		.2byte	0x1
 5395 08ca 5A       		.byte	0x5a
 5396 08cb 1E020000 		.4byte	.LVL225
 5397 08cf 2E020000 		.4byte	.LFE2
 5398 08d3 0400     		.2byte	0x4
 5399 08d5 F3       		.byte	0xf3
 5400 08d6 01       		.uleb128 0x1
 5401 08d7 52       		.byte	0x52
 5402 08d8 9F       		.byte	0x9f
 5403 08d9 00000000 		.4byte	0
 5404 08dd 00000000 		.4byte	0
 5405              	.LLST46:
 5406 08e1 00000000 		.4byte	.LVL134
 5407 08e5 18000000 		.4byte	.LVL136
 5408 08e9 0100     		.2byte	0x1
 5409 08eb 53       		.byte	0x53
 5410 08ec 18000000 		.4byte	.LVL136
 5411 08f0 D2000000 		.4byte	.LVL165
 5412 08f4 0100     		.2byte	0x1
 5413 08f6 57       		.byte	0x57
ARM GAS  C:\Users\Larry\AppData\Local\Temp\ccxlVo0w.s 			page 125


 5414 08f7 D2000000 		.4byte	.LVL165
 5415 08fb 3A010000 		.4byte	.LVL181
 5416 08ff 0100     		.2byte	0x1
 5417 0901 59       		.byte	0x59
 5418 0902 3A010000 		.4byte	.LVL181
 5419 0906 3C010000 		.4byte	.LVL182
 5420 090a 0100     		.2byte	0x1
 5421 090c 57       		.byte	0x57
 5422 090d 3C010000 		.4byte	.LVL182
 5423 0911 60010000 		.4byte	.LVL193
 5424 0915 0100     		.2byte	0x1
 5425 0917 59       		.byte	0x59
 5426 0918 60010000 		.4byte	.LVL193
 5427 091c 86010000 		.4byte	.LVL200
 5428 0920 0100     		.2byte	0x1
 5429 0922 57       		.byte	0x57
 5430 0923 86010000 		.4byte	.LVL200
 5431 0927 0E020000 		.4byte	.LVL221
 5432 092b 0300     		.2byte	0x3
 5433 092d 91       		.byte	0x91
 5434 092e BC7F     		.sleb128 -68
 5435 0930 0E020000 		.4byte	.LVL221
 5436 0934 1E020000 		.4byte	.LVL225
 5437 0938 0100     		.2byte	0x1
 5438 093a 57       		.byte	0x57
 5439 093b 1E020000 		.4byte	.LVL225
 5440 093f 2E020000 		.4byte	.LFE2
 5441 0943 0400     		.2byte	0x4
 5442 0945 F3       		.byte	0xf3
 5443 0946 01       		.uleb128 0x1
 5444 0947 53       		.byte	0x53
 5445 0948 9F       		.byte	0x9f
 5446 0949 00000000 		.4byte	0
 5447 094d 00000000 		.4byte	0
 5448              	.LLST47:
 5449 0951 16000000 		.4byte	.LVL135
 5450 0955 D6000000 		.4byte	.LVL166
 5451 0959 0200     		.2byte	0x2
 5452 095b 31       		.byte	0x31
 5453 095c 9F       		.byte	0x9f
 5454 095d D6000000 		.4byte	.LVL166
 5455 0961 D8000000 		.4byte	.LVL167
 5456 0965 0100     		.2byte	0x1
 5457 0967 50       		.byte	0x50
 5458 0968 2E010000 		.4byte	.LVL178
 5459 096c 3C010000 		.4byte	.LVL182
 5460 0970 0100     		.2byte	0x1
 5461 0972 50       		.byte	0x50
 5462 0973 46010000 		.4byte	.LVL185
 5463 0977 48010000 		.4byte	.LVL186
 5464 097b 0200     		.2byte	0x2
 5465 097d 30       		.byte	0x30
 5466 097e 9F       		.byte	0x9f
 5467 097f 48010000 		.4byte	.LVL186
 5468 0983 60010000 		.4byte	.LVL193
 5469 0987 0100     		.2byte	0x1
 5470 0989 50       		.byte	0x50
ARM GAS  C:\Users\Larry\AppData\Local\Temp\ccxlVo0w.s 			page 126


 5471 098a 60010000 		.4byte	.LVL193
 5472 098e F6010000 		.4byte	.LVL215
 5473 0992 0100     		.2byte	0x1
 5474 0994 5A       		.byte	0x5a
 5475 0995 F6010000 		.4byte	.LVL215
 5476 0999 FC010000 		.4byte	.LVL216
 5477 099d 0100     		.2byte	0x1
 5478 099f 50       		.byte	0x50
 5479 09a0 FC010000 		.4byte	.LVL216
 5480 09a4 0E020000 		.4byte	.LVL221
 5481 09a8 0100     		.2byte	0x1
 5482 09aa 5A       		.byte	0x5a
 5483 09ab 0E020000 		.4byte	.LVL221
 5484 09af 1E020000 		.4byte	.LVL225
 5485 09b3 0200     		.2byte	0x2
 5486 09b5 31       		.byte	0x31
 5487 09b6 9F       		.byte	0x9f
 5488 09b7 1E020000 		.4byte	.LVL225
 5489 09bb 22020000 		.4byte	.LVL226
 5490 09bf 0100     		.2byte	0x1
 5491 09c1 5A       		.byte	0x5a
 5492 09c2 00000000 		.4byte	0
 5493 09c6 00000000 		.4byte	0
 5494              	.LLST48:
 5495 09ca 5A000000 		.4byte	.LVL146
 5496 09ce 60000000 		.4byte	.LVL147
 5497 09d2 0200     		.2byte	0x2
 5498 09d4 30       		.byte	0x30
 5499 09d5 9F       		.byte	0x9f
 5500 09d6 60000000 		.4byte	.LVL147
 5501 09da 88000000 		.4byte	.LVL150
 5502 09de 0100     		.2byte	0x1
 5503 09e0 55       		.byte	0x55
 5504 09e1 8A000000 		.4byte	.LVL151
 5505 09e5 8C000000 		.4byte	.LVL152
 5506 09e9 0100     		.2byte	0x1
 5507 09eb 55       		.byte	0x55
 5508 09ec C0000000 		.4byte	.LVL161
 5509 09f0 D6000000 		.4byte	.LVL166
 5510 09f4 0200     		.2byte	0x2
 5511 09f6 30       		.byte	0x30
 5512 09f7 9F       		.byte	0x9f
 5513 09f8 D6000000 		.4byte	.LVL166
 5514 09fc E8000000 		.4byte	.LVL170
 5515 0a00 0100     		.2byte	0x1
 5516 0a02 56       		.byte	0x56
 5517 0a03 E8000000 		.4byte	.LVL170
 5518 0a07 54010000 		.4byte	.LVL190
 5519 0a0b 0300     		.2byte	0x3
 5520 0a0d 76       		.byte	0x76
 5521 0a0e 7F       		.sleb128 -1
 5522 0a0f 9F       		.byte	0x9f
 5523 0a10 54010000 		.4byte	.LVL190
 5524 0a14 60010000 		.4byte	.LVL193
 5525 0a18 0100     		.2byte	0x1
 5526 0a1a 56       		.byte	0x56
 5527 0a1b 7C010000 		.4byte	.LVL196
ARM GAS  C:\Users\Larry\AppData\Local\Temp\ccxlVo0w.s 			page 127


 5528 0a1f 0E020000 		.4byte	.LVL221
 5529 0a23 0100     		.2byte	0x1
 5530 0a25 54       		.byte	0x54
 5531 0a26 00000000 		.4byte	0
 5532 0a2a 00000000 		.4byte	0
 5533              	.LLST49:
 5534 0a2e F0000000 		.4byte	.LVL171
 5535 0a32 F2000000 		.4byte	.LVL172
 5536 0a36 0100     		.2byte	0x1
 5537 0a38 54       		.byte	0x54
 5538 0a39 F4000000 		.4byte	.LVL173
 5539 0a3d 54010000 		.4byte	.LVL190
 5540 0a41 0100     		.2byte	0x1
 5541 0a43 54       		.byte	0x54
 5542 0a44 DC010000 		.4byte	.LVL209
 5543 0a48 F3010000 		.4byte	.LVL214-1
 5544 0a4c 0100     		.2byte	0x1
 5545 0a4e 53       		.byte	0x53
 5546 0a4f FC010000 		.4byte	.LVL216
 5547 0a53 05020000 		.4byte	.LVL219-1
 5548 0a57 0100     		.2byte	0x1
 5549 0a59 53       		.byte	0x53
 5550 0a5a 00000000 		.4byte	0
 5551 0a5e 00000000 		.4byte	0
 5552              	.LLST50:
 5553 0a62 5A000000 		.4byte	.LVL146
 5554 0a66 60000000 		.4byte	.LVL147
 5555 0a6a 0100     		.2byte	0x1
 5556 0a6c 53       		.byte	0x53
 5557 0a6d 60000000 		.4byte	.LVL147
 5558 0a71 84010000 		.4byte	.LVL199
 5559 0a75 0300     		.2byte	0x3
 5560 0a77 91       		.byte	0x91
 5561 0a78 BC7F     		.sleb128 -68
 5562 0a7a 00000000 		.4byte	0
 5563 0a7e 00000000 		.4byte	0
 5564              	.LLST51:
 5565 0a82 E6000000 		.4byte	.LVL169
 5566 0a86 2D010000 		.4byte	.LVL178-1
 5567 0a8a 0100     		.2byte	0x1
 5568 0a8c 52       		.byte	0x52
 5569 0a8d 2D010000 		.4byte	.LVL178-1
 5570 0a91 36010000 		.4byte	.LVL180
 5571 0a95 0800     		.2byte	0x8
 5572 0a97 77       		.byte	0x77
 5573 0a98 00       		.sleb128 0
 5574 0a99 08       		.byte	0x8
 5575 0a9a 3F       		.byte	0x3f
 5576 0a9b 1A       		.byte	0x1a
 5577 0a9c 23       		.byte	0x23
 5578 0a9d 40       		.uleb128 0x40
 5579 0a9e 9F       		.byte	0x9f
 5580 0a9f 3C010000 		.4byte	.LVL182
 5581 0aa3 40010000 		.4byte	.LVL183
 5582 0aa7 0100     		.2byte	0x1
 5583 0aa9 52       		.byte	0x52
 5584 0aaa 40010000 		.4byte	.LVL183
ARM GAS  C:\Users\Larry\AppData\Local\Temp\ccxlVo0w.s 			page 128


 5585 0aae 4A010000 		.4byte	.LVL187
 5586 0ab2 0800     		.2byte	0x8
 5587 0ab4 77       		.byte	0x77
 5588 0ab5 00       		.sleb128 0
 5589 0ab6 08       		.byte	0x8
 5590 0ab7 3F       		.byte	0x3f
 5591 0ab8 1A       		.byte	0x1a
 5592 0ab9 23       		.byte	0x23
 5593 0aba 40       		.uleb128 0x40
 5594 0abb 9F       		.byte	0x9f
 5595 0abc 00000000 		.4byte	0
 5596 0ac0 00000000 		.4byte	0
 5597              	.LLST52:
 5598 0ac4 DE000000 		.4byte	.LVL168
 5599 0ac8 12010000 		.4byte	.LVL175
 5600 0acc 0100     		.2byte	0x1
 5601 0ace 50       		.byte	0x50
 5602 0acf 12010000 		.4byte	.LVL175
 5603 0ad3 14010000 		.4byte	.LVL176
 5604 0ad7 0D00     		.2byte	0xd
 5605 0ad9 75       		.byte	0x75
 5606 0ada 00       		.sleb128 0
 5607 0adb 37       		.byte	0x37
 5608 0adc 24       		.byte	0x24
 5609 0add 73       		.byte	0x73
 5610 0ade 00       		.sleb128 0
 5611 0adf 37       		.byte	0x37
 5612 0ae0 24       		.byte	0x24
 5613 0ae1 1C       		.byte	0x1c
 5614 0ae2 7C       		.byte	0x7c
 5615 0ae3 00       		.sleb128 0
 5616 0ae4 22       		.byte	0x22
 5617 0ae5 9F       		.byte	0x9f
 5618 0ae6 14010000 		.4byte	.LVL176
 5619 0aea 1A010000 		.4byte	.LVL177
 5620 0aee 0E00     		.2byte	0xe
 5621 0af0 75       		.byte	0x75
 5622 0af1 00       		.sleb128 0
 5623 0af2 37       		.byte	0x37
 5624 0af3 24       		.byte	0x24
 5625 0af4 79       		.byte	0x79
 5626 0af5 04       		.sleb128 4
 5627 0af6 06       		.byte	0x6
 5628 0af7 37       		.byte	0x37
 5629 0af8 24       		.byte	0x24
 5630 0af9 1C       		.byte	0x1c
 5631 0afa 7C       		.byte	0x7c
 5632 0afb 00       		.sleb128 0
 5633 0afc 22       		.byte	0x22
 5634 0afd 9F       		.byte	0x9f
 5635 0afe 1A010000 		.4byte	.LVL177
 5636 0b02 2D010000 		.4byte	.LVL178-1
 5637 0b06 0100     		.2byte	0x1
 5638 0b08 50       		.byte	0x50
 5639 0b09 3C010000 		.4byte	.LVL182
 5640 0b0d 42010000 		.4byte	.LVL184
 5641 0b11 0100     		.2byte	0x1
ARM GAS  C:\Users\Larry\AppData\Local\Temp\ccxlVo0w.s 			page 129


 5642 0b13 50       		.byte	0x50
 5643 0b14 90010000 		.4byte	.LVL201
 5644 0b18 F3010000 		.4byte	.LVL214-1
 5645 0b1c 0100     		.2byte	0x1
 5646 0b1e 50       		.byte	0x50
 5647 0b1f FC010000 		.4byte	.LVL216
 5648 0b23 02020000 		.4byte	.LVL218
 5649 0b27 0100     		.2byte	0x1
 5650 0b29 50       		.byte	0x50
 5651 0b2a 00000000 		.4byte	0
 5652 0b2e 00000000 		.4byte	0
 5653              	.LLST53:
 5654 0b32 96000000 		.4byte	.LVL153
 5655 0b36 D6000000 		.4byte	.LVL166
 5656 0b3a 0100     		.2byte	0x1
 5657 0b3c 51       		.byte	0x51
 5658 0b3d D6000000 		.4byte	.LVL166
 5659 0b41 0E020000 		.4byte	.LVL221
 5660 0b45 0200     		.2byte	0x2
 5661 0b47 91       		.byte	0x91
 5662 0b48 44       		.sleb128 -60
 5663 0b49 00000000 		.4byte	0
 5664 0b4d 00000000 		.4byte	0
 5665              	.LLST54:
 5666 0b51 16000000 		.4byte	.LVL135
 5667 0b55 8C000000 		.4byte	.LVL152
 5668 0b59 0200     		.2byte	0x2
 5669 0b5b 30       		.byte	0x30
 5670 0b5c 9F       		.byte	0x9f
 5671 0b5d 8C000000 		.4byte	.LVL152
 5672 0b61 82010000 		.4byte	.LVL198
 5673 0b65 0100     		.2byte	0x1
 5674 0b67 55       		.byte	0x55
 5675 0b68 0E020000 		.4byte	.LVL221
 5676 0b6c 1E020000 		.4byte	.LVL225
 5677 0b70 0200     		.2byte	0x2
 5678 0b72 30       		.byte	0x30
 5679 0b73 9F       		.byte	0x9f
 5680 0b74 00000000 		.4byte	0
 5681 0b78 00000000 		.4byte	0
 5682              	.LLST55:
 5683 0b7c 16000000 		.4byte	.LVL135
 5684 0b80 8C000000 		.4byte	.LVL152
 5685 0b84 0200     		.2byte	0x2
 5686 0b86 30       		.byte	0x30
 5687 0b87 9F       		.byte	0x9f
 5688 0b88 8C000000 		.4byte	.LVL152
 5689 0b8c D6000000 		.4byte	.LVL166
 5690 0b90 0100     		.2byte	0x1
 5691 0b92 55       		.byte	0x55
 5692 0b93 0E020000 		.4byte	.LVL221
 5693 0b97 1E020000 		.4byte	.LVL225
 5694 0b9b 0200     		.2byte	0x2
 5695 0b9d 30       		.byte	0x30
 5696 0b9e 9F       		.byte	0x9f
 5697 0b9f 00000000 		.4byte	0
 5698 0ba3 00000000 		.4byte	0
ARM GAS  C:\Users\Larry\AppData\Local\Temp\ccxlVo0w.s 			page 130


 5699              	.LLST56:
 5700 0ba7 1A000000 		.4byte	.LVL137
 5701 0bab 4E000000 		.4byte	.LVL144
 5702 0baf 0100     		.2byte	0x1
 5703 0bb1 51       		.byte	0x51
 5704 0bb2 4E000000 		.4byte	.LVL144
 5705 0bb6 CE000000 		.4byte	.LVL163
 5706 0bba 0200     		.2byte	0x2
 5707 0bbc 91       		.byte	0x91
 5708 0bbd 4C       		.sleb128 -52
 5709 0bbe CE000000 		.4byte	.LVL163
 5710 0bc2 D6000000 		.4byte	.LVL166
 5711 0bc6 0200     		.2byte	0x2
 5712 0bc8 91       		.byte	0x91
 5713 0bc9 48       		.sleb128 -56
 5714 0bca D6000000 		.4byte	.LVL166
 5715 0bce 80010000 		.4byte	.LVL197
 5716 0bd2 0100     		.2byte	0x1
 5717 0bd4 58       		.byte	0x58
 5718 0bd5 E2010000 		.4byte	.LVL211
 5719 0bd9 E4010000 		.4byte	.LVL212
 5720 0bdd 0100     		.2byte	0x1
 5721 0bdf 51       		.byte	0x51
 5722 0be0 E4010000 		.4byte	.LVL212
 5723 0be4 06020000 		.4byte	.LVL219
 5724 0be8 0100     		.2byte	0x1
 5725 0bea 56       		.byte	0x56
 5726 0beb 0E020000 		.4byte	.LVL221
 5727 0bef 1E020000 		.4byte	.LVL225
 5728 0bf3 0100     		.2byte	0x1
 5729 0bf5 51       		.byte	0x51
 5730 0bf6 00000000 		.4byte	0
 5731 0bfa 00000000 		.4byte	0
 5732              	.LLST57:
 5733 0bfe 32000000 		.4byte	.LVL140
 5734 0c02 86000000 		.4byte	.LVL149
 5735 0c06 0100     		.2byte	0x1
 5736 0c08 59       		.byte	0x59
 5737 0c09 86000000 		.4byte	.LVL149
 5738 0c0d C8000000 		.4byte	.LVL162
 5739 0c11 0100     		.2byte	0x1
 5740 0c13 52       		.byte	0x52
 5741 0c14 C8000000 		.4byte	.LVL162
 5742 0c18 D0000000 		.4byte	.LVL164
 5743 0c1c 0100     		.2byte	0x1
 5744 0c1e 59       		.byte	0x59
 5745 0c1f D0000000 		.4byte	.LVL164
 5746 0c23 D6000000 		.4byte	.LVL166
 5747 0c27 0100     		.2byte	0x1
 5748 0c29 52       		.byte	0x52
 5749 0c2a D6000000 		.4byte	.LVL166
 5750 0c2e 36010000 		.4byte	.LVL180
 5751 0c32 0100     		.2byte	0x1
 5752 0c34 57       		.byte	0x57
 5753 0c35 3C010000 		.4byte	.LVL182
 5754 0c39 5C010000 		.4byte	.LVL192
 5755 0c3d 0100     		.2byte	0x1
ARM GAS  C:\Users\Larry\AppData\Local\Temp\ccxlVo0w.s 			page 131


 5756 0c3f 57       		.byte	0x57
 5757 0c40 D0010000 		.4byte	.LVL206
 5758 0c44 DE010000 		.4byte	.LVL210
 5759 0c48 0100     		.2byte	0x1
 5760 0c4a 51       		.byte	0x51
 5761 0c4b 00000000 		.4byte	0
 5762 0c4f 00000000 		.4byte	0
 5763              	.LLST58:
 5764 0c53 32000000 		.4byte	.LVL140
 5765 0c57 34010000 		.4byte	.LVL179
 5766 0c5b 0100     		.2byte	0x1
 5767 0c5d 5A       		.byte	0x5a
 5768 0c5e 3C010000 		.4byte	.LVL182
 5769 0c62 50010000 		.4byte	.LVL188
 5770 0c66 0100     		.2byte	0x1
 5771 0c68 5A       		.byte	0x5a
 5772 0c69 50010000 		.4byte	.LVL188
 5773 0c6d 54010000 		.4byte	.LVL190
 5774 0c71 0100     		.2byte	0x1
 5775 0c73 53       		.byte	0x53
 5776 0c74 54010000 		.4byte	.LVL190
 5777 0c78 5A010000 		.4byte	.LVL191
 5778 0c7c 0100     		.2byte	0x1
 5779 0c7e 5A       		.byte	0x5a
 5780 0c7f 00000000 		.4byte	0
 5781 0c83 00000000 		.4byte	0
 5782              	.LLST59:
 5783 0c87 38000000 		.4byte	.LVL141
 5784 0c8b 3A000000 		.4byte	.LVL142
 5785 0c8f 0100     		.2byte	0x1
 5786 0c91 53       		.byte	0x53
 5787 0c92 3A000000 		.4byte	.LVL142
 5788 0c96 51000000 		.4byte	.LVL145-1
 5789 0c9a 0200     		.2byte	0x2
 5790 0c9c 74       		.byte	0x74
 5791 0c9d 00       		.sleb128 0
 5792 0c9e 51000000 		.4byte	.LVL145-1
 5793 0ca2 0E020000 		.4byte	.LVL221
 5794 0ca6 0200     		.2byte	0x2
 5795 0ca8 91       		.byte	0x91
 5796 0ca9 54       		.sleb128 -44
 5797 0caa 00000000 		.4byte	0
 5798 0cae 00000000 		.4byte	0
 5799              	.LLST60:
 5800 0cb2 38000000 		.4byte	.LVL141
 5801 0cb6 C0000000 		.4byte	.LVL161
 5802 0cba 0200     		.2byte	0x2
 5803 0cbc 30       		.byte	0x30
 5804 0cbd 9F       		.byte	0x9f
 5805 0cbe C0000000 		.4byte	.LVL161
 5806 0cc2 0E020000 		.4byte	.LVL221
 5807 0cc6 0200     		.2byte	0x2
 5808 0cc8 91       		.byte	0x91
 5809 0cc9 40       		.sleb128 -64
 5810 0cca 00000000 		.4byte	0
 5811 0cce 00000000 		.4byte	0
 5812              	.LLST61:
ARM GAS  C:\Users\Larry\AppData\Local\Temp\ccxlVo0w.s 			page 132


 5813 0cd2 46000000 		.4byte	.LVL143
 5814 0cd6 51000000 		.4byte	.LVL145-1
 5815 0cda 0100     		.2byte	0x1
 5816 0cdc 53       		.byte	0x53
 5817 0cdd 51000000 		.4byte	.LVL145-1
 5818 0ce1 76010000 		.4byte	.LVL194
 5819 0ce5 0100     		.2byte	0x1
 5820 0ce7 5B       		.byte	0x5b
 5821 0ce8 76010000 		.4byte	.LVL194
 5822 0cec 7C010000 		.4byte	.LVL196
 5823 0cf0 0100     		.2byte	0x1
 5824 0cf2 54       		.byte	0x54
 5825 0cf3 00000000 		.4byte	0
 5826 0cf7 00000000 		.4byte	0
 5827              	.LLST62:
 5828 0cfb A2000000 		.4byte	.LVL154
 5829 0cff AC000000 		.4byte	.LVL155
 5830 0d03 0100     		.2byte	0x1
 5831 0d05 53       		.byte	0x53
 5832 0d06 AC000000 		.4byte	.LVL155
 5833 0d0a B0000000 		.4byte	.LVL156
 5834 0d0e 0800     		.2byte	0x8
 5835 0d10 75       		.byte	0x75
 5836 0d11 00       		.sleb128 0
 5837 0d12 7B       		.byte	0x7b
 5838 0d13 00       		.sleb128 0
 5839 0d14 22       		.byte	0x22
 5840 0d15 31       		.byte	0x31
 5841 0d16 1C       		.byte	0x1c
 5842 0d17 9F       		.byte	0x9f
 5843 0d18 B6000000 		.4byte	.LVL157
 5844 0d1c B8000000 		.4byte	.LVL158
 5845 0d20 0100     		.2byte	0x1
 5846 0d22 53       		.byte	0x53
 5847 0d23 B8000000 		.4byte	.LVL158
 5848 0d27 BC000000 		.4byte	.LVL159
 5849 0d2b 0800     		.2byte	0x8
 5850 0d2d 75       		.byte	0x75
 5851 0d2e 00       		.sleb128 0
 5852 0d2f 7B       		.byte	0x7b
 5853 0d30 00       		.sleb128 0
 5854 0d31 22       		.byte	0x22
 5855 0d32 31       		.byte	0x31
 5856 0d33 1C       		.byte	0x1c
 5857 0d34 9F       		.byte	0x9f
 5858 0d35 BC000000 		.4byte	.LVL159
 5859 0d39 BE000000 		.4byte	.LVL160
 5860 0d3d 0100     		.2byte	0x1
 5861 0d3f 53       		.byte	0x53
 5862 0d40 BE000000 		.4byte	.LVL160
 5863 0d44 C0000000 		.4byte	.LVL161
 5864 0d48 0800     		.2byte	0x8
 5865 0d4a 75       		.byte	0x75
 5866 0d4b 00       		.sleb128 0
 5867 0d4c 7B       		.byte	0x7b
 5868 0d4d 00       		.sleb128 0
 5869 0d4e 22       		.byte	0x22
ARM GAS  C:\Users\Larry\AppData\Local\Temp\ccxlVo0w.s 			page 133


 5870 0d4f 31       		.byte	0x31
 5871 0d50 1C       		.byte	0x1c
 5872 0d51 9F       		.byte	0x9f
 5873 0d52 00000000 		.4byte	0
 5874 0d56 00000000 		.4byte	0
 5875              	.LLST63:
 5876 0d5a 96010000 		.4byte	.LVL202
 5877 0d5e D4010000 		.4byte	.LVL208
 5878 0d62 0100     		.2byte	0x1
 5879 0d64 56       		.byte	0x56
 5880 0d65 D4010000 		.4byte	.LVL208
 5881 0d69 EE010000 		.4byte	.LVL213
 5882 0d6d 0200     		.2byte	0x2
 5883 0d6f 70       		.byte	0x70
 5884 0d70 04       		.sleb128 4
 5885 0d71 FC010000 		.4byte	.LVL216
 5886 0d75 02020000 		.4byte	.LVL218
 5887 0d79 0200     		.2byte	0x2
 5888 0d7b 70       		.byte	0x70
 5889 0d7c 04       		.sleb128 4
 5890 0d7d 00000000 		.4byte	0
 5891 0d81 00000000 		.4byte	0
 5892              	.LLST64:
 5893 0d85 9A010000 		.4byte	.LVL203
 5894 0d89 DC010000 		.4byte	.LVL209
 5895 0d8d 0100     		.2byte	0x1
 5896 0d8f 53       		.byte	0x53
 5897 0d90 DC010000 		.4byte	.LVL209
 5898 0d94 EE010000 		.4byte	.LVL213
 5899 0d98 0800     		.2byte	0x8
 5900 0d9a 70       		.byte	0x70
 5901 0d9b 04       		.sleb128 4
 5902 0d9c 06       		.byte	0x6
 5903 0d9d 70       		.byte	0x70
 5904 0d9e 08       		.sleb128 8
 5905 0d9f 06       		.byte	0x6
 5906 0da0 22       		.byte	0x22
 5907 0da1 9F       		.byte	0x9f
 5908 0da2 FC010000 		.4byte	.LVL216
 5909 0da6 02020000 		.4byte	.LVL218
 5910 0daa 0800     		.2byte	0x8
 5911 0dac 70       		.byte	0x70
 5912 0dad 04       		.sleb128 4
 5913 0dae 06       		.byte	0x6
 5914 0daf 70       		.byte	0x70
 5915 0db0 08       		.sleb128 8
 5916 0db1 06       		.byte	0x6
 5917 0db2 22       		.byte	0x22
 5918 0db3 9F       		.byte	0x9f
 5919 0db4 00000000 		.4byte	0
 5920 0db8 00000000 		.4byte	0
 5921              	.LLST65:
 5922 0dbc BA010000 		.4byte	.LVL204
 5923 0dc0 F3010000 		.4byte	.LVL214-1
 5924 0dc4 0100     		.2byte	0x1
 5925 0dc6 52       		.byte	0x52
 5926 0dc7 FC010000 		.4byte	.LVL216
ARM GAS  C:\Users\Larry\AppData\Local\Temp\ccxlVo0w.s 			page 134


 5927 0dcb 00020000 		.4byte	.LVL217
 5928 0dcf 0100     		.2byte	0x1
 5929 0dd1 52       		.byte	0x52
 5930 0dd2 00000000 		.4byte	0
 5931 0dd6 00000000 		.4byte	0
 5932              	.LLST66:
 5933 0dda C8010000 		.4byte	.LVL205
 5934 0dde F3010000 		.4byte	.LVL214-1
 5935 0de2 0100     		.2byte	0x1
 5936 0de4 5C       		.byte	0x5c
 5937 0de5 FC010000 		.4byte	.LVL216
 5938 0de9 05020000 		.4byte	.LVL219-1
 5939 0ded 0100     		.2byte	0x1
 5940 0def 5C       		.byte	0x5c
 5941 0df0 00000000 		.4byte	0
 5942 0df4 00000000 		.4byte	0
 5943              	.LLST67:
 5944 0df8 00000000 		.4byte	.LVL227
 5945 0dfc 3A000000 		.4byte	.LVL232
 5946 0e00 0100     		.2byte	0x1
 5947 0e02 50       		.byte	0x50
 5948 0e03 3A000000 		.4byte	.LVL232
 5949 0e07 76010000 		.4byte	.LVL273
 5950 0e0b 0100     		.2byte	0x1
 5951 0e0d 5A       		.byte	0x5a
 5952 0e0e 76010000 		.4byte	.LVL273
 5953 0e12 78010000 		.4byte	.LVL274
 5954 0e16 0100     		.2byte	0x1
 5955 0e18 50       		.byte	0x50
 5956 0e19 78010000 		.4byte	.LVL274
 5957 0e1d 7A010000 		.4byte	.LVL275
 5958 0e21 0100     		.2byte	0x1
 5959 0e23 5A       		.byte	0x5a
 5960 0e24 7A010000 		.4byte	.LVL275
 5961 0e28 7C010000 		.4byte	.LVL276
 5962 0e2c 0100     		.2byte	0x1
 5963 0e2e 50       		.byte	0x50
 5964 0e2f 7C010000 		.4byte	.LVL276
 5965 0e33 7E010000 		.4byte	.LVL277
 5966 0e37 0100     		.2byte	0x1
 5967 0e39 5A       		.byte	0x5a
 5968 0e3a 7E010000 		.4byte	.LVL277
 5969 0e3e 80010000 		.4byte	.LVL278
 5970 0e42 0100     		.2byte	0x1
 5971 0e44 50       		.byte	0x50
 5972 0e45 80010000 		.4byte	.LVL278
 5973 0e49 82010000 		.4byte	.LVL280
 5974 0e4d 0100     		.2byte	0x1
 5975 0e4f 5A       		.byte	0x5a
 5976 0e50 00000000 		.4byte	0
 5977 0e54 00000000 		.4byte	0
 5978              	.LLST68:
 5979 0e58 00000000 		.4byte	.LVL227
 5980 0e5c 3C000000 		.4byte	.LVL233
 5981 0e60 0100     		.2byte	0x1
 5982 0e62 51       		.byte	0x51
 5983 0e63 3C000000 		.4byte	.LVL233
ARM GAS  C:\Users\Larry\AppData\Local\Temp\ccxlVo0w.s 			page 135


 5984 0e67 52000000 		.4byte	.LVL238
 5985 0e6b 0300     		.2byte	0x3
 5986 0e6d 91       		.byte	0x91
 5987 0e6e B47E     		.sleb128 -204
 5988 0e70 52000000 		.4byte	.LVL238
 5989 0e74 76010000 		.4byte	.LVL273
 5990 0e78 0400     		.2byte	0x4
 5991 0e7a F3       		.byte	0xf3
 5992 0e7b 01       		.uleb128 0x1
 5993 0e7c 51       		.byte	0x51
 5994 0e7d 9F       		.byte	0x9f
 5995 0e7e 76010000 		.4byte	.LVL273
 5996 0e82 80010000 		.4byte	.LVL278
 5997 0e86 0100     		.2byte	0x1
 5998 0e88 51       		.byte	0x51
 5999 0e89 80010000 		.4byte	.LVL278
 6000 0e8d 8E010000 		.4byte	.LFE3
 6001 0e91 0400     		.2byte	0x4
 6002 0e93 F3       		.byte	0xf3
 6003 0e94 01       		.uleb128 0x1
 6004 0e95 51       		.byte	0x51
 6005 0e96 9F       		.byte	0x9f
 6006 0e97 00000000 		.4byte	0
 6007 0e9b 00000000 		.4byte	0
 6008              	.LLST69:
 6009 0e9f 00000000 		.4byte	.LVL227
 6010 0ea3 2A000000 		.4byte	.LVL231
 6011 0ea7 0100     		.2byte	0x1
 6012 0ea9 52       		.byte	0x52
 6013 0eaa 2A000000 		.4byte	.LVL231
 6014 0eae 76010000 		.4byte	.LVL273
 6015 0eb2 0100     		.2byte	0x1
 6016 0eb4 5B       		.byte	0x5b
 6017 0eb5 76010000 		.4byte	.LVL273
 6018 0eb9 7A010000 		.4byte	.LVL275
 6019 0ebd 0100     		.2byte	0x1
 6020 0ebf 52       		.byte	0x52
 6021 0ec0 7A010000 		.4byte	.LVL275
 6022 0ec4 82010000 		.4byte	.LVL281
 6023 0ec8 0100     		.2byte	0x1
 6024 0eca 5B       		.byte	0x5b
 6025 0ecb 00000000 		.4byte	0
 6026 0ecf 00000000 		.4byte	0
 6027              	.LLST70:
 6028 0ed3 00000000 		.4byte	.LVL227
 6029 0ed7 16000000 		.4byte	.LVL229
 6030 0edb 0100     		.2byte	0x1
 6031 0edd 53       		.byte	0x53
 6032 0ede 16000000 		.4byte	.LVL229
 6033 0ee2 82010000 		.4byte	.LVL279
 6034 0ee6 0100     		.2byte	0x1
 6035 0ee8 55       		.byte	0x55
 6036 0ee9 82010000 		.4byte	.LVL279
 6037 0eed 8E010000 		.4byte	.LFE3
 6038 0ef1 0400     		.2byte	0x4
 6039 0ef3 F3       		.byte	0xf3
 6040 0ef4 01       		.uleb128 0x1
ARM GAS  C:\Users\Larry\AppData\Local\Temp\ccxlVo0w.s 			page 136


 6041 0ef5 53       		.byte	0x53
 6042 0ef6 9F       		.byte	0x9f
 6043 0ef7 00000000 		.4byte	0
 6044 0efb 00000000 		.4byte	0
 6045              	.LLST71:
 6046 0eff 14000000 		.4byte	.LVL228
 6047 0f03 52000000 		.4byte	.LVL238
 6048 0f07 0200     		.2byte	0x2
 6049 0f09 31       		.byte	0x31
 6050 0f0a 9F       		.byte	0x9f
 6051 0f0b 52000000 		.4byte	.LVL238
 6052 0f0f 5E000000 		.4byte	.LVL240
 6053 0f13 0100     		.2byte	0x1
 6054 0f15 50       		.byte	0x50
 6055 0f16 40010000 		.4byte	.LVL268
 6056 0f1a 50010000 		.4byte	.LVL269
 6057 0f1e 0100     		.2byte	0x1
 6058 0f20 50       		.byte	0x50
 6059 0f21 5E010000 		.4byte	.LVL271
 6060 0f25 76010000 		.4byte	.LVL273
 6061 0f29 0100     		.2byte	0x1
 6062 0f2b 50       		.byte	0x50
 6063 0f2c 76010000 		.4byte	.LVL273
 6064 0f30 80010000 		.4byte	.LVL278
 6065 0f34 0200     		.2byte	0x2
 6066 0f36 31       		.byte	0x31
 6067 0f37 9F       		.byte	0x9f
 6068 0f38 80010000 		.4byte	.LVL278
 6069 0f3c 8E010000 		.4byte	.LFE3
 6070 0f40 0100     		.2byte	0x1
 6071 0f42 50       		.byte	0x50
 6072 0f43 00000000 		.4byte	0
 6073 0f47 00000000 		.4byte	0
 6074              	.LLST72:
 6075 0f4b C6000000 		.4byte	.LVL251
 6076 0f4f 6C010000 		.4byte	.LVL272
 6077 0f53 0100     		.2byte	0x1
 6078 0f55 54       		.byte	0x54
 6079 0f56 00000000 		.4byte	0
 6080 0f5a 00000000 		.4byte	0
 6081              	.LLST73:
 6082 0f5e 4C000000 		.4byte	.LVL237
 6083 0f62 52000000 		.4byte	.LVL238
 6084 0f66 0200     		.2byte	0x2
 6085 0f68 30       		.byte	0x30
 6086 0f69 9F       		.byte	0x9f
 6087 0f6a 52000000 		.4byte	.LVL238
 6088 0f6e 76010000 		.4byte	.LVL273
 6089 0f72 0100     		.2byte	0x1
 6090 0f74 59       		.byte	0x59
 6091 0f75 00000000 		.4byte	0
 6092 0f79 00000000 		.4byte	0
 6093              	.LLST74:
 6094 0f7d E6000000 		.4byte	.LVL256
 6095 0f81 F8000000 		.4byte	.LVL257
 6096 0f85 0100     		.2byte	0x1
 6097 0f87 51       		.byte	0x51
ARM GAS  C:\Users\Larry\AppData\Local\Temp\ccxlVo0w.s 			page 137


 6098 0f88 F8000000 		.4byte	.LVL257
 6099 0f8c FD000000 		.4byte	.LVL258-1
 6100 0f90 0100     		.2byte	0x1
 6101 0f92 53       		.byte	0x53
 6102 0f93 02010000 		.4byte	.LVL260
 6103 0f97 04010000 		.4byte	.LVL261
 6104 0f9b 0100     		.2byte	0x1
 6105 0f9d 51       		.byte	0x51
 6106 0f9e 00000000 		.4byte	0
 6107 0fa2 00000000 		.4byte	0
 6108              	.LLST75:
 6109 0fa6 CC000000 		.4byte	.LVL252
 6110 0faa CE000000 		.4byte	.LVL253
 6111 0fae 0100     		.2byte	0x1
 6112 0fb0 56       		.byte	0x56
 6113 0fb1 D8000000 		.4byte	.LVL255
 6114 0fb5 14010000 		.4byte	.LVL263
 6115 0fb9 0100     		.2byte	0x1
 6116 0fbb 56       		.byte	0x56
 6117 0fbc 18010000 		.4byte	.LVL264
 6118 0fc0 1F010000 		.4byte	.LVL265-1
 6119 0fc4 0100     		.2byte	0x1
 6120 0fc6 51       		.byte	0x51
 6121 0fc7 1F010000 		.4byte	.LVL265-1
 6122 0fcb 20010000 		.4byte	.LVL265
 6123 0fcf 0300     		.2byte	0x3
 6124 0fd1 76       		.byte	0x76
 6125 0fd2 0C       		.sleb128 12
 6126 0fd3 9F       		.byte	0x9f
 6127 0fd4 40010000 		.4byte	.LVL268
 6128 0fd8 56010000 		.4byte	.LVL270
 6129 0fdc 0300     		.2byte	0x3
 6130 0fde 91       		.byte	0x91
 6131 0fdf CC7E     		.sleb128 -180
 6132 0fe1 56010000 		.4byte	.LVL270
 6133 0fe5 5D010000 		.4byte	.LVL271-1
 6134 0fe9 0100     		.2byte	0x1
 6135 0feb 50       		.byte	0x50
 6136 0fec 00000000 		.4byte	0
 6137 0ff0 00000000 		.4byte	0
 6138              	.LLST76:
 6139 0ff4 78000000 		.4byte	.LVL245
 6140 0ff8 A1000000 		.4byte	.LVL249-1
 6141 0ffc 0100     		.2byte	0x1
 6142 0ffe 51       		.byte	0x51
 6143 0fff 00000000 		.4byte	0
 6144 1003 00000000 		.4byte	0
 6145              	.LLST77:
 6146 1007 20000000 		.4byte	.LVL230
 6147 100b 3C000000 		.4byte	.LVL233
 6148 100f 0100     		.2byte	0x1
 6149 1011 51       		.byte	0x51
 6150 1012 3C000000 		.4byte	.LVL233
 6151 1016 76010000 		.4byte	.LVL273
 6152 101a 0300     		.2byte	0x3
 6153 101c 91       		.byte	0x91
 6154 101d B47E     		.sleb128 -204
ARM GAS  C:\Users\Larry\AppData\Local\Temp\ccxlVo0w.s 			page 138


 6155 101f 76010000 		.4byte	.LVL273
 6156 1023 80010000 		.4byte	.LVL278
 6157 1027 0100     		.2byte	0x1
 6158 1029 51       		.byte	0x51
 6159 102a 80010000 		.4byte	.LVL278
 6160 102e 8E010000 		.4byte	.LFE3
 6161 1032 0300     		.2byte	0x3
 6162 1034 91       		.byte	0x91
 6163 1035 B47E     		.sleb128 -204
 6164 1037 00000000 		.4byte	0
 6165 103b 00000000 		.4byte	0
 6166              	.LLST78:
 6167 103f 48000000 		.4byte	.LVL235
 6168 1043 4A000000 		.4byte	.LVL236
 6169 1047 0100     		.2byte	0x1
 6170 1049 53       		.byte	0x53
 6171 104a 4A000000 		.4byte	.LVL236
 6172 104e 76010000 		.4byte	.LVL273
 6173 1052 0300     		.2byte	0x3
 6174 1054 91       		.byte	0x91
 6175 1055 B87E     		.sleb128 -200
 6176 1057 00000000 		.4byte	0
 6177 105b 00000000 		.4byte	0
 6178              	.LLST79:
 6179 105f 52000000 		.4byte	.LVL238
 6180 1063 C6000000 		.4byte	.LVL251
 6181 1067 0200     		.2byte	0x2
 6182 1069 30       		.byte	0x30
 6183 106a 9F       		.byte	0x9f
 6184 106b C6000000 		.4byte	.LVL251
 6185 106f 00010000 		.4byte	.LVL259
 6186 1073 0100     		.2byte	0x1
 6187 1075 57       		.byte	0x57
 6188 1076 00010000 		.4byte	.LVL259
 6189 107a 02010000 		.4byte	.LVL260
 6190 107e 0100     		.2byte	0x1
 6191 1080 50       		.byte	0x50
 6192 1081 02010000 		.4byte	.LVL260
 6193 1085 6C010000 		.4byte	.LVL272
 6194 1089 0100     		.2byte	0x1
 6195 108b 57       		.byte	0x57
 6196 108c 00000000 		.4byte	0
 6197 1090 00000000 		.4byte	0
 6198              	.LLST80:
 6199 1094 56000000 		.4byte	.LVL239
 6200 1098 70000000 		.4byte	.LVL243
 6201 109c 0100     		.2byte	0x1
 6202 109e 54       		.byte	0x54
 6203 109f 70000000 		.4byte	.LVL243
 6204 10a3 74000000 		.4byte	.LVL244
 6205 10a7 0100     		.2byte	0x1
 6206 10a9 53       		.byte	0x53
 6207 10aa 74000000 		.4byte	.LVL244
 6208 10ae 6C010000 		.4byte	.LVL272
 6209 10b2 0100     		.2byte	0x1
 6210 10b4 58       		.byte	0x58
 6211 10b5 00000000 		.4byte	0
ARM GAS  C:\Users\Larry\AppData\Local\Temp\ccxlVo0w.s 			page 139


 6212 10b9 00000000 		.4byte	0
 6213              	.LLST81:
 6214 10bd 0E010000 		.4byte	.LVL262
 6215 10c1 1F010000 		.4byte	.LVL265-1
 6216 10c5 0100     		.2byte	0x1
 6217 10c7 50       		.byte	0x50
 6218 10c8 00000000 		.4byte	0
 6219 10cc 00000000 		.4byte	0
 6220              	.LLST82:
 6221 10d0 00000000 		.4byte	.LVL282
 6222 10d4 10000000 		.4byte	.LVL284
 6223 10d8 0100     		.2byte	0x1
 6224 10da 50       		.byte	0x50
 6225 10db 10000000 		.4byte	.LVL284
 6226 10df 60000000 		.4byte	.LVL299
 6227 10e3 0100     		.2byte	0x1
 6228 10e5 56       		.byte	0x56
 6229 10e6 60000000 		.4byte	.LVL299
 6230 10ea 62000000 		.4byte	.LFE4
 6231 10ee 0400     		.2byte	0x4
 6232 10f0 F3       		.byte	0xf3
 6233 10f1 01       		.uleb128 0x1
 6234 10f2 50       		.byte	0x50
 6235 10f3 9F       		.byte	0x9f
 6236 10f4 00000000 		.4byte	0
 6237 10f8 00000000 		.4byte	0
 6238              	.LLST83:
 6239 10fc 36000000 		.4byte	.LVL290
 6240 1100 5C000000 		.4byte	.LVL297
 6241 1104 0100     		.2byte	0x1
 6242 1106 55       		.byte	0x55
 6243 1107 00000000 		.4byte	0
 6244 110b 00000000 		.4byte	0
 6245              	.LLST84:
 6246 110f 16000000 		.4byte	.LVL286
 6247 1113 1E000000 		.4byte	.LVL287
 6248 1117 0100     		.2byte	0x1
 6249 1119 53       		.byte	0x53
 6250 111a 1E000000 		.4byte	.LVL287
 6251 111e 2D000000 		.4byte	.LVL289-1
 6252 1122 0200     		.2byte	0x2
 6253 1124 74       		.byte	0x74
 6254 1125 00       		.sleb128 0
 6255 1126 3A000000 		.4byte	.LVL291
 6256 112a 56000000 		.4byte	.LVL296
 6257 112e 0100     		.2byte	0x1
 6258 1130 54       		.byte	0x54
 6259 1131 5C000000 		.4byte	.LVL297
 6260 1135 5E000000 		.4byte	.LVL298
 6261 1139 0100     		.2byte	0x1
 6262 113b 53       		.byte	0x53
 6263 113c 00000000 		.4byte	0
 6264 1140 00000000 		.4byte	0
 6265              	.LLST85:
 6266 1144 0A000000 		.4byte	.LVL283
 6267 1148 36000000 		.4byte	.LVL290
 6268 114c 0200     		.2byte	0x2
ARM GAS  C:\Users\Larry\AppData\Local\Temp\ccxlVo0w.s 			page 140


 6269 114e 34       		.byte	0x34
 6270 114f 9F       		.byte	0x9f
 6271 1150 36000000 		.4byte	.LVL290
 6272 1154 42000000 		.4byte	.LVL292
 6273 1158 0100     		.2byte	0x1
 6274 115a 50       		.byte	0x50
 6275 115b 54000000 		.4byte	.LVL295
 6276 115f 5C000000 		.4byte	.LVL297
 6277 1163 0100     		.2byte	0x1
 6278 1165 50       		.byte	0x50
 6279 1166 5C000000 		.4byte	.LVL297
 6280 116a 5E000000 		.4byte	.LVL298
 6281 116e 0200     		.2byte	0x2
 6282 1170 34       		.byte	0x34
 6283 1171 9F       		.byte	0x9f
 6284 1172 5E000000 		.4byte	.LVL298
 6285 1176 62000000 		.4byte	.LFE4
 6286 117a 0100     		.2byte	0x1
 6287 117c 50       		.byte	0x50
 6288 117d 00000000 		.4byte	0
 6289 1181 00000000 		.4byte	0
 6290              	.LLST86:
 6291 1185 20000000 		.4byte	.LVL288
 6292 1189 5C000000 		.4byte	.LVL297
 6293 118d 0100     		.2byte	0x1
 6294 118f 57       		.byte	0x57
 6295 1190 00000000 		.4byte	0
 6296 1194 00000000 		.4byte	0
 6297              	.LLST87:
 6298 1198 00000000 		.4byte	.LVL300
 6299 119c 04000000 		.4byte	.LVL301
 6300 11a0 0100     		.2byte	0x1
 6301 11a2 50       		.byte	0x50
 6302 11a3 04000000 		.4byte	.LVL301
 6303 11a7 06000000 		.4byte	.LFE5
 6304 11ab 0400     		.2byte	0x4
 6305 11ad F3       		.byte	0xf3
 6306 11ae 01       		.uleb128 0x1
 6307 11af 50       		.byte	0x50
 6308 11b0 9F       		.byte	0x9f
 6309 11b1 00000000 		.4byte	0
 6310 11b5 00000000 		.4byte	0
 6311              		.section	.debug_aranges,"",%progbits
 6312 0000 8C000000 		.4byte	0x8c
 6313 0004 0200     		.2byte	0x2
 6314 0006 00000000 		.4byte	.Ldebug_info0
 6315 000a 04       		.byte	0x4
 6316 000b 00       		.byte	0
 6317 000c 0000     		.2byte	0
 6318 000e 0000     		.2byte	0
 6319 0010 00000000 		.4byte	.LFB6
 6320 0014 2A000000 		.4byte	.LFE6-.LFB6
 6321 0018 00000000 		.4byte	.LFB7
 6322 001c 1A000000 		.4byte	.LFE7-.LFB7
 6323 0020 00000000 		.4byte	.LFB8
 6324 0024 58000000 		.4byte	.LFE8-.LFB8
 6325 0028 00000000 		.4byte	.LFB9
ARM GAS  C:\Users\Larry\AppData\Local\Temp\ccxlVo0w.s 			page 141


 6326 002c 3A000000 		.4byte	.LFE9-.LFB9
 6327 0030 00000000 		.4byte	.LFB10
 6328 0034 38000000 		.4byte	.LFE10-.LFB10
 6329 0038 00000000 		.4byte	.LFB14
 6330 003c A2000000 		.4byte	.LFE14-.LFB14
 6331 0040 00000000 		.4byte	.LFB11
 6332 0044 18000000 		.4byte	.LFE11-.LFB11
 6333 0048 00000000 		.4byte	.LFB15
 6334 004c 6A000000 		.4byte	.LFE15-.LFB15
 6335 0050 00000000 		.4byte	.LFB13
 6336 0054 7A000000 		.4byte	.LFE13-.LFB13
 6337 0058 00000000 		.4byte	.LFB12
 6338 005c 30000000 		.4byte	.LFE12-.LFB12
 6339 0060 00000000 		.4byte	.LFB1
 6340 0064 96000000 		.4byte	.LFE1-.LFB1
 6341 0068 00000000 		.4byte	.LFB2
 6342 006c 2E020000 		.4byte	.LFE2-.LFB2
 6343 0070 00000000 		.4byte	.LFB3
 6344 0074 8E010000 		.4byte	.LFE3-.LFB3
 6345 0078 00000000 		.4byte	.LFB4
 6346 007c 62000000 		.4byte	.LFE4-.LFB4
 6347 0080 00000000 		.4byte	.LFB5
 6348 0084 06000000 		.4byte	.LFE5-.LFB5
 6349 0088 00000000 		.4byte	0
 6350 008c 00000000 		.4byte	0
 6351              		.section	.debug_ranges,"",%progbits
 6352              	.Ldebug_ranges0:
 6353 0000 32000000 		.4byte	.LBB2
 6354 0004 86000000 		.4byte	.LBE2
 6355 0008 8C000000 		.4byte	.LBB9
 6356 000c C2000000 		.4byte	.LBE9
 6357 0010 C4000000 		.4byte	.LBB10
 6358 0014 C6000000 		.4byte	.LBE10
 6359 0018 D4000000 		.4byte	.LBB11
 6360 001c 0E020000 		.4byte	.LBE11
 6361 0020 00000000 		.4byte	0
 6362 0024 00000000 		.4byte	0
 6363 0028 9C000000 		.4byte	.LBB3
 6364 002c B0000000 		.4byte	.LBE3
 6365 0030 B6000000 		.4byte	.LBB4
 6366 0034 C0000000 		.4byte	.LBE4
 6367 0038 00000000 		.4byte	0
 6368 003c 00000000 		.4byte	0
 6369 0040 94010000 		.4byte	.LBB5
 6370 0044 FA010000 		.4byte	.LBE5
 6371 0048 FC010000 		.4byte	.LBB8
 6372 004c 06020000 		.4byte	.LBE8
 6373 0050 00000000 		.4byte	0
 6374 0054 00000000 		.4byte	0
 6375 0058 B0010000 		.4byte	.LBB6
 6376 005c FA010000 		.4byte	.LBE6
 6377 0060 FC010000 		.4byte	.LBB7
 6378 0064 06020000 		.4byte	.LBE7
 6379 0068 00000000 		.4byte	0
 6380 006c 00000000 		.4byte	0
 6381 0070 36000000 		.4byte	.LBB12
 6382 0074 4E000000 		.4byte	.LBE12
ARM GAS  C:\Users\Larry\AppData\Local\Temp\ccxlVo0w.s 			page 142


 6383 0078 50000000 		.4byte	.LBB15
 6384 007c 76010000 		.4byte	.LBE15
 6385 0080 00000000 		.4byte	0
 6386 0084 00000000 		.4byte	0
 6387 0088 1A000000 		.4byte	.LBB16
 6388 008c 30000000 		.4byte	.LBE16
 6389 0090 36000000 		.4byte	.LBB17
 6390 0094 5C000000 		.4byte	.LBE17
 6391 0098 00000000 		.4byte	0
 6392 009c 00000000 		.4byte	0
 6393 00a0 00000000 		.4byte	.LFB6
 6394 00a4 2A000000 		.4byte	.LFE6
 6395 00a8 00000000 		.4byte	.LFB7
 6396 00ac 1A000000 		.4byte	.LFE7
 6397 00b0 00000000 		.4byte	.LFB8
 6398 00b4 58000000 		.4byte	.LFE8
 6399 00b8 00000000 		.4byte	.LFB9
 6400 00bc 3A000000 		.4byte	.LFE9
 6401 00c0 00000000 		.4byte	.LFB10
 6402 00c4 38000000 		.4byte	.LFE10
 6403 00c8 00000000 		.4byte	.LFB14
 6404 00cc A2000000 		.4byte	.LFE14
 6405 00d0 00000000 		.4byte	.LFB11
 6406 00d4 18000000 		.4byte	.LFE11
 6407 00d8 00000000 		.4byte	.LFB15
 6408 00dc 6A000000 		.4byte	.LFE15
 6409 00e0 00000000 		.4byte	.LFB13
 6410 00e4 7A000000 		.4byte	.LFE13
 6411 00e8 00000000 		.4byte	.LFB12
 6412 00ec 30000000 		.4byte	.LFE12
 6413 00f0 00000000 		.4byte	.LFB1
 6414 00f4 96000000 		.4byte	.LFE1
 6415 00f8 00000000 		.4byte	.LFB2
 6416 00fc 2E020000 		.4byte	.LFE2
 6417 0100 00000000 		.4byte	.LFB3
 6418 0104 8E010000 		.4byte	.LFE3
 6419 0108 00000000 		.4byte	.LFB4
 6420 010c 62000000 		.4byte	.LFE4
 6421 0110 00000000 		.4byte	.LFB5
 6422 0114 06000000 		.4byte	.LFE5
 6423 0118 00000000 		.4byte	0
 6424 011c 00000000 		.4byte	0
 6425              		.section	.debug_line,"",%progbits
 6426              	.Ldebug_line0:
 6427 0000 91040000 		.section	.debug_str,"MS",%progbits,1
 6427      02006800 
 6427      00000201 
 6427      FB0E0D00 
 6427      01010101 
 6428              	.LASF10:
 6429 0000 75696E74 		.ascii	"uint16\000"
 6429      313600
 6430              	.LASF42:
 6431 0007 726F7754 		.ascii	"rowToWrPtr\000"
 6431      6F577250 
 6431      747200
 6432              	.LASF94:
ARM GAS  C:\Users\Larry\AppData\Local\Temp\ccxlVo0w.s 			page 143


 6433 0012 746D7044 		.ascii	"tmpData\000"
 6433      61746100 
 6434              	.LASF33:
 6435 001a 63795F65 		.ascii	"cy_en_em_eeprom_status_t\000"
 6435      6E5F656D 
 6435      5F656570 
 6435      726F6D5F 
 6435      73746174 
 6436              	.LASF39:
 6437 0033 656D4565 		.ascii	"emEepromAddr\000"
 6437      70726F6D 
 6437      41646472 
 6437      00
 6438              	.LASF53:
 6439 0040 726F774E 		.ascii	"rowNum\000"
 6439      756D00
 6440              	.LASF25:
 6441 0047 6E756D62 		.ascii	"numberOfRows\000"
 6441      65724F66 
 6441      526F7773 
 6441      00
 6442              	.LASF103:
 6443 0054 474E5520 		.ascii	"GNU C11 5.4.1 20160609 (release) [ARM/embedded-5-br"
 6443      43313120 
 6443      352E342E 
 6443      31203230 
 6443      31363036 
 6444 0087 616E6368 		.ascii	"anch revision 237715] -mcpu=cortex-m0 -mthumb -g -O"
 6444      20726576 
 6444      6973696F 
 6444      6E203233 
 6444      37373135 
 6445 00ba 67202D66 		.ascii	"g -ffunction-sections -ffat-lto-objects\000"
 6445      66756E63 
 6445      74696F6E 
 6445      2D736563 
 6445      74696F6E 
 6446              	.LASF95:
 6447 00e2 6E756D57 		.ascii	"numWrites\000"
 6447      72697465 
 6447      7300
 6448              	.LASF7:
 6449 00ec 6C6F6E67 		.ascii	"long long unsigned int\000"
 6449      206C6F6E 
 6449      6720756E 
 6449      7369676E 
 6449      65642069 
 6450              	.LASF54:
 6451 0103 61646472 		.ascii	"addr\000"
 6451      00
 6452              	.LASF18:
 6453 0108 65657072 		.ascii	"eepromSize\000"
 6453      6F6D5369 
 6453      7A6500
 6454              	.LASF6:
 6455 0113 6C6F6E67 		.ascii	"long long int\000"
 6455      206C6F6E 
ARM GAS  C:\Users\Larry\AppData\Local\Temp\ccxlVo0w.s 			page 144


 6455      6720696E 
 6455      7400
 6456              	.LASF0:
 6457 0121 7369676E 		.ascii	"signed char\000"
 6457      65642063 
 6457      68617200 
 6458              	.LASF56:
 6459 012d 57726974 		.ascii	"WriteRow\000"
 6459      65526F77 
 6459      00
 6460              	.LASF40:
 6461 0136 46696E64 		.ascii	"FindLastWrittenRow\000"
 6461      4C617374 
 6461      57726974 
 6461      74656E52 
 6461      6F7700
 6462              	.LASF104:
 6463 0149 47656E65 		.ascii	"Generated_Source\\PSoC4\\cy_em_eeprom.c\000"
 6463      72617465 
 6463      645F536F 
 6463      75726365 
 6463      5C50536F 
 6464              	.LASF32:
 6465 016f 43595F45 		.ascii	"CY_EM_EEPROM_WRITE_FAIL\000"
 6465      4D5F4545 
 6465      50524F4D 
 6465      5F575249 
 6465      54455F46 
 6466              	.LASF100:
 6467 0187 43795F45 		.ascii	"Cy_Em_EEPROM_NumWrites\000"
 6467      6D5F4545 
 6467      50524F4D 
 6467      5F4E756D 
 6467      57726974 
 6468              	.LASF4:
 6469 019e 6C6F6E67 		.ascii	"long int\000"
 6469      20696E74 
 6469      00
 6470              	.LASF22:
 6471 01a7 75736572 		.ascii	"userFlashStartAddr\000"
 6471      466C6173 
 6471      68537461 
 6471      72744164 
 6471      647200
 6472              	.LASF101:
 6473 01ba 6D656D63 		.ascii	"memcpy\000"
 6473      707900
 6474              	.LASF9:
 6475 01c1 75696E74 		.ascii	"uint8\000"
 6475      3800
 6476              	.LASF13:
 6477 01c7 646F7562 		.ascii	"double\000"
 6477      6C6500
 6478              	.LASF11:
 6479 01ce 75696E74 		.ascii	"uint32\000"
 6479      333200
 6480              	.LASF80:
ARM GAS  C:\Users\Larry\AppData\Local\Temp\ccxlVo0w.s 			page 145


 6481 01d5 61637445 		.ascii	"actEepromRowNum\000"
 6481      6570726F 
 6481      6D526F77 
 6481      4E756D00 
 6482              	.LASF96:
 6483 01e5 65654865 		.ascii	"eeHeaderDataOffset\000"
 6483      61646572 
 6483      44617461 
 6483      4F666673 
 6483      657400
 6484              	.LASF85:
 6485 01f8 75706461 		.ascii	"updateAddrFlag\000"
 6485      74654164 
 6485      6472466C 
 6485      616700
 6486              	.LASF38:
 6487 0207 6E756D52 		.ascii	"numRows\000"
 6487      6F777300 
 6488              	.LASF63:
 6489 020f 746D7052 		.ascii	"tmpRowAddr\000"
 6489      6F774164 
 6489      647200
 6490              	.LASF70:
 6491 021a 72616D42 		.ascii	"ramBuffAddr\000"
 6491      75666641 
 6491      64647200 
 6492              	.LASF20:
 6493 0226 72656475 		.ascii	"redundantCopy\000"
 6493      6E64616E 
 6493      74436F70 
 6493      7900
 6494              	.LASF98:
 6495 0234 64617461 		.ascii	"dataAddr\000"
 6495      41646472 
 6495      00
 6496              	.LASF8:
 6497 023d 756E7369 		.ascii	"unsigned int\000"
 6497      676E6564 
 6497      20696E74 
 6497      00
 6498              	.LASF67:
 6499 024a 6E756D42 		.ascii	"numBytes\000"
 6499      79746573 
 6499      00
 6500              	.LASF5:
 6501 0253 6C6F6E67 		.ascii	"long unsigned int\000"
 6501      20756E73 
 6501      69676E65 
 6501      6420696E 
 6501      7400
 6502              	.LASF51:
 6503 0265 47657441 		.ascii	"GetAddresses\000"
 6503      64647265 
 6503      73736573 
 6503      00
 6504              	.LASF34:
 6505 0272 6C617374 		.ascii	"lastWrRowPtr\000"
ARM GAS  C:\Users\Larry\AppData\Local\Temp\ccxlVo0w.s 			page 146


 6505      5772526F 
 6505      77507472 
 6505      00
 6506              	.LASF64:
 6507 027f 43686563 		.ascii	"CheckCrcAndCopy\000"
 6507      6B437263 
 6507      416E6443 
 6507      6F707900 
 6508              	.LASF88:
 6509 028f 7372634F 		.ascii	"srcOffset\000"
 6509      66667365 
 6509      7400
 6510              	.LASF75:
 6511 0299 73697A65 		.ascii	"size\000"
 6511      00
 6512              	.LASF3:
 6513 029e 73686F72 		.ascii	"short unsigned int\000"
 6513      7420756E 
 6513      7369676E 
 6513      65642069 
 6513      6E7400
 6514              	.LASF92:
 6515 02b1 61637445 		.ascii	"actEmEepromRowNum\000"
 6515      6D456570 
 6515      726F6D52 
 6515      6F774E75 
 6515      6D00
 6516              	.LASF43:
 6517 02c3 726F7754 		.ascii	"rowToRdPtr\000"
 6517      6F526450 
 6517      747200
 6518              	.LASF93:
 6519 02ce 656D4565 		.ascii	"emEepromRowRdAddr\000"
 6519      70726F6D 
 6519      526F7752 
 6519      64416464 
 6519      7200
 6520              	.LASF74:
 6521 02e0 65657072 		.ascii	"eepromData\000"
 6521      6F6D4461 
 6521      746100
 6522              	.LASF65:
 6523 02eb 64737441 		.ascii	"dstAddr\000"
 6523      64647200 
 6524              	.LASF79:
 6525 02f3 73746172 		.ascii	"startRowAddr\000"
 6525      74526F77 
 6525      41646472 
 6525      00
 6526              	.LASF77:
 6527 0300 63757245 		.ascii	"curEepromBaseAddr\000"
 6527      6570726F 
 6527      6D426173 
 6527      65416464 
 6527      7200
 6528              	.LASF73:
 6529 0312 43795F45 		.ascii	"Cy_Em_EEPROM_Read\000"
ARM GAS  C:\Users\Larry\AppData\Local\Temp\ccxlVo0w.s 			page 147


 6529      6D5F4545 
 6529      50524F4D 
 6529      5F526561 
 6529      6400
 6530              	.LASF58:
 6531 0324 726F7749 		.ascii	"rowId\000"
 6531      6400
 6532              	.LASF69:
 6533 032a 45726173 		.ascii	"EraseRow\000"
 6533      65526F77 
 6533      00
 6534              	.LASF29:
 6535 0333 43595F45 		.ascii	"CY_EM_EEPROM_BAD_PARAM\000"
 6535      4D5F4545 
 6535      50524F4D 
 6535      5F424144 
 6535      5F504152 
 6536              	.LASF30:
 6537 034a 43595F45 		.ascii	"CY_EM_EEPROM_BAD_CHECKSUM\000"
 6537      4D5F4545 
 6537      50524F4D 
 6537      5F424144 
 6537      5F434845 
 6538              	.LASF17:
 6539 0364 73697A65 		.ascii	"sizetype\000"
 6539      74797065 
 6539      00
 6540              	.LASF16:
 6541 036d 6C6F6E67 		.ascii	"long double\000"
 6541      20646F75 
 6541      626C6500 
 6542              	.LASF99:
 6543 0379 43795F45 		.ascii	"Cy_Em_EEPROM_Erase\000"
 6543      6D5F4545 
 6543      50524F4D 
 6543      5F457261 
 6543      736500
 6544              	.LASF90:
 6545 038c 43795F45 		.ascii	"Cy_Em_EEPROM_Write\000"
 6545      6D5F4545 
 6545      50524F4D 
 6545      5F577269 
 6545      746500
 6546              	.LASF36:
 6547 039f 7365714E 		.ascii	"seqNum\000"
 6547      756D00
 6548              	.LASF27:
 6549 03a6 63795F73 		.ascii	"cy_stc_eeprom_context_t\000"
 6549      74635F65 
 6549      6570726F 
 6549      6D5F636F 
 6549      6E746578 
 6550              	.LASF41:
 6551 03be 4765744E 		.ascii	"GetNextRowToWrite\000"
 6551      65787452 
 6551      6F77546F 
 6551      57726974 
ARM GAS  C:\Users\Larry\AppData\Local\Temp\ccxlVo0w.s 			page 148


 6551      6500
 6552              	.LASF59:
 6553 03d0 46696C6C 		.ascii	"FillChecksum\000"
 6553      43686563 
 6553      6B73756D 
 6553      00
 6554              	.LASF47:
 6555 03dd 43686563 		.ascii	"CheckRanges\000"
 6555      6B52616E 
 6555      67657300 
 6556              	.LASF62:
 6557 03e9 77724164 		.ascii	"wrAddr\000"
 6557      647200
 6558              	.LASF91:
 6559 03f0 7772436E 		.ascii	"wrCnt\000"
 6559      7400
 6560              	.LASF12:
 6561 03f6 666C6F61 		.ascii	"float\000"
 6561      7400
 6562              	.LASF50:
 6563 03fc 656E6441 		.ascii	"endAddr\000"
 6563      64647200 
 6564              	.LASF31:
 6565 0404 43595F45 		.ascii	"CY_EM_EEPROM_BAD_DATA\000"
 6565      4D5F4545 
 6565      50524F4D 
 6565      5F424144 
 6565      5F444154 
 6566              	.LASF24:
 6567 041a 776C456E 		.ascii	"wlEndAddr\000"
 6567      64416464 
 6567      7200
 6568              	.LASF1:
 6569 0424 756E7369 		.ascii	"unsigned char\000"
 6569      676E6564 
 6569      20636861 
 6569      7200
 6570              	.LASF57:
 6571 0432 726F7741 		.ascii	"rowAddr\000"
 6571      64647200 
 6572              	.LASF2:
 6573 043a 73686F72 		.ascii	"short int\000"
 6573      7420696E 
 6573      7400
 6574              	.LASF37:
 6575 0444 70726576 		.ascii	"prevSeqNum\000"
 6575      5365714E 
 6575      756D00
 6576              	.LASF97:
 6577 044f 736B6970 		.ascii	"skipOperation\000"
 6577      4F706572 
 6577      6174696F 
 6577      6E00
 6578              	.LASF82:
 6579 045d 64617461 		.ascii	"dataStartEepromRowNum\000"
 6579      53746172 
 6579      74456570 
ARM GAS  C:\Users\Larry\AppData\Local\Temp\ccxlVo0w.s 			page 149


 6579      726F6D52 
 6579      6F774E75 
 6580              	.LASF72:
 6581 0473 43795F45 		.ascii	"Cy_Em_EEPROM_Init\000"
 6581      6D5F4545 
 6581      50524F4D 
 6581      5F496E69 
 6581      7400
 6582              	.LASF105:
 6583 0485 433A5C55 		.ascii	"C:\\Users\\Larry\\Documents\\PSoC Creator\\bwsi\\ba"
 6583      73657273 
 6583      5C4C6172 
 6583      72795C44 
 6583      6F63756D 
 6584 04b2 6E6B2D70 		.ascii	"nk-protocol\\bank-protocol.cydsn\000"
 6584      726F746F 
 6584      636F6C5C 
 6584      62616E6B 
 6584      2D70726F 
 6585              	.LASF61:
 6586 04d2 77726974 		.ascii	"writeRamBuffer\000"
 6586      6552616D 
 6586      42756666 
 6586      657200
 6587              	.LASF66:
 6588 04e1 726F774F 		.ascii	"rowOffset\000"
 6588      66667365 
 6588      7400
 6589              	.LASF68:
 6590 04eb 72635374 		.ascii	"rcStartRowAddr\000"
 6590      61727452 
 6590      6F774164 
 6590      647200
 6591              	.LASF14:
 6592 04fa 63686172 		.ascii	"char\000"
 6592      00
 6593              	.LASF48:
 6594 04ff 636F6E66 		.ascii	"config\000"
 6594      696700
 6595              	.LASF76:
 6596 0506 6E756D42 		.ascii	"numBytesToRead\000"
 6596      79746573 
 6596      546F5265 
 6596      616400
 6597              	.LASF49:
 6598 0515 73746172 		.ascii	"startAddr\000"
 6598      74416464 
 6598      7200
 6599              	.LASF55:
 6600 051f 736B6970 		.ascii	"skip\000"
 6600      00
 6601              	.LASF52:
 6602 0524 6F666673 		.ascii	"offset\000"
 6602      657400
 6603              	.LASF35:
 6604 052b 636F6E74 		.ascii	"context\000"
 6604      65787400 
ARM GAS  C:\Users\Larry\AppData\Local\Temp\ccxlVo0w.s 			page 150


 6605              	.LASF26:
 6606 0533 6C617374 		.ascii	"lastWrRowAddr\000"
 6606      5772526F 
 6606      77416464 
 6606      7200
 6607              	.LASF78:
 6608 0541 63757252 		.ascii	"curRowOffset\000"
 6608      6F774F66 
 6608      66736574 
 6608      00
 6609              	.LASF23:
 6610 054e 63795F73 		.ascii	"cy_stc_eeprom_config_t\000"
 6610      74635F65 
 6610      6570726F 
 6610      6D5F636F 
 6610      6E666967 
 6611              	.LASF84:
 6612 0565 72645369 		.ascii	"rdSize\000"
 6612      7A6500
 6613              	.LASF19:
 6614 056c 77656172 		.ascii	"wearLevelingFactor\000"
 6614      4C657665 
 6614      6C696E67 
 6614      46616374 
 6614      6F7200
 6615              	.LASF102:
 6616 057f 6D656D73 		.ascii	"memset\000"
 6616      657400
 6617              	.LASF60:
 6618 0586 72644164 		.ascii	"rdAddr\000"
 6618      647200
 6619              	.LASF89:
 6620 058d 6473744F 		.ascii	"dstOffset\000"
 6620      66667365 
 6620      7400
 6621              	.LASF106:
 6622 0597 43795379 		.ascii	"CySysFlashWriteRow\000"
 6622      73466C61 
 6622      73685772 
 6622      69746552 
 6622      6F7700
 6623              	.LASF44:
 6624 05aa 47657452 		.ascii	"GetRowAddrBySeqNum\000"
 6624      6F774164 
 6624      64724279 
 6624      5365714E 
 6624      756D00
 6625              	.LASF28:
 6626 05bd 43595F45 		.ascii	"CY_EM_EEPROM_SUCCESS\000"
 6626      4D5F4545 
 6626      50524F4D 
 6626      5F535543 
 6626      43455353 
 6627              	.LASF21:
 6628 05d2 626C6F63 		.ascii	"blockingWrite\000"
 6628      6B696E67 
 6628      57726974 
ARM GAS  C:\Users\Larry\AppData\Local\Temp\ccxlVo0w.s 			page 151


 6628      6500
 6629              	.LASF81:
 6630 05e0 63757252 		.ascii	"curRdEepromRowNum\000"
 6630      64456570 
 6630      726F6D52 
 6630      6F774E75 
 6630      6D00
 6631              	.LASF15:
 6632 05f2 63797374 		.ascii	"cystatus\000"
 6632      61747573 
 6632      00
 6633              	.LASF45:
 6634 05fb 43616C63 		.ascii	"CalcChecksum\000"
 6634      43686563 
 6634      6B73756D 
 6634      00
 6635              	.LASF46:
 6636 0608 726F7744 		.ascii	"rowData\000"
 6636      61746100 
 6637              	.LASF87:
 6638 0610 64617461 		.ascii	"dataEndEepromRowNum\000"
 6638      456E6445 
 6638      6570726F 
 6638      6D526F77 
 6638      4E756D00 
 6639              	.LASF86:
 6640 0624 6E756D52 		.ascii	"numRowReads\000"
 6640      6F775265 
 6640      61647300 
 6641              	.LASF71:
 6642 0630 656D4565 		.ascii	"emEepromRowAddr\000"
 6642      70726F6D 
 6642      526F7741 
 6642      64647200 
 6643              	.LASF83:
 6644 0640 65654461 		.ascii	"eeData\000"
 6644      746100
 6645              		.ident	"GCC: (GNU Tools for ARM Embedded Processors) 5.4.1 20160609 (release) [ARM/embedded-5-bran
